   1               		.file	"at24c512.c"
   2               	__SP_H__ = 0x3e
   3               	__SP_L__ = 0x3d
   4               	__SREG__ = 0x3f
   5               	__tmp_reg__ = 0
   6               	__zero_reg__ = 1
   7               		.text
   8               	.Ltext0:
   9               		.cfi_sections	.debug_frame
  11               	twi_wait_int:
  12               	.LFB10:
  13               		.file 1 "at24c512.c"
   1:at24c512.c    **** /*
   2:at24c512.c    ****  * AT24C512 I2C EEPROM driver dla ATmega328PB
   3:at24c512.c    ****  * Piny: PC4 = SDA (TWD), PC5 = SCL (TWC)
   4:at24c512.c    ****  * TWI na tych pinach jest domyślny w 32-pin package
   5:at24c512.c    ****  */
   6:at24c512.c    **** 
   7:at24c512.c    **** #include "at24c512.h"
   8:at24c512.c    **** #include <avr/io.h>
   9:at24c512.c    **** #include <util/delay.h>
  10:at24c512.c    **** 
  11:at24c512.c    **** #define F_SCL 400000UL  /* 400 kHz Fast Mode – AT24C512 to obsługuje, szybszy odczyt/zapis */
  12:at24c512.c    **** #define TWI_BAUD(FREQ, FSCL) (((FREQ) / (FSCL)) - 16) / 2
  13:at24c512.c    **** 
  14:at24c512.c    **** /* ATmega328PB ma TWI0 (TWCR0, TWSR0, TWDR0, TWBR0) */
  15:at24c512.c    **** #define TWI_CR  TWCR0
  16:at24c512.c    **** #define TWI_SR  TWSR0
  17:at24c512.c    **** #define TWI_DR  TWDR0
  18:at24c512.c    **** #define TWI_BR  TWBR0
  19:at24c512.c    **** 
  20:at24c512.c    **** /* Ochrona przed zawieszeniem na uszkodzonej magistrali I2C. */
  21:at24c512.c    **** #define TWI_OP_TIMEOUT_LOOPS 60000U
  22:at24c512.c    **** #define EEPROM_READY_TIMEOUT_LOOPS 20000U
  23:at24c512.c    **** 
  24:at24c512.c    **** static uint8_t twi_wait_int(void) {
  14               		.loc 1 24 35 view -0
  15               		.cfi_startproc
  16               	/* prologue: function */
  17               	/* frame size = 0 */
  18               	/* stack size = 0 */
  19               	.L__stack_usage = 0
  25:at24c512.c    ****   uint16_t timeout = TWI_OP_TIMEOUT_LOOPS;
  20               		.loc 1 25 3 view .LVU1
  21               	.LVL0:
  26:at24c512.c    ****   while (!(TWI_CR & (1 << TWINT)) && --timeout)
  22               		.loc 1 26 3 view .LVU2
  25:at24c512.c    ****   uint16_t timeout = TWI_OP_TIMEOUT_LOOPS;
  23               		.loc 1 25 12 is_stmt 0 view .LVU3
  24 0000 20E6      		ldi r18,lo8(96)
  25 0002 3AEE      		ldi r19,lo8(-22)
  26               	.LVL1:
  27               	.L3:
  27:at24c512.c    ****     ;
  28               		.loc 1 27 5 is_stmt 1 discriminator 2 view .LVU4
  26:at24c512.c    ****   while (!(TWI_CR & (1 << TWINT)) && --timeout)
  29               		.loc 1 26 9 discriminator 2 view .LVU5
  26:at24c512.c    ****   while (!(TWI_CR & (1 << TWINT)) && --timeout)
  30               		.loc 1 26 12 is_stmt 0 discriminator 2 view .LVU6
  31 0004 8091 BC00 		lds r24,188
  26:at24c512.c    ****   while (!(TWI_CR & (1 << TWINT)) && --timeout)
  32               		.loc 1 26 9 discriminator 2 view .LVU7
  33 0008 87FD      		sbrc r24,7
  34 000a 00C0      		rjmp .L2
  26:at24c512.c    ****   while (!(TWI_CR & (1 << TWINT)) && --timeout)
  35               		.loc 1 26 35 discriminator 1 view .LVU8
  36 000c 2150      		subi r18,1
  37 000e 3109      		sbc r19,__zero_reg__
  38               	.LVL2:
  26:at24c512.c    ****   while (!(TWI_CR & (1 << TWINT)) && --timeout)
  39               		.loc 1 26 35 discriminator 1 view .LVU9
  40 0010 01F4      		brne .L3
  41               	.L2:
  28:at24c512.c    ****   return (timeout != 0);
  42               		.loc 1 28 3 is_stmt 1 view .LVU10
  43               		.loc 1 28 19 is_stmt 0 view .LVU11
  44 0012 81E0      		ldi r24,lo8(1)
  45 0014 232B      		or r18,r19
  46 0016 01F4      		brne .L4
  47               		.loc 1 28 19 view .LVU12
  48 0018 80E0      		ldi r24,0
  49               	.L4:
  50               	/* epilogue start */
  29:at24c512.c    **** }
  51               		.loc 1 29 1 view .LVU13
  52 001a 0895      		ret
  53               		.cfi_endproc
  54               	.LFE10:
  57               	twi_start:
  58               	.LFB11:
  30:at24c512.c    **** 
  31:at24c512.c    **** static uint8_t twi_start(void) {
  59               		.loc 1 31 32 is_stmt 1 view -0
  60               		.cfi_startproc
  61               	/* prologue: function */
  62               	/* frame size = 0 */
  63               	/* stack size = 0 */
  64               	.L__stack_usage = 0
  32:at24c512.c    ****   TWI_CR = (1 << TWINT) | (1 << TWSTA) | (1 << TWEN);
  65               		.loc 1 32 3 view .LVU15
  66               		.loc 1 32 10 is_stmt 0 view .LVU16
  67 001c 84EA      		ldi r24,lo8(-92)
  68 001e 8093 BC00 		sts 188,r24
  33:at24c512.c    ****   if (!twi_wait_int())
  69               		.loc 1 33 3 is_stmt 1 view .LVU17
  70               		.loc 1 33 8 is_stmt 0 view .LVU18
  71 0022 0E94 0000 		call twi_wait_int
  72               	.LVL3:
  73               		.loc 1 33 6 view .LVU19
  74 0026 8823      		tst r24
  75 0028 01F0      		breq .L8
  34:at24c512.c    ****     return 0xFF;
  35:at24c512.c    ****   return TWI_SR & 0xF8;
  76               		.loc 1 35 3 is_stmt 1 view .LVU20
  77               		.loc 1 35 17 is_stmt 0 view .LVU21
  78 002a 8091 B900 		lds r24,185
  79 002e 887F      		andi r24,lo8(-8)
  80 0030 0895      		ret
  81               	.L8:
  34:at24c512.c    ****     return 0xFF;
  82               		.loc 1 34 12 view .LVU22
  83 0032 8FEF      		ldi r24,lo8(-1)
  84               	/* epilogue start */
  36:at24c512.c    **** }
  85               		.loc 1 36 1 view .LVU23
  86 0034 0895      		ret
  87               		.cfi_endproc
  88               	.LFE11:
  91               	twi_stop:
  92               	.LFB12:
  37:at24c512.c    **** 
  38:at24c512.c    **** static void twi_stop(void) {
  93               		.loc 1 38 28 is_stmt 1 view -0
  94               		.cfi_startproc
  95               	/* prologue: function */
  96               	/* frame size = 0 */
  97               	/* stack size = 0 */
  98               	.L__stack_usage = 0
  39:at24c512.c    ****   TWI_CR = (1 << TWINT) | (1 << TWSTO) | (1 << TWEN);
  99               		.loc 1 39 3 view .LVU25
 100               		.loc 1 39 10 is_stmt 0 view .LVU26
 101 0036 84E9      		ldi r24,lo8(-108)
 102 0038 8093 BC00 		sts 188,r24
  40:at24c512.c    ****   uint16_t timeout = TWI_OP_TIMEOUT_LOOPS;
 103               		.loc 1 40 3 is_stmt 1 view .LVU27
 104               	.LVL4:
  41:at24c512.c    ****   while ((TWI_CR & (1 << TWSTO)) && --timeout)
 105               		.loc 1 41 3 view .LVU28
 106               		.loc 1 41 9 is_stmt 0 view .LVU29
 107 003c 80E6      		ldi r24,lo8(96)
 108 003e 9AEE      		ldi r25,lo8(-22)
 109               	.LVL5:
 110               	.L11:
  42:at24c512.c    ****     ;
 111               		.loc 1 42 5 is_stmt 1 discriminator 2 view .LVU30
  41:at24c512.c    ****   while ((TWI_CR & (1 << TWSTO)) && --timeout)
 112               		.loc 1 41 9 discriminator 2 view .LVU31
  41:at24c512.c    ****   while ((TWI_CR & (1 << TWSTO)) && --timeout)
 113               		.loc 1 41 11 is_stmt 0 discriminator 2 view .LVU32
 114 0040 2091 BC00 		lds r18,188
  41:at24c512.c    ****   while ((TWI_CR & (1 << TWSTO)) && --timeout)
 115               		.loc 1 41 9 discriminator 2 view .LVU33
 116 0044 24FF      		sbrs r18,4
 117 0046 00C0      		rjmp .L9
 118               	.LVL6:
  41:at24c512.c    ****   while ((TWI_CR & (1 << TWSTO)) && --timeout)
 119               		.loc 1 41 9 discriminator 2 view .LVU34
 120 0048 0197      		sbiw r24,1
 121               	.LVL7:
  41:at24c512.c    ****   while ((TWI_CR & (1 << TWSTO)) && --timeout)
 122               		.loc 1 41 34 discriminator 1 view .LVU35
 123 004a 01F4      		brne .L11
 124               	.L9:
 125               	/* epilogue start */
  43:at24c512.c    **** }
 126               		.loc 1 43 1 view .LVU36
 127 004c 0895      		ret
 128               		.cfi_endproc
 129               	.LFE12:
 132               	twi_send_byte:
 133               	.LVL8:
 134               	.LFB13:
  44:at24c512.c    **** 
  45:at24c512.c    **** static uint8_t twi_send_byte(uint8_t data) {
 135               		.loc 1 45 44 is_stmt 1 view -0
 136               		.cfi_startproc
 137               	/* prologue: function */
 138               	/* frame size = 0 */
 139               	/* stack size = 0 */
 140               	.L__stack_usage = 0
  46:at24c512.c    ****   TWI_DR = data;
 141               		.loc 1 46 3 view .LVU38
 142               		.loc 1 46 10 is_stmt 0 view .LVU39
 143 004e 8093 BB00 		sts 187,r24
  47:at24c512.c    ****   TWI_CR = (1 << TWINT) | (1 << TWEN);
 144               		.loc 1 47 3 is_stmt 1 view .LVU40
 145               		.loc 1 47 10 is_stmt 0 view .LVU41
 146 0052 84E8      		ldi r24,lo8(-124)
 147               	.LVL9:
 148               		.loc 1 47 10 view .LVU42
 149 0054 8093 BC00 		sts 188,r24
 150               	.LVL10:
  48:at24c512.c    ****   if (!twi_wait_int())
 151               		.loc 1 48 3 is_stmt 1 view .LVU43
 152               		.loc 1 48 8 is_stmt 0 view .LVU44
 153 0058 0E94 0000 		call twi_wait_int
 154               	.LVL11:
 155               		.loc 1 48 6 view .LVU45
 156 005c 8823      		tst r24
 157 005e 01F0      		breq .L18
  49:at24c512.c    ****     return 0xFF;
  50:at24c512.c    ****   return TWI_SR & 0xF8;
 158               		.loc 1 50 3 is_stmt 1 view .LVU46
 159               		.loc 1 50 17 is_stmt 0 view .LVU47
 160 0060 8091 B900 		lds r24,185
 161 0064 887F      		andi r24,lo8(-8)
 162 0066 0895      		ret
 163               	.L18:
  49:at24c512.c    ****     return 0xFF;
 164               		.loc 1 49 12 view .LVU48
 165 0068 8FEF      		ldi r24,lo8(-1)
 166               	/* epilogue start */
  51:at24c512.c    **** }
 167               		.loc 1 51 1 view .LVU49
 168 006a 0895      		ret
 169               		.cfi_endproc
 170               	.LFE13:
 172               	.global	at24c512_init
 174               	at24c512_init:
 175               	.LFB16:
  52:at24c512.c    **** 
  53:at24c512.c    **** static uint8_t twi_recv_byte_ack(void) {
  54:at24c512.c    ****   TWI_CR = (1 << TWINT) | (1 << TWEA) | (1 << TWEN);
  55:at24c512.c    ****   if (!twi_wait_int())
  56:at24c512.c    ****     return 0xFF;
  57:at24c512.c    ****   return TWI_DR;
  58:at24c512.c    **** }
  59:at24c512.c    **** 
  60:at24c512.c    **** static uint8_t twi_recv_byte_nack(void) {
  61:at24c512.c    ****   TWI_CR = (1 << TWINT) | (1 << TWEN);
  62:at24c512.c    ****   if (!twi_wait_int())
  63:at24c512.c    ****     return 0xFF;
  64:at24c512.c    ****   return TWI_DR;
  65:at24c512.c    **** }
  66:at24c512.c    **** 
  67:at24c512.c    **** void at24c512_init(void) {
 176               		.loc 1 67 26 is_stmt 1 view -0
 177               		.cfi_startproc
 178               	/* prologue: function */
 179               	/* frame size = 0 */
 180               	/* stack size = 0 */
 181               	.L__stack_usage = 0
  68:at24c512.c    ****   /* PC4 (SDA), PC5 (SCL) - pull-up włączone przez PORT */
  69:at24c512.c    ****   PORTC |= (1 << PC4) | (1 << PC5);
 182               		.loc 1 69 3 view .LVU51
 183               		.loc 1 69 9 is_stmt 0 view .LVU52
 184 006c 88B1      		in r24,0x8
 185 006e 8063      		ori r24,lo8(48)
 186 0070 88B9      		out 0x8,r24
  70:at24c512.c    ****   DDRC &= ~((1 << PC4) | (1 << PC5));
 187               		.loc 1 70 3 is_stmt 1 view .LVU53
 188               		.loc 1 70 8 is_stmt 0 view .LVU54
 189 0072 87B1      		in r24,0x7
 190 0074 8F7C      		andi r24,lo8(-49)
 191 0076 87B9      		out 0x7,r24
  71:at24c512.c    **** 
  72:at24c512.c    ****   TWI_BR = (uint8_t)TWI_BAUD(F_CPU, F_SCL);
 192               		.loc 1 72 3 is_stmt 1 view .LVU55
 193               		.loc 1 72 10 is_stmt 0 view .LVU56
 194 0078 81E0      		ldi r24,lo8(1)
 195 007a 8093 B800 		sts 184,r24
  73:at24c512.c    ****   TWI_SR = 0; /* prescaler 1 */
 196               		.loc 1 73 3 is_stmt 1 view .LVU57
 197               		.loc 1 73 10 is_stmt 0 view .LVU58
 198 007e 1092 B900 		sts 185,__zero_reg__
 199               	/* epilogue start */
  74:at24c512.c    **** }
 200               		.loc 1 74 1 view .LVU59
 201 0082 0895      		ret
 202               		.cfi_endproc
 203               	.LFE16:
 205               	.global	at24c512_read_byte
 207               	at24c512_read_byte:
 208               	.LVL12:
 209               	.LFB17:
  75:at24c512.c    **** 
  76:at24c512.c    **** uint8_t at24c512_read_byte(uint16_t addr) {
 210               		.loc 1 76 43 is_stmt 1 view -0
 211               		.cfi_startproc
 212               		.loc 1 76 43 is_stmt 0 view .LVU61
 213 0084 CF93      		push r28
 214               	.LCFI0:
 215               		.cfi_def_cfa_offset 3
 216               		.cfi_offset 28, -2
 217 0086 DF93      		push r29
 218               	.LCFI1:
 219               		.cfi_def_cfa_offset 4
 220               		.cfi_offset 29, -3
 221               	/* prologue: function */
 222               	/* frame size = 0 */
 223               	/* stack size = 2 */
 224               	.L__stack_usage = 2
 225 0088 EC01      		movw r28,r24
  77:at24c512.c    ****   uint8_t data;
 226               		.loc 1 77 3 is_stmt 1 view .LVU62
  78:at24c512.c    ****   if (twi_start() != 0x08)
 227               		.loc 1 78 3 view .LVU63
 228               		.loc 1 78 7 is_stmt 0 view .LVU64
 229 008a 0E94 0000 		call twi_start
 230               	.LVL13:
 231               		.loc 1 78 6 view .LVU65
 232 008e 8830      		cpi r24,lo8(8)
 233 0090 01F4      		brne .L24
  79:at24c512.c    ****     return 0xFF;
  80:at24c512.c    ****   if (twi_send_byte((AT24C512_I2C_ADDR << 1) | 0) != 0x18)
 234               		.loc 1 80 3 is_stmt 1 view .LVU66
 235               		.loc 1 80 7 is_stmt 0 view .LVU67
 236 0092 80EA      		ldi r24,lo8(-96)
 237 0094 0E94 0000 		call twi_send_byte
 238               	.LVL14:
 239               		.loc 1 80 6 view .LVU68
 240 0098 8831      		cpi r24,lo8(24)
 241 009a 01F4      		brne .L22
  81:at24c512.c    ****     goto fail;
  82:at24c512.c    ****   twi_send_byte((uint8_t)(addr >> 8));
 242               		.loc 1 82 3 is_stmt 1 view .LVU69
 243 009c 8D2F      		mov r24,r29
 244 009e 0E94 0000 		call twi_send_byte
 245               	.LVL15:
  83:at24c512.c    ****   twi_send_byte((uint8_t)(addr & 0xFF));
 246               		.loc 1 83 3 view .LVU70
 247 00a2 8C2F      		mov r24,r28
 248 00a4 0E94 0000 		call twi_send_byte
 249               	.LVL16:
  84:at24c512.c    ****   if (twi_start() != 0x10)
 250               		.loc 1 84 3 view .LVU71
 251               		.loc 1 84 7 is_stmt 0 view .LVU72
 252 00a8 0E94 0000 		call twi_start
 253               	.LVL17:
 254               		.loc 1 84 6 view .LVU73
 255 00ac 8031      		cpi r24,lo8(16)
 256 00ae 01F4      		brne .L22
  85:at24c512.c    ****     goto fail;
  86:at24c512.c    ****   if (twi_send_byte((AT24C512_I2C_ADDR << 1) | 1) != 0x40)
 257               		.loc 1 86 3 is_stmt 1 view .LVU74
 258               		.loc 1 86 7 is_stmt 0 view .LVU75
 259 00b0 81EA      		ldi r24,lo8(-95)
 260 00b2 0E94 0000 		call twi_send_byte
 261               	.LVL18:
 262               		.loc 1 86 6 view .LVU76
 263 00b6 8034      		cpi r24,lo8(64)
 264 00b8 01F4      		brne .L22
  87:at24c512.c    ****     goto fail;
  88:at24c512.c    ****   data = twi_recv_byte_nack();
 265               		.loc 1 88 3 is_stmt 1 view .LVU77
 266               	.LBB4:
 267               	.LBI4:
  60:at24c512.c    ****   TWI_CR = (1 << TWINT) | (1 << TWEN);
 268               		.loc 1 60 16 view .LVU78
 269               	.LBB5:
  61:at24c512.c    ****   if (!twi_wait_int())
 270               		.loc 1 61 3 view .LVU79
  61:at24c512.c    ****   if (!twi_wait_int())
 271               		.loc 1 61 10 is_stmt 0 view .LVU80
 272 00ba 84E8      		ldi r24,lo8(-124)
 273 00bc 8093 BC00 		sts 188,r24
  62:at24c512.c    ****     return 0xFF;
 274               		.loc 1 62 3 is_stmt 1 view .LVU81
  62:at24c512.c    ****     return 0xFF;
 275               		.loc 1 62 8 is_stmt 0 view .LVU82
 276 00c0 0E94 0000 		call twi_wait_int
 277               	.LVL19:
  63:at24c512.c    ****   return TWI_DR;
 278               		.loc 1 63 12 view .LVU83
 279 00c4 CFEF      		ldi r28,lo8(-1)
 280               	.LVL20:
  62:at24c512.c    ****     return 0xFF;
 281               		.loc 1 62 6 view .LVU84
 282 00c6 8111      		cpse r24,__zero_reg__
  64:at24c512.c    **** }
 283               		.loc 1 64 3 is_stmt 1 view .LVU85
  64:at24c512.c    **** }
 284               		.loc 1 64 10 is_stmt 0 view .LVU86
 285 00c8 C091 BB00 		lds r28,187
 286               	.L23:
 287               	.LVL21:
  64:at24c512.c    **** }
 288               		.loc 1 64 10 view .LVU87
 289               	.LBE5:
 290               	.LBE4:
  89:at24c512.c    ****   twi_stop();
 291               		.loc 1 89 3 is_stmt 1 view .LVU88
 292 00cc 0E94 0000 		call twi_stop
 293               	.LVL22:
  90:at24c512.c    ****   return data;
 294               		.loc 1 90 3 view .LVU89
 295               	.L20:
  91:at24c512.c    **** fail:
  92:at24c512.c    ****   twi_stop();
  93:at24c512.c    ****   return 0xFF;
  94:at24c512.c    **** }
 296               		.loc 1 94 1 is_stmt 0 view .LVU90
 297 00d0 8C2F      		mov r24,r28
 298               	/* epilogue start */
 299 00d2 DF91      		pop r29
 300 00d4 CF91      		pop r28
 301 00d6 0895      		ret
 302               	.LVL23:
 303               	.L22:
 304               	.LDL1:
  92:at24c512.c    ****   return 0xFF;
 305               		.loc 1 92 3 is_stmt 1 view .LVU91
 306 00d8 0E94 0000 		call twi_stop
 307               	.LVL24:
  93:at24c512.c    **** }
 308               		.loc 1 93 3 view .LVU92
 309               	.L24:
  79:at24c512.c    ****   if (twi_send_byte((AT24C512_I2C_ADDR << 1) | 0) != 0x18)
 310               		.loc 1 79 12 is_stmt 0 view .LVU93
 311 00dc CFEF      		ldi r28,lo8(-1)
 312               	.LVL25:
  79:at24c512.c    ****   if (twi_send_byte((AT24C512_I2C_ADDR << 1) | 0) != 0x18)
 313               		.loc 1 79 12 view .LVU94
 314 00de 00C0      		rjmp .L20
 315               		.cfi_endproc
 316               	.LFE17:
 318               	.global	at24c512_read_block
 320               	at24c512_read_block:
 321               	.LVL26:
 322               	.LFB18:
  95:at24c512.c    **** 
  96:at24c512.c    **** void at24c512_read_block(void *buf, uint16_t addr, uint16_t len) {
 323               		.loc 1 96 66 is_stmt 1 view -0
 324               		.cfi_startproc
 325               		.loc 1 96 66 is_stmt 0 view .LVU96
 326 00e0 BF92      		push r11
 327               	.LCFI2:
 328               		.cfi_def_cfa_offset 3
 329               		.cfi_offset 11, -2
 330 00e2 CF92      		push r12
 331               	.LCFI3:
 332               		.cfi_def_cfa_offset 4
 333               		.cfi_offset 12, -3
 334 00e4 DF92      		push r13
 335               	.LCFI4:
 336               		.cfi_def_cfa_offset 5
 337               		.cfi_offset 13, -4
 338 00e6 EF92      		push r14
 339               	.LCFI5:
 340               		.cfi_def_cfa_offset 6
 341               		.cfi_offset 14, -5
 342 00e8 FF92      		push r15
 343               	.LCFI6:
 344               		.cfi_def_cfa_offset 7
 345               		.cfi_offset 15, -6
 346 00ea 0F93      		push r16
 347               	.LCFI7:
 348               		.cfi_def_cfa_offset 8
 349               		.cfi_offset 16, -7
 350 00ec 1F93      		push r17
 351               	.LCFI8:
 352               		.cfi_def_cfa_offset 9
 353               		.cfi_offset 17, -8
 354 00ee CF93      		push r28
 355               	.LCFI9:
 356               		.cfi_def_cfa_offset 10
 357               		.cfi_offset 28, -9
 358 00f0 DF93      		push r29
 359               	.LCFI10:
 360               		.cfi_def_cfa_offset 11
 361               		.cfi_offset 29, -10
 362               	/* prologue: function */
 363               	/* frame size = 0 */
 364               	/* stack size = 9 */
 365               	.L__stack_usage = 9
 366 00f2 8C01      		movw r16,r24
 367 00f4 F62E      		mov r15,r22
 368 00f6 E72E      		mov r14,r23
 369 00f8 EA01      		movw r28,r20
  97:at24c512.c    ****   uint8_t *p = (uint8_t *)buf;
 370               		.loc 1 97 3 is_stmt 1 view .LVU97
 371               	.LVL27:
  98:at24c512.c    ****   if (len == 0)
 372               		.loc 1 98 3 view .LVU98
 373               		.loc 1 98 6 is_stmt 0 view .LVU99
 374 00fa 2097      		sbiw r28,0
 375 00fc 01F4      		brne .+2
 376 00fe 00C0      		rjmp .L26
  99:at24c512.c    ****     return;
 100:at24c512.c    ****   if (twi_start() != 0x08)
 377               		.loc 1 100 3 is_stmt 1 view .LVU100
 378               		.loc 1 100 7 is_stmt 0 view .LVU101
 379 0100 0E94 0000 		call twi_start
 380               	.LVL28:
 381               		.loc 1 100 6 view .LVU102
 382 0104 8830      		cpi r24,lo8(8)
 383 0106 01F0      		breq .+2
 384 0108 00C0      		rjmp .L29
 101:at24c512.c    ****     goto fail;
 102:at24c512.c    ****   if (twi_send_byte((AT24C512_I2C_ADDR << 1) | 0) != 0x18)
 385               		.loc 1 102 3 is_stmt 1 view .LVU103
 386               		.loc 1 102 7 is_stmt 0 view .LVU104
 387 010a 80EA      		ldi r24,lo8(-96)
 388 010c 0E94 0000 		call twi_send_byte
 389               	.LVL29:
 390               		.loc 1 102 6 view .LVU105
 391 0110 8831      		cpi r24,lo8(24)
 392 0112 01F0      		breq .+2
 393 0114 00C0      		rjmp .L29
 103:at24c512.c    ****     goto fail;
 104:at24c512.c    ****   twi_send_byte((uint8_t)(addr >> 8));
 394               		.loc 1 104 3 is_stmt 1 view .LVU106
 395 0116 8E2D      		mov r24,r14
 396 0118 0E94 0000 		call twi_send_byte
 397               	.LVL30:
 105:at24c512.c    ****   twi_send_byte((uint8_t)(addr & 0xFF));
 398               		.loc 1 105 3 view .LVU107
 399 011c 8F2D      		mov r24,r15
 400 011e 0E94 0000 		call twi_send_byte
 401               	.LVL31:
 106:at24c512.c    ****   if (twi_start() != 0x10)
 402               		.loc 1 106 3 view .LVU108
 403               		.loc 1 106 7 is_stmt 0 view .LVU109
 404 0122 0E94 0000 		call twi_start
 405               	.LVL32:
 406               		.loc 1 106 6 view .LVU110
 407 0126 8031      		cpi r24,lo8(16)
 408 0128 01F4      		brne .L29
 107:at24c512.c    ****     goto fail;
 108:at24c512.c    ****   if (twi_send_byte((AT24C512_I2C_ADDR << 1) | 1) != 0x40)
 409               		.loc 1 108 3 is_stmt 1 view .LVU111
 410               		.loc 1 108 7 is_stmt 0 view .LVU112
 411 012a 81EA      		ldi r24,lo8(-95)
 412 012c 0E94 0000 		call twi_send_byte
 413               	.LVL33:
 414               		.loc 1 108 6 view .LVU113
 415 0130 8034      		cpi r24,lo8(64)
 416 0132 01F4      		brne .L29
 417 0134 6801      		movw r12,r16
 418 0136 7E01      		movw r14,r28
 419               	.LBB10:
 420               	.LBB11:
  54:at24c512.c    ****   if (!twi_wait_int())
 421               		.loc 1 54 10 view .LVU114
 422 0138 84EC      		ldi r24,lo8(-60)
 423 013a B82E      		mov r11,r24
 424               	.LVL34:
 425               	.L30:
  54:at24c512.c    ****   if (!twi_wait_int())
 426               		.loc 1 54 10 view .LVU115
 427               	.LBE11:
 428               	.LBE10:
 109:at24c512.c    ****     goto fail;
 110:at24c512.c    ****   while (len-- > 1) {
 429               		.loc 1 110 9 is_stmt 1 view .LVU116
 430               		.loc 1 110 13 is_stmt 0 view .LVU117
 431 013c F1E0      		ldi r31,1
 432 013e EF1A      		sub r14,r31
 433 0140 F108      		sbc r15,__zero_reg__
 434               	.LVL35:
 435               		.loc 1 110 9 view .LVU118
 436 0142 01F4      		brne .L32
 437 0144 2197      		sbiw r28,1
 438 0146 C00F      		add r28,r16
 439 0148 D11F      		adc r29,r17
 111:at24c512.c    ****     *p++ = twi_recv_byte_ack();
 112:at24c512.c    ****   }
 113:at24c512.c    ****   *p = twi_recv_byte_nack();
 440               		.loc 1 113 3 is_stmt 1 view .LVU119
 441               	.LBB14:
 442               	.LBI14:
  60:at24c512.c    ****   TWI_CR = (1 << TWINT) | (1 << TWEN);
 443               		.loc 1 60 16 view .LVU120
 444               	.LBB15:
  61:at24c512.c    ****   if (!twi_wait_int())
 445               		.loc 1 61 3 view .LVU121
  61:at24c512.c    ****   if (!twi_wait_int())
 446               		.loc 1 61 10 is_stmt 0 view .LVU122
 447 014a 84E8      		ldi r24,lo8(-124)
 448 014c 8093 BC00 		sts 188,r24
  62:at24c512.c    ****     return 0xFF;
 449               		.loc 1 62 3 is_stmt 1 view .LVU123
  62:at24c512.c    ****     return 0xFF;
 450               		.loc 1 62 8 is_stmt 0 view .LVU124
 451 0150 0E94 0000 		call twi_wait_int
 452               	.LVL36:
  62:at24c512.c    ****     return 0xFF;
 453               		.loc 1 62 6 view .LVU125
 454 0154 8823      		tst r24
 455 0156 01F0      		breq .L38
  64:at24c512.c    **** }
 456               		.loc 1 64 3 is_stmt 1 view .LVU126
  64:at24c512.c    **** }
 457               		.loc 1 64 10 is_stmt 0 view .LVU127
 458 0158 8091 BB00 		lds r24,187
 459               	.L33:
 460               	.LBE15:
 461               	.LBE14:
 462               		.loc 1 113 6 view .LVU128
 463 015c 8883      		st Y,r24
 114:at24c512.c    ****   twi_stop();
 464               		.loc 1 114 3 is_stmt 1 view .LVU129
 465               	/* epilogue start */
 115:at24c512.c    ****   return;
 116:at24c512.c    **** fail:
 117:at24c512.c    ****   twi_stop();
 118:at24c512.c    ****   while (len--)
 119:at24c512.c    ****     *p++ = 0xFF;
 120:at24c512.c    **** }
 466               		.loc 1 120 1 is_stmt 0 view .LVU130
 467 015e DF91      		pop r29
 468 0160 CF91      		pop r28
 469 0162 1F91      		pop r17
 470 0164 0F91      		pop r16
 471               	.LVL37:
 472               		.loc 1 120 1 view .LVU131
 473 0166 FF90      		pop r15
 474 0168 EF90      		pop r14
 475               	.LVL38:
 476               		.loc 1 120 1 view .LVU132
 477 016a DF90      		pop r13
 478 016c CF90      		pop r12
 479               	.LVL39:
 480               		.loc 1 120 1 view .LVU133
 481 016e BF90      		pop r11
 114:at24c512.c    ****   twi_stop();
 482               		.loc 1 114 3 view .LVU134
 483 0170 0C94 0000 		jmp twi_stop
 484               	.LVL40:
 485               	.L32:
 111:at24c512.c    ****   }
 486               		.loc 1 111 5 is_stmt 1 view .LVU135
 487               	.LBB17:
 488               	.LBI10:
  53:at24c512.c    ****   TWI_CR = (1 << TWINT) | (1 << TWEA) | (1 << TWEN);
 489               		.loc 1 53 16 view .LVU136
 490               	.LBB12:
  54:at24c512.c    ****   if (!twi_wait_int())
 491               		.loc 1 54 3 view .LVU137
  54:at24c512.c    ****   if (!twi_wait_int())
 492               		.loc 1 54 10 is_stmt 0 view .LVU138
 493 0174 B092 BC00 		sts 188,r11
  55:at24c512.c    ****     return 0xFF;
 494               		.loc 1 55 3 is_stmt 1 view .LVU139
  55:at24c512.c    ****     return 0xFF;
 495               		.loc 1 55 8 is_stmt 0 view .LVU140
 496 0178 0E94 0000 		call twi_wait_int
 497               	.LVL41:
  55:at24c512.c    ****     return 0xFF;
 498               		.loc 1 55 6 view .LVU141
 499 017c 8823      		tst r24
 500 017e 01F0      		breq .L37
  57:at24c512.c    **** }
 501               		.loc 1 57 3 is_stmt 1 view .LVU142
  57:at24c512.c    **** }
 502               		.loc 1 57 10 is_stmt 0 view .LVU143
 503 0180 8091 BB00 		lds r24,187
 504               	.L31:
 505               	.LBE12:
 506               	.LBE17:
 111:at24c512.c    ****   }
 507               		.loc 1 111 10 view .LVU144
 508 0184 F601      		movw r30,r12
 509 0186 8193      		st Z+,r24
 510 0188 6F01      		movw r12,r30
 511               	.LVL42:
 111:at24c512.c    ****   }
 512               		.loc 1 111 10 view .LVU145
 513 018a 00C0      		rjmp .L30
 514               	.LVL43:
 515               	.L37:
 516               	.LBB18:
 517               	.LBB13:
  56:at24c512.c    ****   return TWI_DR;
 518               		.loc 1 56 12 view .LVU146
 519 018c 8FEF      		ldi r24,lo8(-1)
 520 018e 00C0      		rjmp .L31
 521               	.LVL44:
 522               	.L38:
  56:at24c512.c    ****   return TWI_DR;
 523               		.loc 1 56 12 view .LVU147
 524               	.LBE13:
 525               	.LBE18:
 526               	.LBB19:
 527               	.LBB16:
  63:at24c512.c    ****   return TWI_DR;
 528               		.loc 1 63 12 view .LVU148
 529 0190 8FEF      		ldi r24,lo8(-1)
 530 0192 00C0      		rjmp .L33
 531               	.LVL45:
 532               	.L29:
 533               	.LDL2:
  63:at24c512.c    ****   return TWI_DR;
 534               		.loc 1 63 12 view .LVU149
 535               	.LBE16:
 536               	.LBE19:
 117:at24c512.c    ****   while (len--)
 537               		.loc 1 117 3 is_stmt 1 view .LVU150
 538 0194 0E94 0000 		call twi_stop
 539               	.LVL46:
 118:at24c512.c    ****     *p++ = 0xFF;
 540               		.loc 1 118 3 view .LVU151
 541 0198 C00F      		add r28,r16
 542 019a D11F      		adc r29,r17
 543               	.LVL47:
 119:at24c512.c    **** }
 544               		.loc 1 119 10 is_stmt 0 view .LVU152
 545 019c 8FEF      		ldi r24,lo8(-1)
 546               	.LVL48:
 547               	.L34:
 118:at24c512.c    ****     *p++ = 0xFF;
 548               		.loc 1 118 9 is_stmt 1 view .LVU153
 118:at24c512.c    ****     *p++ = 0xFF;
 549               		.loc 1 118 9 is_stmt 0 view .LVU154
 550 019e 0C17      		cp r16,r28
 551 01a0 1D07      		cpc r17,r29
 552 01a2 01F4      		brne .L35
 553               	.LVL49:
 554               	.L26:
 555               	/* epilogue start */
 556               		.loc 1 120 1 view .LVU155
 557 01a4 DF91      		pop r29
 558 01a6 CF91      		pop r28
 559 01a8 1F91      		pop r17
 560 01aa 0F91      		pop r16
 561               	.LVL50:
 562               		.loc 1 120 1 view .LVU156
 563 01ac FF90      		pop r15
 564 01ae EF90      		pop r14
 565 01b0 DF90      		pop r13
 566 01b2 CF90      		pop r12
 567 01b4 BF90      		pop r11
 568 01b6 0895      		ret
 569               	.LVL51:
 570               	.L35:
 119:at24c512.c    **** }
 571               		.loc 1 119 5 is_stmt 1 view .LVU157
 119:at24c512.c    **** }
 572               		.loc 1 119 7 is_stmt 0 view .LVU158
 573 01b8 F801      		movw r30,r16
 119:at24c512.c    **** }
 574               		.loc 1 119 10 view .LVU159
 575 01ba 8193      		st Z+,r24
 119:at24c512.c    **** }
 576               		.loc 1 119 7 view .LVU160
 577 01bc 8F01      		movw r16,r30
 578               	.LVL52:
 119:at24c512.c    **** }
 579               		.loc 1 119 7 view .LVU161
 580 01be 00C0      		rjmp .L34
 581               		.cfi_endproc
 582               	.LFE18:
 584               	.global	at24c512_write_byte
 586               	at24c512_write_byte:
 587               	.LVL53:
 588               	.LFB19:
 121:at24c512.c    **** 
 122:at24c512.c    **** void at24c512_write_byte(uint16_t addr, uint8_t data) {
 589               		.loc 1 122 55 is_stmt 1 view -0
 590               		.cfi_startproc
 591               		.loc 1 122 55 is_stmt 0 view .LVU163
 592 01c0 1F93      		push r17
 593               	.LCFI11:
 594               		.cfi_def_cfa_offset 3
 595               		.cfi_offset 17, -2
 596 01c2 CF93      		push r28
 597               	.LCFI12:
 598               		.cfi_def_cfa_offset 4
 599               		.cfi_offset 28, -3
 600 01c4 DF93      		push r29
 601               	.LCFI13:
 602               		.cfi_def_cfa_offset 5
 603               		.cfi_offset 29, -4
 604               	/* prologue: function */
 605               	/* frame size = 0 */
 606               	/* stack size = 3 */
 607               	.L__stack_usage = 3
 608 01c6 D82F      		mov r29,r24
 609 01c8 192F      		mov r17,r25
 610 01ca C62F      		mov r28,r22
 123:at24c512.c    ****   if (twi_start() != 0x08)
 611               		.loc 1 123 3 is_stmt 1 view .LVU164
 612               		.loc 1 123 7 is_stmt 0 view .LVU165
 613 01cc 0E94 0000 		call twi_start
 614               	.LVL54:
 615               		.loc 1 123 6 view .LVU166
 616 01d0 8830      		cpi r24,lo8(8)
 617 01d2 01F4      		brne .L40
 124:at24c512.c    ****     goto fail;
 125:at24c512.c    ****   if (twi_send_byte((AT24C512_I2C_ADDR << 1) | 0) != 0x18)
 618               		.loc 1 125 3 is_stmt 1 view .LVU167
 619               		.loc 1 125 7 is_stmt 0 view .LVU168
 620 01d4 80EA      		ldi r24,lo8(-96)
 621 01d6 0E94 0000 		call twi_send_byte
 622               	.LVL55:
 623               		.loc 1 125 6 view .LVU169
 624 01da 8831      		cpi r24,lo8(24)
 625 01dc 01F4      		brne .L40
 626               	.LVL56:
 627               	.LBB22:
 628               	.LBI22:
 122:at24c512.c    ****   if (twi_start() != 0x08)
 629               		.loc 1 122 6 is_stmt 1 view .LVU170
 630               	.LBB23:
 126:at24c512.c    ****     goto fail;
 127:at24c512.c    ****   twi_send_byte((uint8_t)(addr >> 8));
 631               		.loc 1 127 3 view .LVU171
 632 01de 812F      		mov r24,r17
 633 01e0 0E94 0000 		call twi_send_byte
 634               	.LVL57:
 128:at24c512.c    ****   twi_send_byte((uint8_t)(addr & 0xFF));
 635               		.loc 1 128 3 view .LVU172
 636 01e4 8D2F      		mov r24,r29
 637 01e6 0E94 0000 		call twi_send_byte
 638               	.LVL58:
 129:at24c512.c    ****   twi_send_byte(data);
 639               		.loc 1 129 3 view .LVU173
 640 01ea 8C2F      		mov r24,r28
 641 01ec 0E94 0000 		call twi_send_byte
 642               	.LVL59:
 130:at24c512.c    ****   twi_stop();
 643               		.loc 1 130 3 view .LVU174
 644               	.L40:
 645               	.LDL3:
 646               		.loc 1 130 3 is_stmt 0 view .LVU175
 647               	.LBE23:
 648               	.LBE22:
 131:at24c512.c    ****   return;
 132:at24c512.c    **** fail:
 133:at24c512.c    ****   twi_stop();
 649               		.loc 1 133 3 is_stmt 1 view .LVU176
 650               	/* epilogue start */
 134:at24c512.c    **** }
 651               		.loc 1 134 1 is_stmt 0 view .LVU177
 652 01f0 DF91      		pop r29
 653 01f2 CF91      		pop r28
 654               	.LVL60:
 655               		.loc 1 134 1 view .LVU178
 656 01f4 1F91      		pop r17
 133:at24c512.c    **** }
 657               		.loc 1 133 3 view .LVU179
 658 01f6 0C94 0000 		jmp twi_stop
 659               	.LVL61:
 660               		.cfi_endproc
 661               	.LFE19:
 663               	.global	at24c512_is_ready
 665               	at24c512_is_ready:
 666               	.LFB21:
 135:at24c512.c    **** 
 136:at24c512.c    **** void at24c512_write_block(const void *buf, uint16_t addr, uint16_t len) {
 137:at24c512.c    ****   const uint8_t *p = (const uint8_t *)buf;
 138:at24c512.c    ****   while (len-- > 0) {
 139:at24c512.c    ****     at24c512_write_byte(addr++, *p++);
 140:at24c512.c    ****     uint16_t timeout = EEPROM_READY_TIMEOUT_LOOPS;
 141:at24c512.c    ****     while (!at24c512_is_ready() && --timeout)
 142:at24c512.c    ****       ;
 143:at24c512.c    ****     if (timeout == 0)
 144:at24c512.c    ****       break;
 145:at24c512.c    ****   }
 146:at24c512.c    **** }
 147:at24c512.c    **** 
 148:at24c512.c    **** uint8_t at24c512_is_ready(void) {
 667               		.loc 1 148 33 is_stmt 1 view -0
 668               		.cfi_startproc
 669               	/* prologue: function */
 670               	/* frame size = 0 */
 671               	/* stack size = 0 */
 672               	.L__stack_usage = 0
 149:at24c512.c    ****   if (twi_start() != 0x08)
 673               		.loc 1 149 3 view .LVU181
 674               		.loc 1 149 7 is_stmt 0 view .LVU182
 675 01fa 0E94 0000 		call twi_start
 676               	.LVL62:
 677               		.loc 1 149 6 view .LVU183
 678 01fe 8830      		cpi r24,lo8(8)
 679 0200 01F4      		brne .L44
 680               	.LBB26:
 681               	.LBI26:
 148:at24c512.c    ****   if (twi_start() != 0x08)
 682               		.loc 1 148 9 is_stmt 1 view .LVU184
 683               	.LBB27:
 150:at24c512.c    ****     return 0;
 151:at24c512.c    ****   if (twi_send_byte((AT24C512_I2C_ADDR << 1) | 0) == 0x18) {
 684               		.loc 1 151 3 view .LVU185
 685               		.loc 1 151 7 is_stmt 0 view .LVU186
 686 0202 80EA      		ldi r24,lo8(-96)
 687 0204 0E94 0000 		call twi_send_byte
 688               	.LVL63:
 689               		.loc 1 151 6 view .LVU187
 690 0208 8831      		cpi r24,lo8(24)
 691 020a 01F4      		brne .L43
 152:at24c512.c    ****     twi_stop();
 692               		.loc 1 152 5 is_stmt 1 view .LVU188
 693 020c 0E94 0000 		call twi_stop
 694               	.LVL64:
 153:at24c512.c    ****     return 1;
 695               		.loc 1 153 5 view .LVU189
 696               		.loc 1 153 12 is_stmt 0 view .LVU190
 697 0210 81E0      		ldi r24,lo8(1)
 698 0212 0895      		ret
 699               	.L43:
 154:at24c512.c    ****   }
 155:at24c512.c    ****   twi_stop();
 700               		.loc 1 155 3 is_stmt 1 view .LVU191
 701 0214 0E94 0000 		call twi_stop
 702               	.LVL65:
 156:at24c512.c    ****   return 0;
 703               		.loc 1 156 3 view .LVU192
 704               	.L44:
 705               	.LBE27:
 706               	.LBE26:
 150:at24c512.c    ****   if (twi_send_byte((AT24C512_I2C_ADDR << 1) | 0) == 0x18) {
 707               		.loc 1 150 12 is_stmt 0 view .LVU193
 708 0218 80E0      		ldi r24,0
 709               	/* epilogue start */
 157:at24c512.c    **** }
 710               		.loc 1 157 1 view .LVU194
 711 021a 0895      		ret
 712               		.cfi_endproc
 713               	.LFE21:
 715               	.global	at24c512_write_block
 717               	at24c512_write_block:
 718               	.LVL66:
 719               	.LFB20:
 136:at24c512.c    ****   const uint8_t *p = (const uint8_t *)buf;
 720               		.loc 1 136 73 is_stmt 1 view -0
 721               		.cfi_startproc
 136:at24c512.c    ****   const uint8_t *p = (const uint8_t *)buf;
 722               		.loc 1 136 73 is_stmt 0 view .LVU196
 723 021c CF92      		push r12
 724               	.LCFI14:
 725               		.cfi_def_cfa_offset 3
 726               		.cfi_offset 12, -2
 727 021e DF92      		push r13
 728               	.LCFI15:
 729               		.cfi_def_cfa_offset 4
 730               		.cfi_offset 13, -3
 731 0220 EF92      		push r14
 732               	.LCFI16:
 733               		.cfi_def_cfa_offset 5
 734               		.cfi_offset 14, -4
 735 0222 FF92      		push r15
 736               	.LCFI17:
 737               		.cfi_def_cfa_offset 6
 738               		.cfi_offset 15, -5
 739 0224 0F93      		push r16
 740               	.LCFI18:
 741               		.cfi_def_cfa_offset 7
 742               		.cfi_offset 16, -6
 743 0226 1F93      		push r17
 744               	.LCFI19:
 745               		.cfi_def_cfa_offset 8
 746               		.cfi_offset 17, -7
 747 0228 CF93      		push r28
 748               	.LCFI20:
 749               		.cfi_def_cfa_offset 9
 750               		.cfi_offset 28, -8
 751 022a DF93      		push r29
 752               	.LCFI21:
 753               		.cfi_def_cfa_offset 10
 754               		.cfi_offset 29, -9
 755               	/* prologue: function */
 756               	/* frame size = 0 */
 757               	/* stack size = 8 */
 758               	.L__stack_usage = 8
 759 022c 9B01      		movw r18,r22
 137:at24c512.c    ****   while (len-- > 0) {
 760               		.loc 1 137 3 is_stmt 1 view .LVU197
 761               	.LVL67:
 138:at24c512.c    ****     at24c512_write_byte(addr++, *p++);
 762               		.loc 1 138 3 view .LVU198
 763 022e 8C01      		movw r16,r24
 764 0230 040F      		add r16,r20
 765 0232 151F      		adc r17,r21
 766               	.LVL68:
 767               	.L46:
 138:at24c512.c    ****     at24c512_write_byte(addr++, *p++);
 768               		.loc 1 138 9 view .LVU199
 138:at24c512.c    ****     at24c512_write_byte(addr++, *p++);
 769               		.loc 1 138 9 is_stmt 0 view .LVU200
 770 0234 8017      		cp r24,r16
 771 0236 9107      		cpc r25,r17
 772 0238 01F0      		breq .L45
 773               	.LBB28:
 139:at24c512.c    ****     uint16_t timeout = EEPROM_READY_TIMEOUT_LOOPS;
 774               		.loc 1 139 5 is_stmt 1 view .LVU201
 139:at24c512.c    ****     uint16_t timeout = EEPROM_READY_TIMEOUT_LOOPS;
 775               		.loc 1 139 35 is_stmt 0 view .LVU202
 776 023a EC01      		movw r28,r24
 139:at24c512.c    ****     uint16_t timeout = EEPROM_READY_TIMEOUT_LOOPS;
 777               		.loc 1 139 5 view .LVU203
 778 023c 7901      		movw r14,r18
 779 023e 8FEF      		ldi r24,-1
 780 0240 E81A      		sub r14,r24
 781 0242 F80A      		sbc r15,r24
 782               	.LVL69:
 139:at24c512.c    ****     uint16_t timeout = EEPROM_READY_TIMEOUT_LOOPS;
 783               		.loc 1 139 5 view .LVU204
 784 0244 6991      		ld r22,Y+
 785               	.LVL70:
 139:at24c512.c    ****     uint16_t timeout = EEPROM_READY_TIMEOUT_LOOPS;
 786               		.loc 1 139 5 view .LVU205
 787 0246 C901      		movw r24,r18
 788 0248 0E94 0000 		call at24c512_write_byte
 789               	.LVL71:
 140:at24c512.c    ****     while (!at24c512_is_ready() && --timeout)
 790               		.loc 1 140 5 is_stmt 1 view .LVU206
 141:at24c512.c    ****       ;
 791               		.loc 1 141 5 view .LVU207
 141:at24c512.c    ****       ;
 792               		.loc 1 141 11 is_stmt 0 view .LVU208
 793 024c 80E2      		ldi r24,lo8(32)
 794 024e C82E      		mov r12,r24
 795 0250 8EE4      		ldi r24,lo8(78)
 796 0252 D82E      		mov r13,r24
 797               	.LVL72:
 798               	.L47:
 142:at24c512.c    ****     if (timeout == 0)
 799               		.loc 1 142 7 is_stmt 1 discriminator 2 view .LVU209
 141:at24c512.c    ****       ;
 800               		.loc 1 141 11 discriminator 2 view .LVU210
 141:at24c512.c    ****       ;
 801               		.loc 1 141 13 is_stmt 0 discriminator 2 view .LVU211
 802 0254 0E94 0000 		call at24c512_is_ready
 803               	.LVL73:
 141:at24c512.c    ****       ;
 804               		.loc 1 141 11 discriminator 2 view .LVU212
 805 0258 8111      		cpse r24,__zero_reg__
 806 025a 00C0      		rjmp .L50
 807               	.LVL74:
 141:at24c512.c    ****       ;
 808               		.loc 1 141 11 discriminator 2 view .LVU213
 809 025c 81E0      		ldi r24,1
 810 025e C81A      		sub r12,r24
 811 0260 D108      		sbc r13,__zero_reg__
 812               	.LVL75:
 141:at24c512.c    ****       ;
 813               		.loc 1 141 33 discriminator 1 view .LVU214
 814 0262 01F4      		brne .L47
 815               	.LVL76:
 816               	.L45:
 817               	/* epilogue start */
 141:at24c512.c    ****       ;
 818               		.loc 1 141 33 discriminator 1 view .LVU215
 819               	.LBE28:
 146:at24c512.c    **** 
 820               		.loc 1 146 1 view .LVU216
 821 0264 DF91      		pop r29
 822 0266 CF91      		pop r28
 823 0268 1F91      		pop r17
 824 026a 0F91      		pop r16
 825 026c FF90      		pop r15
 826 026e EF90      		pop r14
 827 0270 DF90      		pop r13
 828 0272 CF90      		pop r12
 829 0274 0895      		ret
 830               	.LVL77:
 831               	.L50:
 832               	.LBB29:
 139:at24c512.c    ****     uint16_t timeout = EEPROM_READY_TIMEOUT_LOOPS;
 833               		.loc 1 139 35 view .LVU217
 834 0276 CE01      		movw r24,r28
 139:at24c512.c    ****     uint16_t timeout = EEPROM_READY_TIMEOUT_LOOPS;
 835               		.loc 1 139 5 view .LVU218
 836 0278 9701      		movw r18,r14
 837 027a 00C0      		rjmp .L46
 838               	.LBE29:
 839               		.cfi_endproc
 840               	.LFE20:
 842               	.Letext0:
 843               		.file 2 "/opt/homebrew/Cellar/avr-gcc@8/8.5.0_3/avr/include/stdint.h"