   1               		.file	"interpretacjaSMS.c"
   2               	__SP_H__ = 0x3e
   3               	__SP_L__ = 0x3d
   4               	__SREG__ = 0x3f
   5               	__tmp_reg__ = 0
   6               	__zero_reg__ = 1
   7               		.text
   8               	.Ltext0:
   9               		.cfi_sections	.debug_frame
  10               	.global	sprawdz_kod
  12               	sprawdz_kod:
  13               	.LVL0:
  14               	.LFB9:
  15               		.file 1 "interpretacjaSMS.c"
   1:interpretacjaSMS.c **** #ifndef INCLUDE
   2:interpretacjaSMS.c **** 
   3:interpretacjaSMS.c **** #include "interpretacjaSMS.h"
   4:interpretacjaSMS.c **** #include "ctype.h"
   5:interpretacjaSMS.c **** #include "komendy.h"
   6:interpretacjaSMS.c **** #include "pin_ATmega328.h"
   7:interpretacjaSMS.c **** #include <avr/io.h>
   8:interpretacjaSMS.c **** #include <avr/pgmspace.h>
   9:interpretacjaSMS.c **** #include <stdio.h>
  10:interpretacjaSMS.c **** #include <stdlib.h>
  11:interpretacjaSMS.c **** #include <string.h>
  12:interpretacjaSMS.c **** 
  13:interpretacjaSMS.c **** #include "adresyeeprom.h" // Ensure this is included for address definitions
  14:interpretacjaSMS.c **** #include "konfiguracja_eeprom.h"
  15:interpretacjaSMS.c **** #include "wewy.h"
  16:interpretacjaSMS.c **** #include "zapiseeprom.h"
  17:interpretacjaSMS.c **** #include <avr/wdt.h>
  18:interpretacjaSMS.c **** 
  19:interpretacjaSMS.c **** // extern uchar skryba_wlaczona; // REMOVED
  20:interpretacjaSMS.c **** // extern uint skryba_limit;     // REMOVED
  21:interpretacjaSMS.c **** extern uchar tryb_clip;   // Declared in main.c
  22:interpretacjaSMS.c **** extern uchar sms_trigger; // Declared in main.c
  23:interpretacjaSMS.c **** extern void wymus_wylaczenie_wyjscia(void);
  24:interpretacjaSMS.c **** extern uchar numer_telefonu_odebranego_smsa[];
  25:interpretacjaSMS.c **** 
  26:interpretacjaSMS.c **** uchar nr_usunietego_uzytkownika_z_smsa;
  27:interpretacjaSMS.c **** 
  28:interpretacjaSMS.c **** #endif
  29:interpretacjaSMS.c **** 
  30:interpretacjaSMS.c **** #define przeskocz_biale_znaki(BUF)                                             \
  31:interpretacjaSMS.c ****   while (isspace(*BUF))                                                        \
  32:interpretacjaSMS.c ****   ++BUF
  33:interpretacjaSMS.c **** 
  34:interpretacjaSMS.c **** uchar sprawdz_kod(const uchar **buf_sms) {
  16               		.loc 1 34 42 view -0
  17               		.cfi_startproc
  18               		.loc 1 34 42 is_stmt 0 view .LVU1
  19 0000 EF92      		push r14
  20               	.LCFI0:
  21               		.cfi_def_cfa_offset 3
  22               		.cfi_offset 14, -2
  23 0002 FF92      		push r15
  24               	.LCFI1:
  25               		.cfi_def_cfa_offset 4
  26               		.cfi_offset 15, -3
  27 0004 0F93      		push r16
  28               	.LCFI2:
  29               		.cfi_def_cfa_offset 5
  30               		.cfi_offset 16, -4
  31 0006 1F93      		push r17
  32               	.LCFI3:
  33               		.cfi_def_cfa_offset 6
  34               		.cfi_offset 17, -5
  35 0008 CF93      		push r28
  36               	.LCFI4:
  37               		.cfi_def_cfa_offset 7
  38               		.cfi_offset 28, -6
  39 000a DF93      		push r29
  40               	.LCFI5:
  41               		.cfi_def_cfa_offset 8
  42               		.cfi_offset 29, -7
  43               	/* prologue: function */
  44               	/* frame size = 0 */
  45               	/* stack size = 6 */
  46               	.L__stack_usage = 6
  47 000c 7C01      		movw r14,r24
  35:interpretacjaSMS.c ****   przeskocz_biale_znaki(*buf_sms);
  48               		.loc 1 35 3 is_stmt 1 view .LVU2
  49               	.LVL1:
  50               	.L2:
  51               		.loc 1 35 3 discriminator 1 view .LVU3
  52 000e F701      		movw r30,r14
  53 0010 C081      		ld r28,Z
  54 0012 D181      		ldd r29,Z+1
  55 0014 0881      		ld r16,Y
  56 0016 10E0      		ldi r17,0
  57 0018 C801      		movw r24,r16
  58 001a 0E94 0000 		call isspace
  59               	.LVL2:
  60 001e 892B      		or r24,r25
  61 0020 01F0      		breq .+2
  62 0022 00C0      		rjmp .L3
  36:interpretacjaSMS.c ****   if (toupper((*buf_sms)[0]) == toupper(kod_modulu[0]) &&
  63               		.loc 1 36 3 view .LVU4
  64               		.loc 1 36 7 is_stmt 0 view .LVU5
  65 0024 C801      		movw r24,r16
  66 0026 0E94 0000 		call toupper
  67               	.LVL3:
  68 002a 8C01      		movw r16,r24
  69               		.loc 1 36 33 view .LVU6
  70 002c 8091 0000 		lds r24,kod_modulu
  71 0030 90E0      		ldi r25,0
  72 0032 0E94 0000 		call toupper
  73               	.LVL4:
  74               		.loc 1 36 6 view .LVU7
  75 0036 0817      		cp r16,r24
  76 0038 1907      		cpc r17,r25
  77 003a 01F4      		brne .L8
  37:interpretacjaSMS.c ****       toupper((*buf_sms)[1]) == toupper(kod_modulu[1]) &&
  78               		.loc 1 37 7 discriminator 1 view .LVU8
  79 003c 8981      		ldd r24,Y+1
  80 003e 90E0      		ldi r25,0
  81 0040 0E94 0000 		call toupper
  82               	.LVL5:
  83 0044 8C01      		movw r16,r24
  84               		.loc 1 37 33 discriminator 1 view .LVU9
  85 0046 8091 0000 		lds r24,kod_modulu+1
  86 004a 90E0      		ldi r25,0
  87 004c 0E94 0000 		call toupper
  88               	.LVL6:
  36:interpretacjaSMS.c ****   if (toupper((*buf_sms)[0]) == toupper(kod_modulu[0]) &&
  89               		.loc 1 36 56 discriminator 1 view .LVU10
  90 0050 0817      		cp r16,r24
  91 0052 1907      		cpc r17,r25
  92 0054 01F4      		brne .L8
  38:interpretacjaSMS.c ****       toupper((*buf_sms)[2]) == toupper(kod_modulu[2]) &&
  93               		.loc 1 38 7 view .LVU11
  94 0056 8A81      		ldd r24,Y+2
  95 0058 90E0      		ldi r25,0
  96 005a 0E94 0000 		call toupper
  97               	.LVL7:
  98 005e 8C01      		movw r16,r24
  99               		.loc 1 38 33 view .LVU12
 100 0060 8091 0000 		lds r24,kod_modulu+2
 101 0064 90E0      		ldi r25,0
 102 0066 0E94 0000 		call toupper
 103               	.LVL8:
  37:interpretacjaSMS.c ****       toupper((*buf_sms)[1]) == toupper(kod_modulu[1]) &&
 104               		.loc 1 37 56 view .LVU13
 105 006a 0817      		cp r16,r24
 106 006c 1907      		cpc r17,r25
 107 006e 01F4      		brne .L8
  39:interpretacjaSMS.c ****       toupper((*buf_sms)[3]) == toupper(kod_modulu[3])) {
 108               		.loc 1 39 7 view .LVU14
 109 0070 8B81      		ldd r24,Y+3
 110 0072 90E0      		ldi r25,0
 111 0074 0E94 0000 		call toupper
 112               	.LVL9:
 113 0078 8C01      		movw r16,r24
 114               		.loc 1 39 33 view .LVU15
 115 007a 8091 0000 		lds r24,kod_modulu+3
 116 007e 90E0      		ldi r25,0
 117 0080 0E94 0000 		call toupper
 118               	.LVL10:
  38:interpretacjaSMS.c ****       toupper((*buf_sms)[2]) == toupper(kod_modulu[2]) &&
 119               		.loc 1 38 56 view .LVU16
 120 0084 0817      		cp r16,r24
 121 0086 1907      		cpc r17,r25
 122 0088 01F4      		brne .L8
  40:interpretacjaSMS.c ****     *buf_sms += LICZBA_BAJTOW_KODU_DOSTEPU;
 123               		.loc 1 40 5 is_stmt 1 view .LVU17
 124               		.loc 1 40 14 is_stmt 0 view .LVU18
 125 008a 2496      		adiw r28,4
 126 008c F701      		movw r30,r14
 127 008e D183      		std Z+1,r29
 128 0090 C083      		st Z,r28
  41:interpretacjaSMS.c ****     return TRUE;
 129               		.loc 1 41 5 is_stmt 1 view .LVU19
 130               		.loc 1 41 12 is_stmt 0 view .LVU20
 131 0092 8FEF      		ldi r24,lo8(-1)
 132               	.L1:
 133               	/* epilogue start */
  42:interpretacjaSMS.c ****   } else
  43:interpretacjaSMS.c ****     return FALSE;
  44:interpretacjaSMS.c **** }
 134               		.loc 1 44 1 view .LVU21
 135 0094 DF91      		pop r29
 136 0096 CF91      		pop r28
 137 0098 1F91      		pop r17
 138 009a 0F91      		pop r16
 139 009c FF90      		pop r15
 140 009e EF90      		pop r14
 141               	.LVL11:
 142               		.loc 1 44 1 view .LVU22
 143 00a0 0895      		ret
 144               	.LVL12:
 145               	.L3:
  35:interpretacjaSMS.c ****   if (toupper((*buf_sms)[0]) == toupper(kod_modulu[0]) &&
 146               		.loc 1 35 3 is_stmt 1 discriminator 2 view .LVU23
 147 00a2 2196      		adiw r28,1
 148 00a4 F701      		movw r30,r14
 149 00a6 D183      		std Z+1,r29
 150 00a8 C083      		st Z,r28
 151 00aa 00C0      		rjmp .L2
 152               	.L8:
  43:interpretacjaSMS.c **** }
 153               		.loc 1 43 12 is_stmt 0 view .LVU24
 154 00ac 80E0      		ldi r24,0
 155 00ae 00C0      		rjmp .L1
 156               		.cfi_endproc
 157               	.LFE9:
 159               	.global	sprawdz_reset_ustawien
 161               	sprawdz_reset_ustawien:
 162               	.LVL13:
 163               	.LFB10:
  45:interpretacjaSMS.c **** 
  46:interpretacjaSMS.c **** uchar sprawdz_reset_ustawien(const uchar *buf) {
 164               		.loc 1 46 48 is_stmt 1 view -0
 165               		.cfi_startproc
 166               	/* prologue: function */
 167               	/* frame size = 0 */
 168               	/* stack size = 0 */
 169               	.L__stack_usage = 0
  47:interpretacjaSMS.c ****   static const char res_ust[] PROGMEM =
 170               		.loc 1 47 3 view .LVU26
  48:interpretacjaSMS.c ****       INSTRUKCJA_SMS_RESET_WSZYSTKICH_USTAWIEN;
  49:interpretacjaSMS.c ****   return memcmp_R(buf, res_ust) == 0;
 171               		.loc 1 49 3 view .LVU27
 172               		.loc 1 49 10 is_stmt 0 view .LVU28
 173 00b0 44E0      		ldi r20,lo8(4)
 174 00b2 50E0      		ldi r21,0
 175 00b4 60E0      		ldi r22,lo8(res_ust.2606)
 176 00b6 70E0      		ldi r23,hi8(res_ust.2606)
 177 00b8 0E94 0000 		call memcmp_P
 178               	.LVL14:
 179               		.loc 1 49 33 view .LVU29
 180 00bc 21E0      		ldi r18,lo8(1)
 181 00be 892B      		or r24,r25
 182 00c0 01F0      		breq .L10
 183 00c2 20E0      		ldi r18,0
 184               	.L10:
  50:interpretacjaSMS.c **** }
 185               		.loc 1 50 1 view .LVU30
 186 00c4 822F      		mov r24,r18
 187               	/* epilogue start */
 188 00c6 0895      		ret
 189               		.cfi_endproc
 190               	.LFE10:
 192               	.global	interpretuj_instrukcje_sms
 194               	interpretuj_instrukcje_sms:
 195               	.LVL15:
 196               	.LFB11:
  51:interpretacjaSMS.c **** 
  52:interpretacjaSMS.c **** #define LICZBA_INSTRUKCJI_SMS 26 // Increased for STAN
  53:interpretacjaSMS.c **** 
  54:interpretacjaSMS.c **** #define MAX_LICZBA_ZNAKOW_INSTRUKCJI_SMS                                       \
  55:interpretacjaSMS.c ****   10 // Increased for "SMS CLIP" (8 chars + len)
  56:interpretacjaSMS.c **** // uwaga: wana jest kolejno oraz usytuowanie pomidzy nimi
  57:interpretacjaSMS.c **** static const uchar instrukcja_sms
  58:interpretacjaSMS.c ****     [LICZBA_INSTRUKCJI_SMS][MAX_LICZBA_ZNAKOW_INSTRUKCJI_SMS] PROGMEM = {
  59:interpretacjaSMS.c ****         // przed kad instrukcj musi by kod, litery
  60:interpretacjaSMS.c ****         // mog by due lub mae
  61:interpretacjaSMS.c ****         "\x04"
  62:interpretacjaSMS.c ****         "CODE", // CODE EFGH (zmiana kodu dostpu)
  63:interpretacjaSMS.c ****         "\x03"
  64:interpretacjaSMS.c ****         "ADD", //
  65:interpretacjaSMS.c ****         "\x03"
  66:interpretacjaSMS.c ****         "DEL", //
  67:interpretacjaSMS.c ****         "\x04"
  68:interpretacjaSMS.c ****         "XXXX", // RESET
  69:interpretacjaSMS.c ****         "\x06"
  70:interpretacjaSMS.c ****         "REPORT", // REPORT
  71:interpretacjaSMS.c ****         "\x04"
  72:interpretacjaSMS.c ****         "USER", // USER
  73:interpretacjaSMS.c ****         "\x04"
  74:interpretacjaSMS.c ****         "OPEN", // OPEN
  75:interpretacjaSMS.c ****         "\x05"
  76:interpretacjaSMS.c ****         "CLOSE", // CLOSE
  77:interpretacjaSMS.c ****         "\x04"
  78:interpretacjaSMS.c ****         "CLIP", // CLIP (sub-command)
  79:interpretacjaSMS.c ****         "\x04"
  80:interpretacjaSMS.c ****         "DTMF", // DTMF (sub-command)
  81:interpretacjaSMS.c ****         "\x03"
  82:interpretacjaSMS.c ****         "SET", // SET HH:MM:SS
  83:interpretacjaSMS.c ****         "\x04"
  84:interpretacjaSMS.c ****         "TIME", // TIME HH:MM HH:MM lub TIME OFF
  85:interpretacjaSMS.c ****         "\x06"
  86:interpretacjaSMS.c ****         "SKRYBA", // SKRYBA ON/OFF
  87:interpretacjaSMS.c ****         "\x05"
  88:interpretacjaSMS.c ****         "DEBUG", // DEBUG (diagnostyka SKRYBA)
  89:interpretacjaSMS.c ****         "\x03"
  90:interpretacjaSMS.c ****         "SUB", // SUB numer (dodaj do listy użytkowników)
  91:interpretacjaSMS.c ****         "\x05"
  92:interpretacjaSMS.c ****         "MYNUM", // MYNUM 123456789 (ustaw własny numer)
  93:interpretacjaSMS.c ****         "\x04"
  94:interpretacjaSMS.c ****         "USSD", // USSD *100# (zapytanie USSD)
  95:interpretacjaSMS.c ****         "\x03"
  96:interpretacjaSMS.c ****         "CON", // CON [numer] / CON OFF (powiadomienia)
  97:interpretacjaSMS.c ****         "\x02"
  98:interpretacjaSMS.c ****         "ON", // ON <czas> (1-99998=impuls, 99999=toggle)
  99:interpretacjaSMS.c ****         "\x05"
 100:interpretacjaSMS.c ****         "TOGLE", // TOGLE - wlacz tryb toggle (bi-stabilny)
 101:interpretacjaSMS.c ****         "\x03"
 102:interpretacjaSMS.c ****         "RST", // RST - reset urzadzenia
 103:interpretacjaSMS.c ****         "\x08"
 104:interpretacjaSMS.c ****         "SMS CLIP", // SMS CLIP (Explicit both) - MUST BE BEFORE "SMS"
 105:interpretacjaSMS.c ****         "\x03"
 106:interpretacjaSMS.c ****         "SMS", // SMS (sub-command for OPEN/CLOSE)
 107:interpretacjaSMS.c ****         "\x04"
 108:interpretacjaSMS.c ****         "STAN", // STAN - Service Status
 109:interpretacjaSMS.c ****         "\x04"
 110:interpretacjaSMS.c ****         "TECH", // TECH - temporary service unlock (until reset)
 111:interpretacjaSMS.c ****         "\x03"
 112:interpretacjaSMS.c ****         "SYS" // SYS - System Report (RAM, Uptime, Config)
 113:interpretacjaSMS.c **** };
 114:interpretacjaSMS.c **** 
 115:interpretacjaSMS.c **** enum {
 116:interpretacjaSMS.c ****   INSTRUKCJA_CODE, // code EFGH [K]
 117:interpretacjaSMS.c ****   INSTRUKCJA_ADD,
 118:interpretacjaSMS.c ****   INSTRUKCJA_DEL,
 119:interpretacjaSMS.c ****   INSTRUKCJA_RESET,
 120:interpretacjaSMS.c ****   INSTRUKCJA_REPORT, // report
 121:interpretacjaSMS.c ****   INSTRUKCJA_USER, // user +48505691117 E C B R [K] // user del +48505691117 [K]
 122:interpretacjaSMS.c ****   INSTRUKCJA_OPEN,
 123:interpretacjaSMS.c ****   INSTRUKCJA_CLOSE,
 124:interpretacjaSMS.c ****   INSTRUKCJA_CLIP,
 125:interpretacjaSMS.c ****   INSTRUKCJA_DTMF,
 126:interpretacjaSMS.c ****   INSTRUKCJA_SET,
 127:interpretacjaSMS.c ****   INSTRUKCJA_TIME,
 128:interpretacjaSMS.c ****   INSTRUKCJA_SKRYBA,
 129:interpretacjaSMS.c ****   INSTRUKCJA_DEBUG,
 130:interpretacjaSMS.c ****   INSTRUKCJA_SUB,
 131:interpretacjaSMS.c ****   INSTRUKCJA_MYNUM,
 132:interpretacjaSMS.c ****   INSTRUKCJA_USSD,
 133:interpretacjaSMS.c ****   INSTRUKCJA_CON,
 134:interpretacjaSMS.c ****   INSTRUKCJA_ON,
 135:interpretacjaSMS.c ****   INSTRUKCJA_TOGLE,
 136:interpretacjaSMS.c ****   INSTRUKCJA_RST,
 137:interpretacjaSMS.c ****   INSTRUKCJA_SMS_CLIP,
 138:interpretacjaSMS.c ****   INSTRUKCJA_SMS,
 139:interpretacjaSMS.c ****   INSTRUKCJA_STAN,
 140:interpretacjaSMS.c ****   INSTRUKCJA_SERVICE,
 141:interpretacjaSMS.c ****   INSTRUKCJA_SYS
 142:interpretacjaSMS.c **** };
 143:interpretacjaSMS.c **** 
 144:interpretacjaSMS.c **** uchar interpretuj_instrukcje_sms(const uchar **buf_sms, const uchar start,
 145:interpretacjaSMS.c ****                                  const uchar end) {
 197               		.loc 1 145 51 is_stmt 1 view -0
 198               		.cfi_startproc
 199               		.loc 1 145 51 is_stmt 0 view .LVU32
 200 00c8 AF92      		push r10
 201               	.LCFI6:
 202               		.cfi_def_cfa_offset 3
 203               		.cfi_offset 10, -2
 204 00ca BF92      		push r11
 205               	.LCFI7:
 206               		.cfi_def_cfa_offset 4
 207               		.cfi_offset 11, -3
 208 00cc CF92      		push r12
 209               	.LCFI8:
 210               		.cfi_def_cfa_offset 5
 211               		.cfi_offset 12, -4
 212 00ce DF92      		push r13
 213               	.LCFI9:
 214               		.cfi_def_cfa_offset 6
 215               		.cfi_offset 13, -5
 216 00d0 EF92      		push r14
 217               	.LCFI10:
 218               		.cfi_def_cfa_offset 7
 219               		.cfi_offset 14, -6
 220 00d2 FF92      		push r15
 221               	.LCFI11:
 222               		.cfi_def_cfa_offset 8
 223               		.cfi_offset 15, -7
 224 00d4 0F93      		push r16
 225               	.LCFI12:
 226               		.cfi_def_cfa_offset 9
 227               		.cfi_offset 16, -8
 228 00d6 1F93      		push r17
 229               	.LCFI13:
 230               		.cfi_def_cfa_offset 10
 231               		.cfi_offset 17, -9
 232 00d8 CF93      		push r28
 233               	.LCFI14:
 234               		.cfi_def_cfa_offset 11
 235               		.cfi_offset 28, -10
 236 00da DF93      		push r29
 237               	.LCFI15:
 238               		.cfi_def_cfa_offset 12
 239               		.cfi_offset 29, -11
 240               	/* prologue: function */
 241               	/* frame size = 0 */
 242               	/* stack size = 10 */
 243               	.L__stack_usage = 10
 244 00dc 6C01      		movw r12,r24
 245 00de B62E      		mov r11,r22
 246 00e0 A42E      		mov r10,r20
 146:interpretacjaSMS.c ****   przeskocz_biale_znaki(*buf_sms);
 247               		.loc 1 146 3 is_stmt 1 view .LVU33
 248               	.LVL16:
 249               	.L15:
 250               		.loc 1 146 3 discriminator 1 view .LVU34
 251 00e2 F601      		movw r30,r12
 252 00e4 0081      		ld r16,Z
 253 00e6 1181      		ldd r17,Z+1
 254 00e8 F801      		movw r30,r16
 255 00ea 8081      		ld r24,Z
 256 00ec 90E0      		ldi r25,0
 257 00ee 0E94 0000 		call isspace
 258               	.LVL17:
 259 00f2 892B      		or r24,r25
 260 00f4 01F4      		brne .L16
 261 00f6 FAE0      		ldi r31,lo8(10)
 262 00f8 BF9E      		mul r11,r31
 263 00fa C001      		movw r24,r0
 264 00fc 1124      		clr __zero_reg__
 265 00fe 9C01      		movw r18,r24
 266 0100 2050      		subi r18,lo8(-(instrukcja_sms))
 267 0102 3040      		sbci r19,hi8(-(instrukcja_sms))
 268 0104 7901      		movw r14,r18
 269               	.LVL18:
 270               	.L17:
 147:interpretacjaSMS.c ****   uchar i;
 148:interpretacjaSMS.c ****   for (i = start; i < end; ++i) {
 271               		.loc 1 148 19 discriminator 1 view .LVU35
 272               		.loc 1 148 3 is_stmt 0 discriminator 1 view .LVU36
 273 0106 BA14      		cp r11,r10
 274 0108 00F4      		brsh .L20
 275               	.LBB21:
 149:interpretacjaSMS.c ****     const void *p =
 276               		.loc 1 149 5 is_stmt 1 view .LVU37
 277               	.LVL19:
 150:interpretacjaSMS.c ****         &instrukcja_sms[0][0] + i * MAX_LICZBA_ZNAKOW_INSTRUKCJI_SMS;
 151:interpretacjaSMS.c ****     const uchar l = pgm_read_byte(p);
 278               		.loc 1 151 5 view .LVU38
 279               	.LBB22:
 280               		.loc 1 151 21 view .LVU39
 281               		.loc 1 151 21 view .LVU40
 282               		.loc 1 151 21 view .LVU41
 283 010a F701      		movw r30,r14
 284               	/* #APP */
 285               	 ;  151 "interpretacjaSMS.c" 1
 286 010c C491      		lpm r28, Z
 287               		
 288               	 ;  0 "" 2
 289               	.LVL20:
 290               		.loc 1 151 21 view .LVU42
 291               		.loc 1 151 21 is_stmt 0 view .LVU43
 292               	/* #NOAPP */
 293               	.LBE22:
 152:interpretacjaSMS.c ****     if (memcmp_P(*buf_sms, p + 1, l) == 0) {
 294               		.loc 1 152 5 is_stmt 1 view .LVU44
 295               		.loc 1 152 9 is_stmt 0 view .LVU45
 296 010e D0E0      		ldi r29,0
 297 0110 AE01      		movw r20,r28
 298 0112 B701      		movw r22,r14
 299 0114 6F5F      		subi r22,-1
 300 0116 7F4F      		sbci r23,-1
 301 0118 C801      		movw r24,r16
 302 011a 0E94 0000 		call memcmp_P
 303               	.LVL21:
 304               		.loc 1 152 8 view .LVU46
 305 011e 892B      		or r24,r25
 306 0120 01F4      		brne .L18
 307               	.LBB23:
 153:interpretacjaSMS.c ****       /* Akceptuj tylko pełny token komendy (koniec lub biały znak). */
 154:interpretacjaSMS.c ****       const uchar next = (*buf_sms)[l];
 308               		.loc 1 154 7 is_stmt 1 view .LVU47
 309               		.loc 1 154 36 is_stmt 0 view .LVU48
 310 0122 C00F      		add r28,r16
 311 0124 D11F      		adc r29,r17
 312               	.LVL22:
 313               		.loc 1 154 19 view .LVU49
 314 0126 8881      		ld r24,Y
 315               	.LVL23:
 155:interpretacjaSMS.c ****       if (next == '\0' || isspace(next)) {
 316               		.loc 1 155 7 is_stmt 1 view .LVU50
 317               		.loc 1 155 10 is_stmt 0 view .LVU51
 318 0128 8111      		cpse r24,__zero_reg__
 319 012a 00C0      		rjmp .L19
 320               	.LVL24:
 321               	.L21:
 156:interpretacjaSMS.c ****         *buf_sms += l;
 322               		.loc 1 156 9 is_stmt 1 view .LVU52
 323               		.loc 1 156 18 is_stmt 0 view .LVU53
 324 012c F601      		movw r30,r12
 325 012e D183      		std Z+1,r29
 326 0130 C083      		st Z,r28
 157:interpretacjaSMS.c ****         return i;
 327               		.loc 1 157 9 is_stmt 1 view .LVU54
 328               	.LVL25:
 329               	.L20:
 330               		.loc 1 157 9 is_stmt 0 view .LVU55
 331               	.LBE23:
 332               	.LBE21:
 158:interpretacjaSMS.c ****       }
 159:interpretacjaSMS.c ****     }
 160:interpretacjaSMS.c ****   }
 161:interpretacjaSMS.c ****   return i;
 162:interpretacjaSMS.c **** }
 333               		.loc 1 162 1 view .LVU56
 334 0132 8B2D      		mov r24,r11
 335               	/* epilogue start */
 336 0134 DF91      		pop r29
 337 0136 CF91      		pop r28
 338 0138 1F91      		pop r17
 339 013a 0F91      		pop r16
 340 013c FF90      		pop r15
 341 013e EF90      		pop r14
 342 0140 DF90      		pop r13
 343 0142 CF90      		pop r12
 344               	.LVL26:
 345               		.loc 1 162 1 view .LVU57
 346 0144 BF90      		pop r11
 347               	.LVL27:
 348               		.loc 1 162 1 view .LVU58
 349 0146 AF90      		pop r10
 350               	.LVL28:
 351               		.loc 1 162 1 view .LVU59
 352 0148 0895      		ret
 353               	.LVL29:
 354               	.L16:
 146:interpretacjaSMS.c ****   uchar i;
 355               		.loc 1 146 3 is_stmt 1 discriminator 2 view .LVU60
 356 014a 0F5F      		subi r16,-1
 357 014c 1F4F      		sbci r17,-1
 358 014e F601      		movw r30,r12
 359 0150 1183      		std Z+1,r17
 360 0152 0083      		st Z,r16
 361 0154 00C0      		rjmp .L15
 362               	.LVL30:
 363               	.L19:
 364               	.LBB25:
 365               	.LBB24:
 155:interpretacjaSMS.c ****         *buf_sms += l;
 366               		.loc 1 155 27 is_stmt 0 discriminator 1 view .LVU61
 367 0156 90E0      		ldi r25,0
 368 0158 0E94 0000 		call isspace
 369               	.LVL31:
 155:interpretacjaSMS.c ****         *buf_sms += l;
 370               		.loc 1 155 24 discriminator 1 view .LVU62
 371 015c 892B      		or r24,r25
 372 015e 01F4      		brne .L21
 373               	.L18:
 155:interpretacjaSMS.c ****         *buf_sms += l;
 374               		.loc 1 155 24 discriminator 1 view .LVU63
 375               	.LBE24:
 376               	.LBE25:
 148:interpretacjaSMS.c ****     const void *p =
 377               		.loc 1 148 28 is_stmt 1 discriminator 2 view .LVU64
 378 0160 B394      		inc r11
 379               	.LVL32:
 148:interpretacjaSMS.c ****     const void *p =
 380               		.loc 1 148 28 is_stmt 0 discriminator 2 view .LVU65
 381 0162 FAE0      		ldi r31,10
 382 0164 EF0E      		add r14,r31
 383 0166 F11C      		adc r15,__zero_reg__
 384               	.LVL33:
 148:interpretacjaSMS.c ****     const void *p =
 385               		.loc 1 148 28 discriminator 2 view .LVU66
 386 0168 00C0      		rjmp .L17
 387               		.cfi_endproc
 388               	.LFE11:
 390               	.global	pobierz_long
 392               	pobierz_long:
 393               	.LVL34:
 394               	.LFB12:
 163:interpretacjaSMS.c **** 
 164:interpretacjaSMS.c **** uchar pobierz_long(const uchar **buf_sms, long *wartosc) {
 395               		.loc 1 164 58 is_stmt 1 view -0
 396               		.cfi_startproc
 397               		.loc 1 164 58 is_stmt 0 view .LVU68
 398 016a EF92      		push r14
 399               	.LCFI16:
 400               		.cfi_def_cfa_offset 3
 401               		.cfi_offset 14, -2
 402 016c FF92      		push r15
 403               	.LCFI17:
 404               		.cfi_def_cfa_offset 4
 405               		.cfi_offset 15, -3
 406 016e 0F93      		push r16
 407               	.LCFI18:
 408               		.cfi_def_cfa_offset 5
 409               		.cfi_offset 16, -4
 410 0170 1F93      		push r17
 411               	.LCFI19:
 412               		.cfi_def_cfa_offset 6
 413               		.cfi_offset 17, -5
 414 0172 CF93      		push r28
 415               	.LCFI20:
 416               		.cfi_def_cfa_offset 7
 417               		.cfi_offset 28, -6
 418 0174 DF93      		push r29
 419               	.LCFI21:
 420               		.cfi_def_cfa_offset 8
 421               		.cfi_offset 29, -7
 422               	/* prologue: function */
 423               	/* frame size = 0 */
 424               	/* stack size = 6 */
 425               	.L__stack_usage = 6
 426 0176 EC01      		movw r28,r24
 427 0178 7B01      		movw r14,r22
 165:interpretacjaSMS.c ****   const uchar *buf_sms_pom = *buf_sms;
 428               		.loc 1 165 3 is_stmt 1 view .LVU69
 429               		.loc 1 165 16 is_stmt 0 view .LVU70
 430 017a 0881      		ld r16,Y
 431 017c 1981      		ldd r17,Y+1
 432               	.LVL35:
 166:interpretacjaSMS.c ****   *wartosc = strtol(*buf_sms, (char **)buf_sms, 10);
 433               		.loc 1 166 3 is_stmt 1 view .LVU71
 434               		.loc 1 166 14 is_stmt 0 view .LVU72
 435 017e 4AE0      		ldi r20,lo8(10)
 436 0180 50E0      		ldi r21,0
 437 0182 BC01      		movw r22,r24
 438               	.LVL36:
 439               		.loc 1 166 14 view .LVU73
 440 0184 C801      		movw r24,r16
 441               	.LVL37:
 442               		.loc 1 166 14 view .LVU74
 443 0186 0E94 0000 		call strtol
 444               	.LVL38:
 445               		.loc 1 166 12 view .LVU75
 446 018a F701      		movw r30,r14
 447 018c 6083      		st Z,r22
 448 018e 7183      		std Z+1,r23
 449 0190 8283      		std Z+2,r24
 450 0192 9383      		std Z+3,r25
 167:interpretacjaSMS.c ****   return *buf_sms != buf_sms_pom;
 451               		.loc 1 167 3 is_stmt 1 view .LVU76
 452               		.loc 1 167 19 is_stmt 0 view .LVU77
 453 0194 81E0      		ldi r24,lo8(1)
 454 0196 2881      		ld r18,Y
 455 0198 3981      		ldd r19,Y+1
 456 019a 2017      		cp r18,r16
 457 019c 3107      		cpc r19,r17
 458 019e 01F4      		brne .L24
 459 01a0 80E0      		ldi r24,0
 460               	.L24:
 461               	/* epilogue start */
 168:interpretacjaSMS.c **** }
 462               		.loc 1 168 1 view .LVU78
 463 01a2 DF91      		pop r29
 464 01a4 CF91      		pop r28
 465               	.LVL39:
 466               		.loc 1 168 1 view .LVU79
 467 01a6 1F91      		pop r17
 468 01a8 0F91      		pop r16
 469               	.LVL40:
 470               		.loc 1 168 1 view .LVU80
 471 01aa FF90      		pop r15
 472 01ac EF90      		pop r14
 473               	.LVL41:
 474               		.loc 1 168 1 view .LVU81
 475 01ae 0895      		ret
 476               		.cfi_endproc
 477               	.LFE12:
 479               	.global	pomin_znak
 481               	pomin_znak:
 482               	.LVL42:
 483               	.LFB13:
 169:interpretacjaSMS.c **** 
 170:interpretacjaSMS.c **** uchar pomin_znak(const uchar **buf_sms, const uchar wartosc) {
 484               		.loc 1 170 62 is_stmt 1 view -0
 485               		.cfi_startproc
 486               		.loc 1 170 62 is_stmt 0 view .LVU83
 487 01b0 DF92      		push r13
 488               	.LCFI22:
 489               		.cfi_def_cfa_offset 3
 490               		.cfi_offset 13, -2
 491 01b2 EF92      		push r14
 492               	.LCFI23:
 493               		.cfi_def_cfa_offset 4
 494               		.cfi_offset 14, -3
 495 01b4 FF92      		push r15
 496               	.LCFI24:
 497               		.cfi_def_cfa_offset 5
 498               		.cfi_offset 15, -4
 499 01b6 0F93      		push r16
 500               	.LCFI25:
 501               		.cfi_def_cfa_offset 6
 502               		.cfi_offset 16, -5
 503 01b8 1F93      		push r17
 504               	.LCFI26:
 505               		.cfi_def_cfa_offset 7
 506               		.cfi_offset 17, -6
 507 01ba CF93      		push r28
 508               	.LCFI27:
 509               		.cfi_def_cfa_offset 8
 510               		.cfi_offset 28, -7
 511 01bc DF93      		push r29
 512               	.LCFI28:
 513               		.cfi_def_cfa_offset 9
 514               		.cfi_offset 29, -8
 515               	/* prologue: function */
 516               	/* frame size = 0 */
 517               	/* stack size = 7 */
 518               	.L__stack_usage = 7
 519 01be 7C01      		movw r14,r24
 520 01c0 D62E      		mov r13,r22
 171:interpretacjaSMS.c ****   przeskocz_biale_znaki(*buf_sms);
 521               		.loc 1 171 3 is_stmt 1 view .LVU84
 522               	.LVL43:
 523               	.L26:
 524               		.loc 1 171 3 discriminator 1 view .LVU85
 525 01c2 F701      		movw r30,r14
 526 01c4 C081      		ld r28,Z
 527 01c6 D181      		ldd r29,Z+1
 528 01c8 0881      		ld r16,Y
 529 01ca 10E0      		ldi r17,0
 530 01cc C801      		movw r24,r16
 531 01ce 0E94 0000 		call isspace
 532               	.LVL44:
 533 01d2 892B      		or r24,r25
 534 01d4 01F4      		brne .L27
 172:interpretacjaSMS.c ****   if (**buf_sms == toupper(wartosc)) {
 535               		.loc 1 172 3 view .LVU86
 536               		.loc 1 172 20 is_stmt 0 view .LVU87
 537 01d6 8D2D      		mov r24,r13
 538 01d8 90E0      		ldi r25,0
 539 01da 0E94 0000 		call toupper
 540               	.LVL45:
 541               		.loc 1 172 6 view .LVU88
 542 01de 0817      		cp r16,r24
 543 01e0 1907      		cpc r17,r25
 544 01e2 01F4      		brne .L29
 173:interpretacjaSMS.c ****     ++*buf_sms;
 545               		.loc 1 173 5 is_stmt 1 view .LVU89
 546 01e4 2196      		adiw r28,1
 547 01e6 F701      		movw r30,r14
 548 01e8 D183      		std Z+1,r29
 549 01ea C083      		st Z,r28
 174:interpretacjaSMS.c ****     return TRUE;
 550               		.loc 1 174 5 view .LVU90
 551               		.loc 1 174 12 is_stmt 0 view .LVU91
 552 01ec 8FEF      		ldi r24,lo8(-1)
 553               	.L25:
 554               	/* epilogue start */
 175:interpretacjaSMS.c ****   } else
 176:interpretacjaSMS.c ****     return FALSE;
 177:interpretacjaSMS.c **** }
 555               		.loc 1 177 1 view .LVU92
 556 01ee DF91      		pop r29
 557 01f0 CF91      		pop r28
 558 01f2 1F91      		pop r17
 559 01f4 0F91      		pop r16
 560 01f6 FF90      		pop r15
 561 01f8 EF90      		pop r14
 562               	.LVL46:
 563               		.loc 1 177 1 view .LVU93
 564 01fa DF90      		pop r13
 565               	.LVL47:
 566               		.loc 1 177 1 view .LVU94
 567 01fc 0895      		ret
 568               	.LVL48:
 569               	.L27:
 171:interpretacjaSMS.c ****   if (**buf_sms == toupper(wartosc)) {
 570               		.loc 1 171 3 is_stmt 1 discriminator 2 view .LVU95
 571 01fe 2196      		adiw r28,1
 572 0200 F701      		movw r30,r14
 573 0202 D183      		std Z+1,r29
 574 0204 C083      		st Z,r28
 575 0206 00C0      		rjmp .L26
 576               	.L29:
 176:interpretacjaSMS.c **** }
 577               		.loc 1 176 12 is_stmt 0 view .LVU96
 578 0208 80E0      		ldi r24,0
 579 020a 00C0      		rjmp .L25
 580               		.cfi_endproc
 581               	.LFE13:
 583               	.global	czy_jest_znak
 585               	czy_jest_znak:
 586               	.LVL49:
 587               	.LFB14:
 178:interpretacjaSMS.c **** 
 179:interpretacjaSMS.c **** uchar czy_jest_znak(const uchar **buf_sms, const uchar wartosc) {
 588               		.loc 1 179 65 is_stmt 1 view -0
 589               		.cfi_startproc
 590               		.loc 1 179 65 is_stmt 0 view .LVU98
 591 020c DF92      		push r13
 592               	.LCFI29:
 593               		.cfi_def_cfa_offset 3
 594               		.cfi_offset 13, -2
 595 020e EF92      		push r14
 596               	.LCFI30:
 597               		.cfi_def_cfa_offset 4
 598               		.cfi_offset 14, -3
 599 0210 FF92      		push r15
 600               	.LCFI31:
 601               		.cfi_def_cfa_offset 5
 602               		.cfi_offset 15, -4
 603 0212 0F93      		push r16
 604               	.LCFI32:
 605               		.cfi_def_cfa_offset 6
 606               		.cfi_offset 16, -5
 607 0214 1F93      		push r17
 608               	.LCFI33:
 609               		.cfi_def_cfa_offset 7
 610               		.cfi_offset 17, -6
 611 0216 CF93      		push r28
 612               	.LCFI34:
 613               		.cfi_def_cfa_offset 8
 614               		.cfi_offset 28, -7
 615 0218 DF93      		push r29
 616               	.LCFI35:
 617               		.cfi_def_cfa_offset 9
 618               		.cfi_offset 29, -8
 619               	/* prologue: function */
 620               	/* frame size = 0 */
 621               	/* stack size = 7 */
 622               	.L__stack_usage = 7
 623 021a 8C01      		movw r16,r24
 624 021c D62E      		mov r13,r22
 180:interpretacjaSMS.c ****   przeskocz_biale_znaki(*buf_sms);
 625               		.loc 1 180 3 is_stmt 1 view .LVU99
 626               	.LVL50:
 627               	.L31:
 628               		.loc 1 180 3 discriminator 1 view .LVU100
 629 021e F801      		movw r30,r16
 630 0220 E080      		ld r14,Z
 631 0222 F180      		ldd r15,Z+1
 632 0224 CE2D      		mov r28,r14
 633 0226 DF2D      		mov r29,r15
 634 0228 8991      		ld r24,Y+
 635 022a 90E0      		ldi r25,0
 636 022c 0E94 0000 		call isspace
 637               	.LVL51:
 638 0230 892B      		or r24,r25
 639 0232 01F4      		brne .L32
 181:interpretacjaSMS.c ****   const uchar *buf_sms_pom = *buf_sms;
 640               		.loc 1 181 3 view .LVU101
 641               	.LVL52:
 182:interpretacjaSMS.c ****   const uchar w = toupper(wartosc);
 642               		.loc 1 182 3 view .LVU102
 643               		.loc 1 182 19 is_stmt 0 view .LVU103
 644 0234 8D2D      		mov r24,r13
 645 0236 90E0      		ldi r25,0
 646 0238 0E94 0000 		call toupper
 647               	.LVL53:
 648 023c 982F      		mov r25,r24
 649               	.LVL54:
 183:interpretacjaSMS.c ****   uchar ch;
 650               		.loc 1 183 3 is_stmt 1 view .LVU104
 184:interpretacjaSMS.c ****   while ((ch = *buf_sms_pom++) != '\0' && ch != w)
 651               		.loc 1 184 3 view .LVU105
 652               	.L34:
 185:interpretacjaSMS.c ****     ;
 653               		.loc 1 185 5 discriminator 2 view .LVU106
 184:interpretacjaSMS.c ****   while ((ch = *buf_sms_pom++) != '\0' && ch != w)
 654               		.loc 1 184 9 discriminator 2 view .LVU107
 184:interpretacjaSMS.c ****   while ((ch = *buf_sms_pom++) != '\0' && ch != w)
 655               		.loc 1 184 28 is_stmt 0 discriminator 2 view .LVU108
 656 023e F701      		movw r30,r14
 657               	.LVL55:
 184:interpretacjaSMS.c ****   while ((ch = *buf_sms_pom++) != '\0' && ch != w)
 658               		.loc 1 184 14 discriminator 2 view .LVU109
 659 0240 8191      		ld r24,Z+
 660               	.LVL56:
 184:interpretacjaSMS.c ****   while ((ch = *buf_sms_pom++) != '\0' && ch != w)
 661               		.loc 1 184 9 discriminator 2 view .LVU110
 662 0242 8823      		tst r24
 663 0244 01F0      		breq .L33
 184:interpretacjaSMS.c ****   while ((ch = *buf_sms_pom++) != '\0' && ch != w)
 664               		.loc 1 184 28 discriminator 1 view .LVU111
 665 0246 7F01      		movw r14,r30
 666               	.LVL57:
 184:interpretacjaSMS.c ****   while ((ch = *buf_sms_pom++) != '\0' && ch != w)
 667               		.loc 1 184 40 discriminator 1 view .LVU112
 668 0248 9813      		cpse r25,r24
 669 024a 00C0      		rjmp .L34
 670               	.LVL58:
 671               	.L35:
 186:interpretacjaSMS.c ****   if (ch == w) {
 187:interpretacjaSMS.c ****     *buf_sms = buf_sms_pom;
 672               		.loc 1 187 5 is_stmt 1 view .LVU113
 673               		.loc 1 187 14 is_stmt 0 view .LVU114
 674 024c D801      		movw r26,r16
 675 024e ED93      		st X+,r30
 676 0250 FC93      		st X,r31
 188:interpretacjaSMS.c ****     return TRUE;
 677               		.loc 1 188 5 is_stmt 1 view .LVU115
 678               		.loc 1 188 12 is_stmt 0 view .LVU116
 679 0252 8FEF      		ldi r24,lo8(-1)
 680               	.LVL59:
 681               		.loc 1 188 12 view .LVU117
 682 0254 00C0      		rjmp .L30
 683               	.LVL60:
 684               	.L32:
 180:interpretacjaSMS.c ****   const uchar *buf_sms_pom = *buf_sms;
 685               		.loc 1 180 3 is_stmt 1 discriminator 2 view .LVU118
 686 0256 D801      		movw r26,r16
 687 0258 CD93      		st X+,r28
 688 025a DC93      		st X,r29
 689 025c 00C0      		rjmp .L31
 690               	.LVL61:
 691               	.L33:
 186:interpretacjaSMS.c ****   if (ch == w) {
 692               		.loc 1 186 3 view .LVU119
 186:interpretacjaSMS.c ****   if (ch == w) {
 693               		.loc 1 186 6 is_stmt 0 view .LVU120
 694 025e 9923      		tst r25
 695 0260 01F0      		breq .L35
 696               	.LVL62:
 697               	.L30:
 698               	/* epilogue start */
 189:interpretacjaSMS.c ****   } else
 190:interpretacjaSMS.c ****     return FALSE;
 191:interpretacjaSMS.c **** }
 699               		.loc 1 191 1 view .LVU121
 700 0262 DF91      		pop r29
 701 0264 CF91      		pop r28
 702 0266 1F91      		pop r17
 703 0268 0F91      		pop r16
 704               	.LVL63:
 705               		.loc 1 191 1 view .LVU122
 706 026a FF90      		pop r15
 707 026c EF90      		pop r14
 708 026e DF90      		pop r13
 709               	.LVL64:
 710               		.loc 1 191 1 view .LVU123
 711 0270 0895      		ret
 712               		.cfi_endproc
 713               	.LFE14:
 715               	.global	pobierz_wyraz
 717               	pobierz_wyraz:
 718               	.LVL65:
 719               	.LFB15:
 192:interpretacjaSMS.c **** 
 193:interpretacjaSMS.c **** void pobierz_wyraz(const uchar **buf_sms, uchar *buf, uchar max_liczba_znakow) {
 720               		.loc 1 193 80 is_stmt 1 view -0
 721               		.cfi_startproc
 722               		.loc 1 193 80 is_stmt 0 view .LVU125
 723 0272 CF92      		push r12
 724               	.LCFI36:
 725               		.cfi_def_cfa_offset 3
 726               		.cfi_offset 12, -2
 727 0274 DF92      		push r13
 728               	.LCFI37:
 729               		.cfi_def_cfa_offset 4
 730               		.cfi_offset 13, -3
 731 0276 EF92      		push r14
 732               	.LCFI38:
 733               		.cfi_def_cfa_offset 5
 734               		.cfi_offset 14, -4
 735 0278 FF92      		push r15
 736               	.LCFI39:
 737               		.cfi_def_cfa_offset 6
 738               		.cfi_offset 15, -5
 739 027a 0F93      		push r16
 740               	.LCFI40:
 741               		.cfi_def_cfa_offset 7
 742               		.cfi_offset 16, -6
 743 027c 1F93      		push r17
 744               	.LCFI41:
 745               		.cfi_def_cfa_offset 8
 746               		.cfi_offset 17, -7
 747 027e CF93      		push r28
 748               	.LCFI42:
 749               		.cfi_def_cfa_offset 9
 750               		.cfi_offset 28, -8
 751 0280 DF93      		push r29
 752               	.LCFI43:
 753               		.cfi_def_cfa_offset 10
 754               		.cfi_offset 29, -9
 755               	/* prologue: function */
 756               	/* frame size = 0 */
 757               	/* stack size = 8 */
 758               	.L__stack_usage = 8
 759 0282 8C01      		movw r16,r24
 760 0284 E62E      		mov r14,r22
 761 0286 D72E      		mov r13,r23
 762 0288 F42E      		mov r15,r20
 194:interpretacjaSMS.c ****   przeskocz_biale_znaki(*buf_sms);
 763               		.loc 1 194 3 is_stmt 1 view .LVU126
 764               	.LVL66:
 765               	.L39:
 766               		.loc 1 194 3 discriminator 1 view .LVU127
 767 028a F801      		movw r30,r16
 768 028c C081      		ld r28,Z
 769 028e D181      		ldd r29,Z+1
 770 0290 8881      		ld r24,Y
 771 0292 90E0      		ldi r25,0
 772 0294 0E94 0000 		call isspace
 773               	.LVL67:
 774 0298 892B      		or r24,r25
 775 029a 01F4      		brne .L40
 776               		.loc 1 194 3 is_stmt 0 view .LVU128
 777 029c CE2D      		mov r28,r14
 778 029e DD2D      		mov r29,r13
 195:interpretacjaSMS.c ****   while (max_liczba_znakow-- && !isspace(**buf_sms) &&
 779               		.loc 1 195 9 view .LVU129
 780 02a0 EF0C      		add r14,r15
 781               	.LVL68:
 782               	.L41:
 783               		.loc 1 195 9 view .LVU130
 784 02a2 6E01      		movw r12,r28
 785               	.LVL69:
 786               		.loc 1 195 9 is_stmt 1 view .LVU131
 787               		.loc 1 195 9 is_stmt 0 view .LVU132
 788 02a4 EC12      		cpse r14,r28
 789 02a6 00C0      		rjmp .L42
 790               	.L43:
 196:interpretacjaSMS.c ****          (*buf = **buf_sms) != '\0') {
 197:interpretacjaSMS.c ****     buf++;
 198:interpretacjaSMS.c ****     (*buf_sms)++;
 199:interpretacjaSMS.c ****   }
 200:interpretacjaSMS.c ****   *buf = '\0';
 791               		.loc 1 200 3 is_stmt 1 view .LVU133
 792               		.loc 1 200 8 is_stmt 0 view .LVU134
 793 02a8 F601      		movw r30,r12
 794 02aa 1082      		st Z,__zero_reg__
 795               	/* epilogue start */
 201:interpretacjaSMS.c **** }
 796               		.loc 1 201 1 view .LVU135
 797 02ac DF91      		pop r29
 798 02ae CF91      		pop r28
 799 02b0 1F91      		pop r17
 800 02b2 0F91      		pop r16
 801               	.LVL70:
 802               		.loc 1 201 1 view .LVU136
 803 02b4 FF90      		pop r15
 804 02b6 EF90      		pop r14
 805 02b8 DF90      		pop r13
 806 02ba CF90      		pop r12
 807               	.LVL71:
 808               		.loc 1 201 1 view .LVU137
 809 02bc 0895      		ret
 810               	.LVL72:
 811               	.L40:
 194:interpretacjaSMS.c ****   while (max_liczba_znakow-- && !isspace(**buf_sms) &&
 812               		.loc 1 194 3 is_stmt 1 discriminator 2 view .LVU138
 813 02be 2196      		adiw r28,1
 814 02c0 D801      		movw r26,r16
 815 02c2 CD93      		st X+,r28
 816 02c4 DC93      		st X,r29
 817 02c6 00C0      		rjmp .L39
 818               	.LVL73:
 819               	.L42:
 195:interpretacjaSMS.c ****          (*buf = **buf_sms) != '\0') {
 820               		.loc 1 195 42 is_stmt 0 discriminator 1 view .LVU139
 821 02c8 D801      		movw r26,r16
 822 02ca ED91      		ld r30,X+
 823 02cc FC91      		ld r31,X
 824 02ce F080      		ld r15,Z
 195:interpretacjaSMS.c ****          (*buf = **buf_sms) != '\0') {
 825               		.loc 1 195 34 discriminator 1 view .LVU140
 826 02d0 8F2D      		mov r24,r15
 827 02d2 90E0      		ldi r25,0
 828 02d4 0E94 0000 		call isspace
 829               	.LVL74:
 195:interpretacjaSMS.c ****          (*buf = **buf_sms) != '\0') {
 830               		.loc 1 195 30 discriminator 1 view .LVU141
 831 02d8 892B      		or r24,r25
 832 02da 01F4      		brne .L43
 196:interpretacjaSMS.c ****     buf++;
 833               		.loc 1 196 16 discriminator 2 view .LVU142
 834 02dc F992      		st Y+,r15
 195:interpretacjaSMS.c ****          (*buf = **buf_sms) != '\0') {
 835               		.loc 1 195 53 discriminator 2 view .LVU143
 836 02de FF20      		tst r15
 837 02e0 01F0      		breq .L43
 197:interpretacjaSMS.c ****     (*buf_sms)++;
 838               		.loc 1 197 5 is_stmt 1 view .LVU144
 839               	.LVL75:
 198:interpretacjaSMS.c ****   }
 840               		.loc 1 198 5 view .LVU145
 198:interpretacjaSMS.c ****   }
 841               		.loc 1 198 15 is_stmt 0 view .LVU146
 842 02e2 D801      		movw r26,r16
 843 02e4 8D91      		ld r24,X+
 844 02e6 9C91      		ld r25,X
 845 02e8 1197      		sbiw r26,1
 846 02ea 0196      		adiw r24,1
 847 02ec 8D93      		st X+,r24
 848 02ee 9C93      		st X,r25
 849 02f0 00C0      		rjmp .L41
 850               		.cfi_endproc
 851               	.LFE15:
 853               	.global	pobierz_numer_telefonu
 855               	pobierz_numer_telefonu:
 856               	.LVL76:
 857               	.LFB16:
 202:interpretacjaSMS.c **** 
 203:interpretacjaSMS.c **** uchar pobierz_numer_telefonu(const uchar **buf_sms, uchar *buf_telefon,
 204:interpretacjaSMS.c ****                              const uchar rozmiar_bufora) {
 858               		.loc 1 204 58 is_stmt 1 view -0
 859               		.cfi_startproc
 860               		.loc 1 204 58 is_stmt 0 view .LVU148
 861 02f2 8F92      		push r8
 862               	.LCFI44:
 863               		.cfi_def_cfa_offset 3
 864               		.cfi_offset 8, -2
 865 02f4 9F92      		push r9
 866               	.LCFI45:
 867               		.cfi_def_cfa_offset 4
 868               		.cfi_offset 9, -3
 869 02f6 AF92      		push r10
 870               	.LCFI46:
 871               		.cfi_def_cfa_offset 5
 872               		.cfi_offset 10, -4
 873 02f8 BF92      		push r11
 874               	.LCFI47:
 875               		.cfi_def_cfa_offset 6
 876               		.cfi_offset 11, -5
 877 02fa CF92      		push r12
 878               	.LCFI48:
 879               		.cfi_def_cfa_offset 7
 880               		.cfi_offset 12, -6
 881 02fc DF92      		push r13
 882               	.LCFI49:
 883               		.cfi_def_cfa_offset 8
 884               		.cfi_offset 13, -7
 885 02fe EF92      		push r14
 886               	.LCFI50:
 887               		.cfi_def_cfa_offset 9
 888               		.cfi_offset 14, -8
 889 0300 FF92      		push r15
 890               	.LCFI51:
 891               		.cfi_def_cfa_offset 10
 892               		.cfi_offset 15, -9
 893 0302 0F93      		push r16
 894               	.LCFI52:
 895               		.cfi_def_cfa_offset 11
 896               		.cfi_offset 16, -10
 897 0304 1F93      		push r17
 898               	.LCFI53:
 899               		.cfi_def_cfa_offset 12
 900               		.cfi_offset 17, -11
 901 0306 CF93      		push r28
 902               	.LCFI54:
 903               		.cfi_def_cfa_offset 13
 904               		.cfi_offset 28, -12
 905 0308 DF93      		push r29
 906               	.LCFI55:
 907               		.cfi_def_cfa_offset 14
 908               		.cfi_offset 29, -13
 909 030a CDB7      		in r28,__SP_L__
 910 030c DEB7      		in r29,__SP_H__
 911               	.LCFI56:
 912               		.cfi_def_cfa_register 28
 913 030e 6497      		sbiw r28,20
 914               	.LCFI57:
 915               		.cfi_def_cfa_offset 34
 916 0310 0FB6      		in __tmp_reg__,__SREG__
 917 0312 F894      		cli
 918 0314 DEBF      		out __SP_H__,r29
 919 0316 0FBE      		out __SREG__,__tmp_reg__
 920 0318 CDBF      		out __SP_L__,r28
 921               	/* prologue: function */
 922               	/* frame size = 20 */
 923               	/* stack size = 32 */
 924               	.L__stack_usage = 32
 925 031a 7C01      		movw r14,r24
 926 031c 6B01      		movw r12,r22
 927 031e 042F      		mov r16,r20
 205:interpretacjaSMS.c ****   przeskocz_biale_znaki(*buf_sms);
 928               		.loc 1 205 3 is_stmt 1 view .LVU149
 929               	.LVL77:
 930               	.L47:
 931               		.loc 1 205 3 discriminator 1 view .LVU150
 932 0320 F701      		movw r30,r14
 933 0322 A080      		ld r10,Z
 934 0324 B180      		ldd r11,Z+1
 935 0326 F501      		movw r30,r10
 936 0328 8081      		ld r24,Z
 937 032a 90E0      		ldi r25,0
 938 032c 0E94 0000 		call isspace
 939               	.LVL78:
 940 0330 892B      		or r24,r25
 941 0332 01F0      		breq .+2
 942 0334 00C0      		rjmp .L48
 206:interpretacjaSMS.c ****   const uchar *tel = *buf_sms;
 207:interpretacjaSMS.c **** 
 208:interpretacjaSMS.c ****   // Bufor tymczasowy dla wszystkich cyfr
 209:interpretacjaSMS.c ****   uchar temp_digits[20];
 210:interpretacjaSMS.c ****   uchar digit_count = 0;
 943               		.loc 1 210 9 is_stmt 0 view .LVU151
 944 0336 10E0      		ldi r17,0
 945               	.L49:
 946 0338 4501      		movw r8,r10
 947               	.LVL79:
 211:interpretacjaSMS.c **** 
 212:interpretacjaSMS.c ****   // Zbierz wszystkie cyfry (0-9), pomijając +, #, *, spacje
 213:interpretacjaSMS.c ****   while (*tel != '\0' && digit_count < 20) {
 948               		.loc 1 213 9 is_stmt 1 view .LVU152
 949               		.loc 1 213 10 is_stmt 0 view .LVU153
 950 033a F501      		movw r30,r10
 951 033c 8191      		ld r24,Z+
 952 033e 5F01      		movw r10,r30
 953               		.loc 1 213 9 view .LVU154
 954 0340 8823      		tst r24
 955 0342 01F0      		breq .L56
 956               		.loc 1 213 23 discriminator 1 view .LVU155
 957 0344 1431      		cpi r17,lo8(20)
 958 0346 00F4      		brsh .L56
 214:interpretacjaSMS.c ****     // Pomiń spacje
 215:interpretacjaSMS.c ****     if (*tel == ' ') {
 959               		.loc 1 215 5 is_stmt 1 view .LVU156
 960               		.loc 1 215 8 is_stmt 0 view .LVU157
 961 0348 8032      		cpi r24,lo8(32)
 962 034a 01F0      		breq .L49
 216:interpretacjaSMS.c ****       tel++;
 217:interpretacjaSMS.c ****       continue;
 218:interpretacjaSMS.c ****     }
 219:interpretacjaSMS.c **** 
 220:interpretacjaSMS.c ****     // Sprawdź czy to poprawny znak numeru
 221:interpretacjaSMS.c ****     if (konwersja_znaku_telefonu(*tel) == ZNAK_NUMERU_TELEFONU_NIEZNANY) {
 963               		.loc 1 221 5 is_stmt 1 view .LVU158
 964               		.loc 1 221 9 is_stmt 0 view .LVU159
 965 034c 0E94 0000 		call konwersja_znaku_telefonu
 966               	.LVL80:
 967               		.loc 1 221 8 view .LVU160
 968 0350 8D30      		cpi r24,lo8(13)
 969 0352 01F0      		breq .+2
 970 0354 00C0      		rjmp .L51
 971               	.L56:
 222:interpretacjaSMS.c ****       break; // Koniec numeru
 223:interpretacjaSMS.c ****     }
 224:interpretacjaSMS.c **** 
 225:interpretacjaSMS.c ****     // Zapisz TYLKO cyfry (0-9)
 226:interpretacjaSMS.c ****     if (*tel >= '0' && *tel <= '9') {
 227:interpretacjaSMS.c ****       temp_digits[digit_count++] = *tel;
 228:interpretacjaSMS.c ****     }
 229:interpretacjaSMS.c ****     tel++;
 230:interpretacjaSMS.c ****   }
 231:interpretacjaSMS.c **** 
 232:interpretacjaSMS.c ****   // Skopiuj OSTATNIE 9 cyfr do bufora wyjściowego
 233:interpretacjaSMS.c ****   uchar start_pos = (digit_count > 9) ? (digit_count - 9) : 0;
 972               		.loc 1 233 3 is_stmt 1 view .LVU161
 973               	.LVL81:
 234:interpretacjaSMS.c ****   uchar copy_count = (digit_count > 9) ? 9 : digit_count;
 974               		.loc 1 234 3 view .LVU162
 975               		.loc 1 234 9 is_stmt 0 view .LVU163
 976 0356 512F      		mov r21,r17
 977 0358 1A30      		cpi r17,lo8(10)
 978 035a 00F0      		brlo .L52
 979               		.loc 1 234 9 view .LVU164
 980 035c 59E0      		ldi r21,lo8(9)
 981               	.L52:
 982               	.LVL82:
 235:interpretacjaSMS.c **** 
 236:interpretacjaSMS.c ****   for (uchar i = 0; i < copy_count && i < rozmiar_bufora - 1; i++) {
 983               		.loc 1 236 3 is_stmt 1 view .LVU165
 984               	.LBB26:
 985               		.loc 1 236 8 view .LVU166
 986               		.loc 1 236 8 is_stmt 0 view .LVU167
 987               	.LBE26:
 233:interpretacjaSMS.c ****   uchar copy_count = (digit_count > 9) ? 9 : digit_count;
 988               		.loc 1 233 9 view .LVU168
 989 035e 812F      		mov r24,r17
 990 0360 1930      		cpi r17,lo8(9)
 991 0362 00F4      		brsh .L53
 233:interpretacjaSMS.c ****   uchar copy_count = (digit_count > 9) ? 9 : digit_count;
 992               		.loc 1 233 9 view .LVU169
 993 0364 89E0      		ldi r24,lo8(9)
 994               	.L53:
 995 0366 8950      		subi r24,9
 996 0368 990B      		sbc r25,r25
 997 036a A1E0      		ldi r26,lo8(1)
 998 036c B0E0      		ldi r27,0
 999 036e AC0F      		add r26,r28
 1000 0370 BD1F      		adc r27,r29
 1001 0372 A80F      		add r26,r24
 1002 0374 B91F      		adc r27,r25
 1003 0376 C601      		movw r24,r12
 1004               	.LBB27:
 1005               		.loc 1 236 3 view .LVU170
 1006 0378 30E0      		ldi r19,0
 1007 037a 20E0      		ldi r18,0
 1008               		.loc 1 236 58 view .LVU171
 1009 037c 0150      		subi r16,1
 1010 037e 110B      		sbc r17,r17
 1011               	.LVL83:
 1012               	.L54:
 1013               		.loc 1 236 21 is_stmt 1 discriminator 1 view .LVU172
 1014               		.loc 1 236 3 is_stmt 0 discriminator 1 view .LVU173
 1015 0380 2517      		cp r18,r21
 1016 0382 00F4      		brsh .L58
 1017               		.loc 1 236 36 discriminator 3 view .LVU174
 1018 0384 2017      		cp r18,r16
 1019 0386 3107      		cpc r19,r17
 1020 0388 04F0      		brlt .L59
 1021               	.L58:
 1022               	.LBE27:
 237:interpretacjaSMS.c ****     buf_telefon[i] = temp_digits[start_pos + i];
 238:interpretacjaSMS.c ****   }
 239:interpretacjaSMS.c ****   buf_telefon[copy_count] = '\0';
 1023               		.loc 1 239 3 is_stmt 1 view .LVU175
 1024               		.loc 1 239 27 is_stmt 0 view .LVU176
 1025 038a F601      		movw r30,r12
 1026 038c E50F      		add r30,r21
 1027 038e F11D      		adc r31,__zero_reg__
 1028 0390 1082      		st Z,__zero_reg__
 240:interpretacjaSMS.c **** 
 241:interpretacjaSMS.c ****   if (buf_telefon[0] != '\0') {
 1029               		.loc 1 241 3 is_stmt 1 view .LVU177
 1030               		.loc 1 241 18 is_stmt 0 view .LVU178
 1031 0392 F601      		movw r30,r12
 1032 0394 8081      		ld r24,Z
 1033               		.loc 1 241 6 view .LVU179
 1034 0396 8823      		tst r24
 1035 0398 01F0      		breq .L46
 242:interpretacjaSMS.c ****     *buf_sms = tel;
 1036               		.loc 1 242 5 is_stmt 1 view .LVU180
 1037               		.loc 1 242 14 is_stmt 0 view .LVU181
 1038 039a F701      		movw r30,r14
 1039 039c 8082      		st Z,r8
 1040 039e 9182      		std Z+1,r9
 243:interpretacjaSMS.c ****     return TRUE;
 1041               		.loc 1 243 5 is_stmt 1 view .LVU182
 1042               		.loc 1 243 12 is_stmt 0 view .LVU183
 1043 03a0 8FEF      		ldi r24,lo8(-1)
 1044               	.L46:
 1045               	/* epilogue start */
 244:interpretacjaSMS.c ****   } else
 245:interpretacjaSMS.c ****     return FALSE;
 246:interpretacjaSMS.c **** }
 1046               		.loc 1 246 1 view .LVU184
 1047 03a2 6496      		adiw r28,20
 1048 03a4 0FB6      		in __tmp_reg__,__SREG__
 1049 03a6 F894      		cli
 1050 03a8 DEBF      		out __SP_H__,r29
 1051 03aa 0FBE      		out __SREG__,__tmp_reg__
 1052 03ac CDBF      		out __SP_L__,r28
 1053 03ae DF91      		pop r29
 1054 03b0 CF91      		pop r28
 1055 03b2 1F91      		pop r17
 1056               	.LVL84:
 1057               		.loc 1 246 1 view .LVU185
 1058 03b4 0F91      		pop r16
 1059 03b6 FF90      		pop r15
 1060 03b8 EF90      		pop r14
 1061               	.LVL85:
 1062               		.loc 1 246 1 view .LVU186
 1063 03ba DF90      		pop r13
 1064 03bc CF90      		pop r12
 1065               	.LVL86:
 1066               		.loc 1 246 1 view .LVU187
 1067 03be BF90      		pop r11
 1068 03c0 AF90      		pop r10
 1069 03c2 9F90      		pop r9
 1070 03c4 8F90      		pop r8
 1071               	.LVL87:
 1072               		.loc 1 246 1 view .LVU188
 1073 03c6 0895      		ret
 1074               	.LVL88:
 1075               	.L48:
 205:interpretacjaSMS.c ****   const uchar *tel = *buf_sms;
 1076               		.loc 1 205 3 is_stmt 1 discriminator 2 view .LVU189
 1077 03c8 8FEF      		ldi r24,-1
 1078 03ca A81A      		sub r10,r24
 1079 03cc B80A      		sbc r11,r24
 1080 03ce F701      		movw r30,r14
 1081 03d0 B182      		std Z+1,r11
 1082 03d2 A082      		st Z,r10
 1083 03d4 00C0      		rjmp .L47
 1084               	.LVL89:
 1085               	.L51:
 226:interpretacjaSMS.c ****       temp_digits[digit_count++] = *tel;
 1086               		.loc 1 226 5 view .LVU190
 226:interpretacjaSMS.c ****       temp_digits[digit_count++] = *tel;
 1087               		.loc 1 226 9 is_stmt 0 view .LVU191
 1088 03d6 F501      		movw r30,r10
 1089 03d8 3197      		sbiw r30,1
 1090 03da 8081      		ld r24,Z
 226:interpretacjaSMS.c ****       temp_digits[digit_count++] = *tel;
 1091               		.loc 1 226 21 view .LVU192
 1092 03dc 90ED      		ldi r25,lo8(-48)
 1093 03de 980F      		add r25,r24
 226:interpretacjaSMS.c ****       temp_digits[digit_count++] = *tel;
 1094               		.loc 1 226 8 view .LVU193
 1095 03e0 9A30      		cpi r25,lo8(10)
 1096 03e2 00F0      		brlo .+2
 1097 03e4 00C0      		rjmp .L49
 227:interpretacjaSMS.c ****     }
 1098               		.loc 1 227 7 is_stmt 1 view .LVU194
 1099               	.LVL90:
 227:interpretacjaSMS.c ****     }
 1100               		.loc 1 227 34 is_stmt 0 view .LVU195
 1101 03e6 E1E0      		ldi r30,lo8(1)
 1102 03e8 F0E0      		ldi r31,0
 1103 03ea EC0F      		add r30,r28
 1104 03ec FD1F      		adc r31,r29
 1105 03ee E10F      		add r30,r17
 1106 03f0 F11D      		adc r31,__zero_reg__
 1107 03f2 8083      		st Z,r24
 227:interpretacjaSMS.c ****     }
 1108               		.loc 1 227 30 view .LVU196
 1109 03f4 1F5F      		subi r17,lo8(-(1))
 1110               	.LVL91:
 229:interpretacjaSMS.c ****   }
 1111               		.loc 1 229 5 is_stmt 1 view .LVU197
 229:interpretacjaSMS.c ****   }
 1112               		.loc 1 229 5 is_stmt 0 view .LVU198
 1113 03f6 00C0      		rjmp .L49
 1114               	.LVL92:
 1115               	.L59:
 1116               	.LBB28:
 237:interpretacjaSMS.c ****   }
 1117               		.loc 1 237 5 is_stmt 1 discriminator 4 view .LVU199
 237:interpretacjaSMS.c ****   }
 1118               		.loc 1 237 33 is_stmt 0 discriminator 4 view .LVU200
 1119 03f8 4D91      		ld r20,X+
 237:interpretacjaSMS.c ****   }
 1120               		.loc 1 237 20 discriminator 4 view .LVU201
 1121 03fa FC01      		movw r30,r24
 1122 03fc 4193      		st Z+,r20
 1123 03fe CF01      		movw r24,r30
 236:interpretacjaSMS.c ****     buf_telefon[i] = temp_digits[start_pos + i];
 1124               		.loc 1 236 63 is_stmt 1 discriminator 4 view .LVU202
 1125               	.LVL93:
 236:interpretacjaSMS.c ****     buf_telefon[i] = temp_digits[start_pos + i];
 1126               		.loc 1 236 63 is_stmt 0 discriminator 4 view .LVU203
 1127 0400 2F5F      		subi r18,-1
 1128 0402 3F4F      		sbci r19,-1
 1129               	.LVL94:
 236:interpretacjaSMS.c ****     buf_telefon[i] = temp_digits[start_pos + i];
 1130               		.loc 1 236 63 discriminator 4 view .LVU204
 1131 0404 00C0      		rjmp .L54
 1132               	.LBE28:
 1133               		.cfi_endproc
 1134               	.LFE16:
 1136               		.section	.rodata.str1.1,"aMS",@progbits,1
 1137               	.LC0:
 1138 0000 5354 414E 		.string	"STAN"
 1138      00
 1139               	.LC1:
 1140 0005 2B34 3837 		.string	"+48793557357"
 1140      3933 3535 
 1140      3733 3537 
 1140      00
 1141               	.LC2:
 1142 0012 2B43 5553 		.string	"+CUSD=1,\"%s\",15"
 1142      443D 312C 
 1142      2225 7322 
 1142      2C31 3500 
 1143               		.text
 1144               	.global	interpretuj_wiadomosc_sms
 1146               	interpretuj_wiadomosc_sms:
 1147               	.LVL95:
 1148               	.LFB17:
 247:interpretacjaSMS.c **** 
 248:interpretacjaSMS.c **** uchar interpretuj_wiadomosc_sms(const uchar *sms) {
 1149               		.loc 1 248 51 is_stmt 1 view -0
 1150               		.cfi_startproc
 1151               		.loc 1 248 51 is_stmt 0 view .LVU206
 1152 0406 9F92      		push r9
 1153               	.LCFI58:
 1154               		.cfi_def_cfa_offset 3
 1155               		.cfi_offset 9, -2
 1156 0408 AF92      		push r10
 1157               	.LCFI59:
 1158               		.cfi_def_cfa_offset 4
 1159               		.cfi_offset 10, -3
 1160 040a BF92      		push r11
 1161               	.LCFI60:
 1162               		.cfi_def_cfa_offset 5
 1163               		.cfi_offset 11, -4
 1164 040c CF92      		push r12
 1165               	.LCFI61:
 1166               		.cfi_def_cfa_offset 6
 1167               		.cfi_offset 12, -5
 1168 040e DF92      		push r13
 1169               	.LCFI62:
 1170               		.cfi_def_cfa_offset 7
 1171               		.cfi_offset 13, -6
 1172 0410 EF92      		push r14
 1173               	.LCFI63:
 1174               		.cfi_def_cfa_offset 8
 1175               		.cfi_offset 14, -7
 1176 0412 FF92      		push r15
 1177               	.LCFI64:
 1178               		.cfi_def_cfa_offset 9
 1179               		.cfi_offset 15, -8
 1180 0414 0F93      		push r16
 1181               	.LCFI65:
 1182               		.cfi_def_cfa_offset 10
 1183               		.cfi_offset 16, -9
 1184 0416 1F93      		push r17
 1185               	.LCFI66:
 1186               		.cfi_def_cfa_offset 11
 1187               		.cfi_offset 17, -10
 1188 0418 CF93      		push r28
 1189               	.LCFI67:
 1190               		.cfi_def_cfa_offset 12
 1191               		.cfi_offset 28, -11
 1192 041a DF93      		push r29
 1193               	.LCFI68:
 1194               		.cfi_def_cfa_offset 13
 1195               		.cfi_offset 29, -12
 1196 041c 00D0      		rcall .
 1197 041e 00D0      		rcall .
 1198 0420 00D0      		rcall .
 1199 0422 0F92      		push __tmp_reg__
 1200               	.LCFI69:
 1201               		.cfi_def_cfa_offset 20
 1202 0424 CDB7      		in r28,__SP_L__
 1203 0426 DEB7      		in r29,__SP_H__
 1204               	.LCFI70:
 1205               		.cfi_def_cfa_register 28
 1206               	/* prologue: function */
 1207               	/* frame size = 7 */
 1208               	/* stack size = 18 */
 1209               	.L__stack_usage = 18
 1210 0428 9F83      		std Y+7,r25
 1211 042a 8E83      		std Y+6,r24
 249:interpretacjaSMS.c ****   /* Bezpieczna kopia do bufora roboczego (unikaj odczytu poza bufor SMS). */
 250:interpretacjaSMS.c ****   size_t sms_len = strlen((const char *)sms);
 1212               		.loc 1 250 3 is_stmt 1 view .LVU207
 1213               		.loc 1 250 20 is_stmt 0 view .LVU208
 1214 042c 7C01      		movw r14,r24
 1215 042e FC01      		movw r30,r24
 1216               		0:
 1217 0430 0190      		ld __tmp_reg__,Z+
 1218 0432 0020      		tst __tmp_reg__
 1219 0434 01F4      		brne 0b
 1220 0436 3197      		sbiw r30,1
 1221               	.LVL96:
 251:interpretacjaSMS.c ****   if (sms_len >= MAX_BUFOR_EEPROM)
 1222               		.loc 1 251 3 is_stmt 1 view .LVU209
 1223 0438 8F01      		movw r16,r30
 1224 043a 081B      		sub r16,r24
 1225 043c 190B      		sbc r17,r25
 1226               	.LVL97:
 1227               		.loc 1 251 3 is_stmt 0 view .LVU210
 1228 043e 0233      		cpi r16,50
 1229 0440 1105      		cpc r17,__zero_reg__
 1230 0442 00F0      		brlo .L71
 1231 0444 01E3      		ldi r16,lo8(49)
 1232 0446 10E0      		ldi r17,0
 1233               	.LVL98:
 1234               	.L71:
 252:interpretacjaSMS.c ****     sms_len = MAX_BUFOR_EEPROM - 1;
 253:interpretacjaSMS.c ****   memcpy(bufor_eeprom, sms, sms_len);
 1235               		.loc 1 253 3 is_stmt 1 view .LVU211
 1236 0448 A801      		movw r20,r16
 1237 044a B701      		movw r22,r14
 1238 044c 80E0      		ldi r24,lo8(bufor_eeprom)
 1239 044e 90E0      		ldi r25,hi8(bufor_eeprom)
 1240               	.LVL99:
 1241               		.loc 1 253 3 is_stmt 0 view .LVU212
 1242 0450 0E94 0000 		call memcpy
 1243               	.LVL100:
 254:interpretacjaSMS.c ****   bufor_eeprom[sms_len] = '\0';
 1244               		.loc 1 254 3 is_stmt 1 view .LVU213
 1245               		.loc 1 254 25 is_stmt 0 view .LVU214
 1246 0454 F801      		movw r30,r16
 1247 0456 E050      		subi r30,lo8(-(bufor_eeprom))
 1248 0458 F040      		sbci r31,hi8(-(bufor_eeprom))
 1249 045a 1082      		st Z,__zero_reg__
 255:interpretacjaSMS.c ****   const uchar *sms_pom = sms;
 1250               		.loc 1 255 3 is_stmt 1 view .LVU215
 1251               	.LVL101:
 1252               	.LBB29:
 256:interpretacjaSMS.c **** 
 257:interpretacjaSMS.c ****   // --- SEKCJA SPECJALNA: KOMENDY BEZ PINU (Dla Numeru Serwisowego) ---
 258:interpretacjaSMS.c ****   // Sprawdz czy SMS to komenda "STAN" wysłana z numeru zdefiniowanego w
 259:interpretacjaSMS.c ****   // SERVICE_PHONE_NUMBER
 260:interpretacjaSMS.c ****   {
 261:interpretacjaSMS.c ****     const uchar *ptr_check = sms;
 1253               		.loc 1 261 5 view .LVU216
 262:interpretacjaSMS.c ****     przeskocz_biale_znaki(ptr_check);
 1254               		.loc 1 262 5 view .LVU217
 1255 045c 5701      		movw r10,r14
 1256               	.LVL102:
 1257               	.L72:
 1258               		.loc 1 262 5 discriminator 1 view .LVU218
 1259 045e F501      		movw r30,r10
 1260 0460 8191      		ld r24,Z+
 1261 0462 8F01      		movw r16,r30
 1262 0464 90E0      		ldi r25,0
 1263 0466 0E94 0000 		call isspace
 1264               	.LVL103:
 1265 046a 892B      		or r24,r25
 1266 046c 01F4      		brne .L114
 1267 046e CE01      		movw r24,r28
 1268 0470 0196      		adiw r24,1
 1269 0472 6C01      		movw r12,r24
 1270               		.loc 1 262 5 is_stmt 0 view .LVU219
 1271 0474 8501      		movw r16,r10
 1272 0476 5C01      		movw r10,r24
 1273               	.LVL104:
 1274               	.LBB30:
 263:interpretacjaSMS.c ****     // Sprawdz czy zaczyna sie od "STAN" (case insensitive logic needed or
 264:interpretacjaSMS.c ****     // strict?) Uzyjemy strncasecmp_P jesli dostepne lub proste porownanie
 265:interpretacjaSMS.c ****     // Zrobmy kopie lokalna do uppercase zeby latwiej porownac pierwsze 4 znaki
 266:interpretacjaSMS.c ****     uchar temp_cmd[5];
 267:interpretacjaSMS.c ****     uchar valid_cmd = TRUE;
 268:interpretacjaSMS.c ****     for (uchar i = 0; i < 4; ++i) {
 1275               		.loc 1 268 5 view .LVU220
 1276 0478 84E0      		ldi r24,lo8(4)
 1277 047a 982E      		mov r9,r24
 1278 047c 900E      		add r9,r16
 1279               	.L74:
 1280               	.LVL105:
 269:interpretacjaSMS.c ****       if (ptr_check[i] == '\0') {
 1281               		.loc 1 269 7 is_stmt 1 view .LVU221
 1282               		.loc 1 269 20 is_stmt 0 view .LVU222
 1283 047e F801      		movw r30,r16
 1284 0480 8191      		ld r24,Z+
 1285 0482 8F01      		movw r16,r30
 1286               		.loc 1 269 10 view .LVU223
 1287 0484 8823      		tst r24
 1288 0486 01F0      		breq .L73
 270:interpretacjaSMS.c ****         valid_cmd = FALSE;
 271:interpretacjaSMS.c ****         break;
 272:interpretacjaSMS.c ****       }
 273:interpretacjaSMS.c ****       temp_cmd[i] = toupper(ptr_check[i]);
 1289               		.loc 1 273 7 is_stmt 1 discriminator 2 view .LVU224
 1290               		.loc 1 273 21 is_stmt 0 discriminator 2 view .LVU225
 1291 0488 90E0      		ldi r25,0
 1292 048a 0E94 0000 		call toupper
 1293               	.LVL106:
 1294               		.loc 1 273 19 discriminator 2 view .LVU226
 1295 048e F601      		movw r30,r12
 1296 0490 8193      		st Z+,r24
 1297 0492 6F01      		movw r12,r30
 268:interpretacjaSMS.c ****       if (ptr_check[i] == '\0') {
 1298               		.loc 1 268 30 is_stmt 1 discriminator 2 view .LVU227
 268:interpretacjaSMS.c ****       if (ptr_check[i] == '\0') {
 1299               		.loc 1 268 23 discriminator 2 view .LVU228
 268:interpretacjaSMS.c ****       if (ptr_check[i] == '\0') {
 1300               		.loc 1 268 5 is_stmt 0 discriminator 2 view .LVU229
 1301 0494 9012      		cpse r9,r16
 1302 0496 00C0      		rjmp .L74
 1303               	.LBE30:
 267:interpretacjaSMS.c ****     for (uchar i = 0; i < 4; ++i) {
 1304               		.loc 1 267 11 view .LVU230
 1305 0498 8FEF      		ldi r24,lo8(-1)
 1306               	.L73:
 1307               	.LVL107:
 274:interpretacjaSMS.c ****     }
 275:interpretacjaSMS.c ****     temp_cmd[4] = '\0';
 1308               		.loc 1 275 5 is_stmt 1 view .LVU231
 1309               		.loc 1 275 17 is_stmt 0 view .LVU232
 1310 049a 1D82      		std Y+5,__zero_reg__
 276:interpretacjaSMS.c **** 
 277:interpretacjaSMS.c ****     if (valid_cmd && strcmp(temp_cmd, "STAN") == 0) {
 1311               		.loc 1 277 5 is_stmt 1 view .LVU233
 1312               		.loc 1 277 8 is_stmt 0 view .LVU234
 1313 049c 8823      		tst r24
 1314 049e 01F0      		breq .L75
 1315               		.loc 1 277 22 discriminator 1 view .LVU235
 1316 04a0 60E0      		ldi r22,lo8(.LC0)
 1317 04a2 70E0      		ldi r23,hi8(.LC0)
 1318 04a4 C501      		movw r24,r10
 1319 04a6 0E94 0000 		call strcmp
 1320               	.LVL108:
 1321               		.loc 1 277 19 discriminator 1 view .LVU236
 1322 04aa 892B      		or r24,r25
 1323 04ac 01F4      		brne .L75
 278:interpretacjaSMS.c ****       // Komenda to STAN. Sprawdz nadawce.
 279:interpretacjaSMS.c ****       if (strstr((char *)numer_telefonu_odebranego_smsa,
 1324               		.loc 1 279 7 is_stmt 1 view .LVU237
 1325               		.loc 1 279 11 is_stmt 0 view .LVU238
 1326 04ae 60E0      		ldi r22,lo8(.LC1)
 1327 04b0 70E0      		ldi r23,hi8(.LC1)
 1328 04b2 80E0      		ldi r24,lo8(numer_telefonu_odebranego_smsa)
 1329 04b4 90E0      		ldi r25,hi8(numer_telefonu_odebranego_smsa)
 1330 04b6 0E94 0000 		call strstr
 1331               	.LVL109:
 1332               		.loc 1 279 10 view .LVU239
 1333 04ba 892B      		or r24,r25
 1334 04bc 01F0      		breq .L75
 1335               	.L84:
 1336               	.LBE29:
 280:interpretacjaSMS.c ****                  SERVICE_PHONE_NUMBER) != NULL) {
 281:interpretacjaSMS.c ****         return INTERPRETACJA_SMS_STAN;
 282:interpretacjaSMS.c ****       }
 283:interpretacjaSMS.c ****     }
 284:interpretacjaSMS.c ****   }
 285:interpretacjaSMS.c ****   // -------------------------------------------------------------------
 286:interpretacjaSMS.c **** 
 287:interpretacjaSMS.c ****   if (!sprawdz_kod(&sms)) {
 288:interpretacjaSMS.c ****     if (sprawdz_reset_ustawien(sms))
 289:interpretacjaSMS.c ****       return INTERPRETACJA_SMS_RESET_WSZYSTKICH_USTAWIEN;
 290:interpretacjaSMS.c ****     return INTERPRETACJA_SMS_BRAK_KODU;
 291:interpretacjaSMS.c ****   }
 292:interpretacjaSMS.c ****   { // mona wstawi ten kod do kolejki i w nastpnym kroku interpretowa
 293:interpretacjaSMS.c ****     for (uchar *ptr = (uchar *)sms; *ptr != '\0'; ++ptr)
 294:interpretacjaSMS.c ****       *ptr = toupper(*ptr);
 295:interpretacjaSMS.c ****   }
 296:interpretacjaSMS.c **** 
 297:interpretacjaSMS.c ****   switch (
 298:interpretacjaSMS.c ****       interpretuj_instrukcje_sms(&sms, INSTRUKCJA_CODE, INSTRUKCJA_SYS + 1)) {
 299:interpretacjaSMS.c **** 
 300:interpretacjaSMS.c ****   case INSTRUKCJA_CODE: {
 301:interpretacjaSMS.c ****     przeskocz_biale_znaki(sms);
 302:interpretacjaSMS.c ****     for (uchar i = 0; i < LICZBA_BAJTOW_KODU_DOSTEPU; ++i) {
 303:interpretacjaSMS.c ****       const uchar znak = bufor_eeprom[(sms - sms_pom) + i];
 304:interpretacjaSMS.c ****       if (not((znak >= 'A' && znak <= 'Z') || (znak >= '0' && znak <= '9')))
 305:interpretacjaSMS.c ****         return INTERPRETACJA_SMS_BLEDNE_DANE;
 306:interpretacjaSMS.c ****     }
 307:interpretacjaSMS.c ****     memcpy(kod_modulu, bufor_eeprom + (sms - sms_pom),
 308:interpretacjaSMS.c ****            LICZBA_BAJTOW_KODU_DOSTEPU);
 309:interpretacjaSMS.c ****     zapisz_znaki_w_eeprom(bufor_eeprom + (sms - sms_pom),
 310:interpretacjaSMS.c ****                           (uint)ADRES_EEPROM_KOD_DOSTEPU,
 311:interpretacjaSMS.c ****                           LICZBA_BAJTOW_KODU_DOSTEPU);
 312:interpretacjaSMS.c ****     return INTERPRETACJA_SMS_POPRAWNY;
 313:interpretacjaSMS.c ****   }
 314:interpretacjaSMS.c ****   case INSTRUKCJA_REPORT: {
 315:interpretacjaSMS.c ****     return INTERPRETACJA_SMS_RAPORT;
 316:interpretacjaSMS.c ****   }
 317:interpretacjaSMS.c ****   case INSTRUKCJA_STAN: {
 318:interpretacjaSMS.c ****     return INTERPRETACJA_SMS_STAN;
 1337               		.loc 1 318 12 view .LVU240
 1338 04be 10E1      		ldi r17,lo8(16)
 1339               	.L70:
 319:interpretacjaSMS.c ****   }
 320:interpretacjaSMS.c ****   case INSTRUKCJA_SYS: {
 321:interpretacjaSMS.c ****     // USUNIĘTA - dane przeniesione do REPORT
 322:interpretacjaSMS.c ****     return INTERPRETACJA_SMS_BLEDNE_DANE;
 323:interpretacjaSMS.c ****   }
 324:interpretacjaSMS.c ****   case INSTRUKCJA_USER: {
 325:interpretacjaSMS.c ****     // Komenda USER ma działać wyłącznie z podanym numerem.
 326:interpretacjaSMS.c ****     // Przykład: USER +48505691117 E C B R [K]
 327:interpretacjaSMS.c ****     if (pobierz_numer_telefonu(&sms, &numer_telefonu_do_ktorego_dzwonic[0], 14))
 328:interpretacjaSMS.c ****       return INTERPRETACJA_SMS_USER;
 329:interpretacjaSMS.c **** 
 330:interpretacjaSMS.c ****     // Brak numeru po "USER" – wyślij informację z instrukcją użycia,
 331:interpretacjaSMS.c ****     // zamiast pełnej listy użytkowników.
 332:interpretacjaSMS.c ****     return INTERPRETACJA_SMS_USER_BEZ_NUMERU;
 333:interpretacjaSMS.c ****   }
 334:interpretacjaSMS.c ****   case INSTRUKCJA_ADD: {
 335:interpretacjaSMS.c ****     if (not pobierz_numer_telefonu(&sms, &numer_telefonu_do_ktorego_dzwonic[0],
 336:interpretacjaSMS.c ****                                    14))
 337:interpretacjaSMS.c ****       return INTERPRETACJA_SMS_BLEDNE_DANE;
 338:interpretacjaSMS.c ****     dodaj_komende(KOMENDA_KOLEJKI_DODAJ_UZYTKOWNIKA_BRAMA);
 339:interpretacjaSMS.c ****     return INTERPRETACJA_SMS_POPRAWNY;
 340:interpretacjaSMS.c ****   }
 341:interpretacjaSMS.c ****   case INSTRUKCJA_DEL: {
 342:interpretacjaSMS.c ****     if (not pobierz_numer_telefonu(&sms, &numer_telefonu_do_ktorego_dzwonic[0],
 343:interpretacjaSMS.c ****                                    14))
 344:interpretacjaSMS.c ****       return INTERPRETACJA_SMS_BLEDNE_DANE;
 345:interpretacjaSMS.c ****     dodaj_komende(KOMENDA_KOLEJKI_USUN_UZYTKOWNIKA_BRAMA);
 346:interpretacjaSMS.c ****     return INTERPRETACJA_SMS_POPRAWNY;
 347:interpretacjaSMS.c ****   }
 348:interpretacjaSMS.c ****   case INSTRUKCJA_RESET: {
 349:interpretacjaSMS.c ****     return INTERPRETACJA_SMS_RESET_WSZYSTKICH_USTAWIEN;
 350:interpretacjaSMS.c ****   }
 351:interpretacjaSMS.c ****   case INSTRUKCJA_OPEN: {
 352:interpretacjaSMS.c ****     const uchar podtryb =
 353:interpretacjaSMS.c ****         interpretuj_instrukcje_sms(&sms, INSTRUKCJA_CLIP, INSTRUKCJA_SMS + 1);
 354:interpretacjaSMS.c ****     if (podtryb == INSTRUKCJA_CLIP) {
 355:interpretacjaSMS.c ****       tryb_pracy = 1; // Publiczny
 356:interpretacjaSMS.c ****       zapisz_znak_w_eeprom(1, ADRES_EEPROM_TRYB_PRACY);
 357:interpretacjaSMS.c **** 
 358:interpretacjaSMS.c ****       tryb_clip = TRUE;
 359:interpretacjaSMS.c ****       zapisz_znak_w_eeprom(1, ADRES_EEPROM_TRYB_CLIP_DTMF);
 360:interpretacjaSMS.c **** 
 361:interpretacjaSMS.c ****       // Exclusive mode: CLIP -> SMS OFF
 362:interpretacjaSMS.c ****       sms_trigger = FALSE;
 363:interpretacjaSMS.c ****       zapisz_znak_w_eeprom(0, ADRES_EEPROM_SMS_TRIGGER);
 364:interpretacjaSMS.c ****       wymus_wylaczenie_wyjscia();
 365:interpretacjaSMS.c ****       return INTERPRETACJA_SMS_POPRAWNY;
 366:interpretacjaSMS.c ****     } else if (podtryb == INSTRUKCJA_DTMF) {
 367:interpretacjaSMS.c ****       tryb_pracy = 1; // Publiczny
 368:interpretacjaSMS.c ****       zapisz_znak_w_eeprom(1, ADRES_EEPROM_TRYB_PRACY);
 369:interpretacjaSMS.c **** 
 370:interpretacjaSMS.c ****       tryb_clip = FALSE; // DTMF
 371:interpretacjaSMS.c ****       zapisz_znak_w_eeprom(0, ADRES_EEPROM_TRYB_CLIP_DTMF);
 372:interpretacjaSMS.c **** 
 373:interpretacjaSMS.c ****       // W trybie DTMF - SMS Trigger domyślnie OFF (zgodnie z logiką
 374:interpretacjaSMS.c ****       // wyłączności)
 375:interpretacjaSMS.c ****       sms_trigger = FALSE;
 376:interpretacjaSMS.c ****       zapisz_znak_w_eeprom(0, ADRES_EEPROM_SMS_TRIGGER);
 377:interpretacjaSMS.c **** 
 378:interpretacjaSMS.c ****       wymus_wylaczenie_wyjscia();
 379:interpretacjaSMS.c ****       return INTERPRETACJA_SMS_POPRAWNY;
 380:interpretacjaSMS.c ****     } else if (podtryb == INSTRUKCJA_SMS) {
 381:interpretacjaSMS.c ****       tryb_pracy = 1; // Publiczny
 382:interpretacjaSMS.c ****       zapisz_znak_w_eeprom(1, ADRES_EEPROM_TRYB_PRACY);
 383:interpretacjaSMS.c **** 
 384:interpretacjaSMS.c ****       tryb_clip = FALSE; // CLIP OFF
 385:interpretacjaSMS.c ****       zapisz_znak_w_eeprom(0, ADRES_EEPROM_TRYB_CLIP_DTMF);
 386:interpretacjaSMS.c **** 
 387:interpretacjaSMS.c ****       sms_trigger = TRUE;
 388:interpretacjaSMS.c ****       zapisz_znak_w_eeprom(1, ADRES_EEPROM_SMS_TRIGGER);
 389:interpretacjaSMS.c ****       wymus_wylaczenie_wyjscia();
 390:interpretacjaSMS.c ****       return INTERPRETACJA_SMS_POPRAWNY;
 391:interpretacjaSMS.c ****       return INTERPRETACJA_SMS_POPRAWNY;
 392:interpretacjaSMS.c ****     } else if (podtryb == INSTRUKCJA_SMS_CLIP) {
 393:interpretacjaSMS.c ****       tryb_pracy = 1; // Publiczny
 394:interpretacjaSMS.c ****       zapisz_znak_w_eeprom(1, ADRES_EEPROM_TRYB_PRACY);
 395:interpretacjaSMS.c **** 
 396:interpretacjaSMS.c ****       tryb_clip = TRUE;
 397:interpretacjaSMS.c ****       zapisz_znak_w_eeprom(1, ADRES_EEPROM_TRYB_CLIP_DTMF);
 398:interpretacjaSMS.c **** 
 399:interpretacjaSMS.c ****       sms_trigger = TRUE;
 400:interpretacjaSMS.c ****       zapisz_znak_w_eeprom(1, ADRES_EEPROM_SMS_TRIGGER);
 401:interpretacjaSMS.c **** 
 402:interpretacjaSMS.c ****       wymus_wylaczenie_wyjscia();
 403:interpretacjaSMS.c ****       return INTERPRETACJA_SMS_POPRAWNY;
 404:interpretacjaSMS.c ****     } else {
 405:interpretacjaSMS.c ****       // Domyślnie: "OPEN" bez parametru = OPEN CLIP (publiczny + CLIP, SMS OFF)
 406:interpretacjaSMS.c ****       tryb_pracy = 1; // Publiczny
 407:interpretacjaSMS.c ****       zapisz_znak_w_eeprom(1, ADRES_EEPROM_TRYB_PRACY);
 408:interpretacjaSMS.c **** 
 409:interpretacjaSMS.c ****       tryb_clip = TRUE;
 410:interpretacjaSMS.c ****       zapisz_znak_w_eeprom(1, ADRES_EEPROM_TRYB_CLIP_DTMF);
 411:interpretacjaSMS.c **** 
 412:interpretacjaSMS.c ****       sms_trigger = FALSE;
 413:interpretacjaSMS.c ****       zapisz_znak_w_eeprom(0, ADRES_EEPROM_SMS_TRIGGER);
 414:interpretacjaSMS.c ****       wymus_wylaczenie_wyjscia();
 415:interpretacjaSMS.c ****       return INTERPRETACJA_SMS_POPRAWNY;
 416:interpretacjaSMS.c ****     }
 417:interpretacjaSMS.c ****   }
 418:interpretacjaSMS.c ****   case INSTRUKCJA_CLOSE: {
 419:interpretacjaSMS.c ****     const uchar podtryb =
 420:interpretacjaSMS.c ****         interpretuj_instrukcje_sms(&sms, INSTRUKCJA_CLIP, INSTRUKCJA_SMS + 1);
 421:interpretacjaSMS.c ****     if (podtryb == INSTRUKCJA_CLIP) {
 422:interpretacjaSMS.c ****       tryb_pracy = 0; // Prywatny
 423:interpretacjaSMS.c ****       zapisz_znak_w_eeprom(0, ADRES_EEPROM_TRYB_PRACY);
 424:interpretacjaSMS.c **** 
 425:interpretacjaSMS.c ****       tryb_clip = TRUE;
 426:interpretacjaSMS.c ****       zapisz_znak_w_eeprom(1, ADRES_EEPROM_TRYB_CLIP_DTMF);
 427:interpretacjaSMS.c **** 
 428:interpretacjaSMS.c ****       // Exclusive mode: CLIP -> SMS OFF
 429:interpretacjaSMS.c ****       sms_trigger = FALSE;
 430:interpretacjaSMS.c ****       zapisz_znak_w_eeprom(0, ADRES_EEPROM_SMS_TRIGGER);
 431:interpretacjaSMS.c ****       wymus_wylaczenie_wyjscia();
 432:interpretacjaSMS.c ****       return INTERPRETACJA_SMS_POPRAWNY;
 433:interpretacjaSMS.c ****     } else if (podtryb == INSTRUKCJA_DTMF) {
 434:interpretacjaSMS.c ****       tryb_pracy = 0; // Prywatny
 435:interpretacjaSMS.c ****       zapisz_znak_w_eeprom(0, ADRES_EEPROM_TRYB_PRACY);
 436:interpretacjaSMS.c **** 
 437:interpretacjaSMS.c ****       tryb_clip = FALSE; // DTMF
 438:interpretacjaSMS.c ****       zapisz_znak_w_eeprom(0, ADRES_EEPROM_TRYB_CLIP_DTMF);
 439:interpretacjaSMS.c **** 
 440:interpretacjaSMS.c ****       sms_trigger = FALSE;
 441:interpretacjaSMS.c ****       zapisz_znak_w_eeprom(0, ADRES_EEPROM_SMS_TRIGGER);
 442:interpretacjaSMS.c **** 
 443:interpretacjaSMS.c ****       wymus_wylaczenie_wyjscia();
 444:interpretacjaSMS.c ****       return INTERPRETACJA_SMS_POPRAWNY;
 445:interpretacjaSMS.c ****     } else if (podtryb == INSTRUKCJA_SMS) {
 446:interpretacjaSMS.c ****       tryb_pracy = 0; // Prywatny
 447:interpretacjaSMS.c ****       zapisz_znak_w_eeprom(0, ADRES_EEPROM_TRYB_PRACY);
 448:interpretacjaSMS.c **** 
 449:interpretacjaSMS.c ****       tryb_clip = FALSE; // CLIP OFF
 450:interpretacjaSMS.c ****       zapisz_znak_w_eeprom(0, ADRES_EEPROM_TRYB_CLIP_DTMF);
 451:interpretacjaSMS.c **** 
 452:interpretacjaSMS.c ****       sms_trigger = TRUE;
 453:interpretacjaSMS.c ****       zapisz_znak_w_eeprom(1, ADRES_EEPROM_SMS_TRIGGER);
 454:interpretacjaSMS.c ****       wymus_wylaczenie_wyjscia();
 455:interpretacjaSMS.c ****       return INTERPRETACJA_SMS_POPRAWNY;
 456:interpretacjaSMS.c ****       return INTERPRETACJA_SMS_POPRAWNY;
 457:interpretacjaSMS.c ****     } else if (podtryb == INSTRUKCJA_SMS_CLIP) {
 458:interpretacjaSMS.c ****       tryb_pracy = 0; // Prywatny
 459:interpretacjaSMS.c ****       zapisz_znak_w_eeprom(0, ADRES_EEPROM_TRYB_PRACY);
 460:interpretacjaSMS.c **** 
 461:interpretacjaSMS.c ****       tryb_clip = TRUE;
 462:interpretacjaSMS.c ****       zapisz_znak_w_eeprom(1, ADRES_EEPROM_TRYB_CLIP_DTMF);
 463:interpretacjaSMS.c **** 
 464:interpretacjaSMS.c ****       sms_trigger = TRUE;
 465:interpretacjaSMS.c ****       zapisz_znak_w_eeprom(1, ADRES_EEPROM_SMS_TRIGGER);
 466:interpretacjaSMS.c **** 
 467:interpretacjaSMS.c ****       wymus_wylaczenie_wyjscia();
 468:interpretacjaSMS.c ****       return INTERPRETACJA_SMS_POPRAWNY;
 469:interpretacjaSMS.c ****     } else {
 470:interpretacjaSMS.c ****       // Domyślnie: "CLOSE" bez parametru = CLOSE CLIP (prywatny + CLIP, SMS OFF)
 471:interpretacjaSMS.c ****       tryb_pracy = 0; // Prywatny
 472:interpretacjaSMS.c ****       zapisz_znak_w_eeprom(0, ADRES_EEPROM_TRYB_PRACY);
 473:interpretacjaSMS.c **** 
 474:interpretacjaSMS.c ****       tryb_clip = TRUE;
 475:interpretacjaSMS.c ****       zapisz_znak_w_eeprom(1, ADRES_EEPROM_TRYB_CLIP_DTMF);
 476:interpretacjaSMS.c **** 
 477:interpretacjaSMS.c ****       sms_trigger = FALSE;
 478:interpretacjaSMS.c ****       zapisz_znak_w_eeprom(0, ADRES_EEPROM_SMS_TRIGGER);
 479:interpretacjaSMS.c ****       wymus_wylaczenie_wyjscia();
 480:interpretacjaSMS.c ****       return INTERPRETACJA_SMS_POPRAWNY;
 481:interpretacjaSMS.c ****     }
 482:interpretacjaSMS.c ****   }
 483:interpretacjaSMS.c ****   case INSTRUKCJA_SET: {
 484:interpretacjaSMS.c ****     // USUNIĘTA
 485:interpretacjaSMS.c ****     return INTERPRETACJA_SMS_BLEDNE_DANE;
 486:interpretacjaSMS.c ****   }
 487:interpretacjaSMS.c ****   case INSTRUKCJA_TIME: {
 488:interpretacjaSMS.c ****     // USUNIĘTA
 489:interpretacjaSMS.c ****     return INTERPRETACJA_SMS_BLEDNE_DANE;
 490:interpretacjaSMS.c ****   }
 491:interpretacjaSMS.c ****   case INSTRUKCJA_SKRYBA: {
 492:interpretacjaSMS.c ****     // Funkcja Skryba usunięta
 493:interpretacjaSMS.c ****     return INTERPRETACJA_SMS_BLEDNE_DANE; // Lub POPRAWNY, jesli chcemy
 494:interpretacjaSMS.c ****                                           // ignorowac cicho
 495:interpretacjaSMS.c ****   }
 496:interpretacjaSMS.c ****   case INSTRUKCJA_DEBUG: {
 497:interpretacjaSMS.c ****     // DEBUG wyłączony.
 498:interpretacjaSMS.c ****     return INTERPRETACJA_SMS_BLEDNE_DANE;
 499:interpretacjaSMS.c ****   }
 500:interpretacjaSMS.c ****   case INSTRUKCJA_SUB: {
 501:interpretacjaSMS.c ****     // USUNIĘTA - use ADD
 502:interpretacjaSMS.c ****     return INTERPRETACJA_SMS_BLEDNE_DANE;
 503:interpretacjaSMS.c ****   }
 504:interpretacjaSMS.c ****   case INSTRUKCJA_MYNUM: {
 505:interpretacjaSMS.c ****     // USUNIĘTA
 506:interpretacjaSMS.c ****     return INTERPRETACJA_SMS_BLEDNE_DANE;
 507:interpretacjaSMS.c ****   }
 508:interpretacjaSMS.c ****   case INSTRUKCJA_USSD: {
 509:interpretacjaSMS.c ****     // USSD *100# - wyślij zapytanie USSD
 510:interpretacjaSMS.c ****     przeskocz_biale_znaki(sms);
 511:interpretacjaSMS.c ****     if (*sms == '\0')
 512:interpretacjaSMS.c ****       return INTERPRETACJA_SMS_BLEDNE_DANE;
 513:interpretacjaSMS.c **** 
 514:interpretacjaSMS.c ****     // Wyślij AT+CUSD bezpośrednio do modemu
 515:interpretacjaSMS.c ****     extern uchar wysylany_blok_SIM900[];
 516:interpretacjaSMS.c ****     wysylany_blok_SIM900[0] = 'A';
 517:interpretacjaSMS.c ****     wysylany_blok_SIM900[1] = 'T';
 518:interpretacjaSMS.c ****     sprintf((char *)wysylany_blok_SIM900 + 2, "+CUSD=1,\"%s\",15", sms);
 519:interpretacjaSMS.c **** 
 520:interpretacjaSMS.c ****     extern void wyslij_polecenie_RAM_SIM900(void);
 521:interpretacjaSMS.c ****     extern uchar oczekiwanie_na_ussd;
 522:interpretacjaSMS.c ****     extern uint licznik_timeout_ussd_100ms;
 523:interpretacjaSMS.c **** 
 524:interpretacjaSMS.c ****     wyslij_polecenie_RAM_SIM900();
 525:interpretacjaSMS.c ****     oczekiwanie_na_ussd = TRUE;
 526:interpretacjaSMS.c ****     licznik_timeout_ussd_100ms = 300; // 30 sekund
 527:interpretacjaSMS.c **** 
 528:interpretacjaSMS.c ****     return INTERPRETACJA_SMS_POPRAWNY;
 529:interpretacjaSMS.c ****   }
 530:interpretacjaSMS.c ****   case INSTRUKCJA_CON: {
 531:interpretacjaSMS.c ****     // Komenda CON usunięta.
 532:interpretacjaSMS.c ****     return INTERPRETACJA_SMS_BLEDNE_DANE;
 533:interpretacjaSMS.c ****   }
 534:interpretacjaSMS.c ****   case INSTRUKCJA_ON: {
 535:interpretacjaSMS.c ****     // ON <czas> (1-99998=impuls, 99999=toggle)
 536:interpretacjaSMS.c ****     long czas;
 537:interpretacjaSMS.c ****     if (pobierz_long(&sms, &czas)) {
 538:interpretacjaSMS.c ****       if (czas < 1 || czas > 99999) {
 539:interpretacjaSMS.c ****         return INTERPRETACJA_SMS_BLEDNE_DANE;
 540:interpretacjaSMS.c ****       }
 541:interpretacjaSMS.c **** 
 542:interpretacjaSMS.c ****       // Aktualizuj RAM
 543:interpretacjaSMS.c ****       extern uint32_t clip_duration_sekundy;
 544:interpretacjaSMS.c ****       uint32_t poprzedni_czas = clip_duration_sekundy;
 545:interpretacjaSMS.c ****       clip_duration_sekundy = (uint32_t)czas;
 546:interpretacjaSMS.c **** 
 547:interpretacjaSMS.c ****       // Zapisz do EEPROM (4 bajty Little Endian)
 548:interpretacjaSMS.c ****       zapisz_znak_w_eeprom((uchar)(clip_duration_sekundy & 0xFF),
 549:interpretacjaSMS.c ****                            ADRES_EEPROM_CLIP_DURATION);
 550:interpretacjaSMS.c ****       zapisz_znak_w_eeprom((uchar)((clip_duration_sekundy >> 8) & 0xFF),
 551:interpretacjaSMS.c ****                            ADRES_EEPROM_CLIP_DURATION + 1);
 552:interpretacjaSMS.c ****       zapisz_znak_w_eeprom((uchar)((clip_duration_sekundy >> 16) & 0xFF),
 553:interpretacjaSMS.c ****                            ADRES_EEPROM_CLIP_DURATION + 2);
 554:interpretacjaSMS.c ****       zapisz_znak_w_eeprom((uchar)((clip_duration_sekundy >> 24) & 0xFF),
 555:interpretacjaSMS.c ****                            ADRES_EEPROM_CLIP_DURATION + 3);
 556:interpretacjaSMS.c **** 
 557:interpretacjaSMS.c ****       // Jesli zmiana z Toggle (99999) na tryb czasowy, wyczysc stan Toggle
 558:interpretacjaSMS.c ****       if (poprzedni_czas == 99999 && czas != 99999) {
 559:interpretacjaSMS.c ****         // Wyczysc stan w EEPROM
 560:interpretacjaSMS.c ****         zapisz_znak_w_eeprom(0xFF, EEPROM_USTAWIENIE_STANOW_WYJSC);
 561:interpretacjaSMS.c **** 
 562:interpretacjaSMS.c ****         // FIZYCZNIE wylacz wyjscie (relay OFF)
 563:interpretacjaSMS.c ****         extern uchar stan_wyjscie[LICZBA_WYJSC];
 564:interpretacjaSMS.c ****         extern ulong licznik_przelacznik_wyjscia[LICZBA_WYJSC];
 565:interpretacjaSMS.c ****         stan_wyjscie[0] = FALSE;
 566:interpretacjaSMS.c ****         licznik_przelacznik_wyjscia[0] = 0;
 567:interpretacjaSMS.c ****         WYLACZ_OUT0();
 568:interpretacjaSMS.c ****       }
 569:interpretacjaSMS.c **** 
 570:interpretacjaSMS.c ****       wymus_wylaczenie_wyjscia();
 571:interpretacjaSMS.c ****       return INTERPRETACJA_SMS_ON;
 572:interpretacjaSMS.c ****     }
 573:interpretacjaSMS.c ****     return INTERPRETACJA_SMS_BLEDNE_DANE;
 574:interpretacjaSMS.c ****   }
 575:interpretacjaSMS.c ****   case INSTRUKCJA_TOGLE: {
 576:interpretacjaSMS.c ****     // TOGLE [ON/OFF]
 577:interpretacjaSMS.c **** 
 578:interpretacjaSMS.c ****     przeskocz_biale_znaki(sms);
 579:interpretacjaSMS.c **** 
 580:interpretacjaSMS.c ****     // TOGLE ON - wlacz tryb toggle (czas = 99999)
 581:interpretacjaSMS.c ****     if (strncasecmp_P(sms, PSTR("ON"), 2) == 0) {
 582:interpretacjaSMS.c ****       extern uint32_t clip_duration_sekundy;
 583:interpretacjaSMS.c ****       clip_duration_sekundy = 99999;
 584:interpretacjaSMS.c **** 
 585:interpretacjaSMS.c ****       // Zapisz do EEPROM (4 bajty Little Endian)
 586:interpretacjaSMS.c ****       zapisz_znak_w_eeprom((uchar)(clip_duration_sekundy & 0xFF),
 587:interpretacjaSMS.c ****                            ADRES_EEPROM_CLIP_DURATION);
 588:interpretacjaSMS.c ****       zapisz_znak_w_eeprom((uchar)((clip_duration_sekundy >> 8) & 0xFF),
 589:interpretacjaSMS.c ****                            ADRES_EEPROM_CLIP_DURATION + 1);
 590:interpretacjaSMS.c ****       zapisz_znak_w_eeprom((uchar)((clip_duration_sekundy >> 16) & 0xFF),
 591:interpretacjaSMS.c ****                            ADRES_EEPROM_CLIP_DURATION + 2);
 592:interpretacjaSMS.c ****       zapisz_znak_w_eeprom((uchar)((clip_duration_sekundy >> 24) & 0xFF),
 593:interpretacjaSMS.c ****                            ADRES_EEPROM_CLIP_DURATION + 3);
 594:interpretacjaSMS.c **** 
 595:interpretacjaSMS.c ****       wymus_wylaczenie_wyjscia();
 596:interpretacjaSMS.c ****       return INTERPRETACJA_SMS_ON; // Uzyj istniejacego kodu bledu dla 3 blyskow
 597:interpretacjaSMS.c ****     }
 598:interpretacjaSMS.c **** 
 599:interpretacjaSMS.c ****     // TOGLE OFF - wylacz tryb toggle (przywroc domyslny czas 2s)
 600:interpretacjaSMS.c ****     if (strncasecmp_P(sms, PSTR("OFF"), 3) == 0) {
 601:interpretacjaSMS.c ****       extern uint32_t clip_duration_sekundy;
 602:interpretacjaSMS.c ****       clip_duration_sekundy = 2; // Domyslny czas
 603:interpretacjaSMS.c **** 
 604:interpretacjaSMS.c ****       // Zapisz do EEPROM (4 bajty Little Endian)
 605:interpretacjaSMS.c ****       zapisz_znak_w_eeprom((uchar)(clip_duration_sekundy & 0xFF),
 606:interpretacjaSMS.c ****                            ADRES_EEPROM_CLIP_DURATION);
 607:interpretacjaSMS.c ****       zapisz_znak_w_eeprom((uchar)((clip_duration_sekundy >> 8) & 0xFF),
 608:interpretacjaSMS.c ****                            ADRES_EEPROM_CLIP_DURATION + 1);
 609:interpretacjaSMS.c ****       zapisz_znak_w_eeprom((uchar)((clip_duration_sekundy >> 16) & 0xFF),
 610:interpretacjaSMS.c ****                            ADRES_EEPROM_CLIP_DURATION + 2);
 611:interpretacjaSMS.c ****       zapisz_znak_w_eeprom((uchar)((clip_duration_sekundy >> 24) & 0xFF),
 612:interpretacjaSMS.c ****                            ADRES_EEPROM_CLIP_DURATION + 3);
 613:interpretacjaSMS.c **** 
 614:interpretacjaSMS.c ****       wymus_wylaczenie_wyjscia();
 615:interpretacjaSMS.c ****       return INTERPRETACJA_SMS_ON;
 616:interpretacjaSMS.c ****     }
 617:interpretacjaSMS.c **** 
 618:interpretacjaSMS.c ****     // TOGLE bez parametru - blad
 619:interpretacjaSMS.c ****     return INTERPRETACJA_SMS_BLEDNE_DANE;
 620:interpretacjaSMS.c ****   }
 621:interpretacjaSMS.c ****   case INSTRUKCJA_RST: {
 622:interpretacjaSMS.c ****     // ABCD RST - Hard Reset via Watchdog
 623:interpretacjaSMS.c ****     wdt_enable(WDTO_15MS);
 624:interpretacjaSMS.c ****     for (;;)
 625:interpretacjaSMS.c ****       ;
 626:interpretacjaSMS.c ****     return INTERPRETACJA_SMS_POPRAWNY; // Nigdy nie dotrze tutaj
 627:interpretacjaSMS.c ****   }
 628:interpretacjaSMS.c ****   case INSTRUKCJA_SERVICE: {
 629:interpretacjaSMS.c ****     // ABCD SERVICE - Temporary service unlock (until power reset)
 630:interpretacjaSMS.c ****     // Sets flag in RAM only - does NOT write to EEPROM
 631:interpretacjaSMS.c ****     extern uchar blokada_systemu_tymczasowo_odblokowana;
 632:interpretacjaSMS.c ****     blokada_systemu_tymczasowo_odblokowana = TRUE;
 633:interpretacjaSMS.c **** 
 634:interpretacjaSMS.c ****     // Set Service Mode (Open + Clip + Sms) in RAM only
 635:interpretacjaSMS.c ****     // Note: tryb_pracy is extern/global (used in OPEN/CLOSE)
 636:interpretacjaSMS.c ****     extern uchar tryb_pracy;
 637:interpretacjaSMS.c ****     extern uchar tryb_clip;
 638:interpretacjaSMS.c ****     extern uchar sms_trigger;
 639:interpretacjaSMS.c ****     tryb_pracy = 1; // Open
 640:interpretacjaSMS.c ****     tryb_clip = TRUE;
 641:interpretacjaSMS.c ****     sms_trigger = TRUE;
 642:interpretacjaSMS.c **** 
 643:interpretacjaSMS.c ****     // Send confirmation SMS "Tryb serwisowy aktywny"
 644:interpretacjaSMS.c ****     extern uchar numer_telefonu_wysylanego_smsa[];
 645:interpretacjaSMS.c ****     extern uchar numer_telefonu_odebranego_smsa[];
 646:interpretacjaSMS.c ****     strcpy((char *)numer_telefonu_wysylanego_smsa,
 647:interpretacjaSMS.c ****            (char *)numer_telefonu_odebranego_smsa);
 648:interpretacjaSMS.c ****     strcpy_P((char *)tekst_wysylanego_smsa, PSTR("Tryb serwisowy aktywny"));
 649:interpretacjaSMS.c ****     dodaj_komende(KOMENDA_KOLEJKI_WYSLIJ_SMSA_TEXT);
 650:interpretacjaSMS.c **** 
 651:interpretacjaSMS.c ****     return INTERPRETACJA_SMS_POPRAWNY;
 652:interpretacjaSMS.c ****   }
 653:interpretacjaSMS.c ****   }
 654:interpretacjaSMS.c ****   return INTERPRETACJA_SMS_ZLY_FORMAT;
 655:interpretacjaSMS.c **** }
 1340               		.loc 1 655 1 view .LVU241
 1341 04c0 812F      		mov r24,r17
 1342               	/* epilogue start */
 1343 04c2 2796      		adiw r28,7
 1344 04c4 0FB6      		in __tmp_reg__,__SREG__
 1345 04c6 F894      		cli
 1346 04c8 DEBF      		out __SP_H__,r29
 1347 04ca 0FBE      		out __SREG__,__tmp_reg__
 1348 04cc CDBF      		out __SP_L__,r28
 1349 04ce DF91      		pop r29
 1350 04d0 CF91      		pop r28
 1351 04d2 1F91      		pop r17
 1352 04d4 0F91      		pop r16
 1353 04d6 FF90      		pop r15
 1354 04d8 EF90      		pop r14
 1355               	.LVL110:
 1356               		.loc 1 655 1 view .LVU242
 1357 04da DF90      		pop r13
 1358 04dc CF90      		pop r12
 1359 04de BF90      		pop r11
 1360 04e0 AF90      		pop r10
 1361 04e2 9F90      		pop r9
 1362 04e4 0895      		ret
 1363               	.LVL111:
 1364               	.L114:
 1365               	.LBB31:
 1366               		.loc 1 655 1 view .LVU243
 1367 04e6 5801      		movw r10,r16
 1368               	.LVL112:
 1369               		.loc 1 655 1 view .LVU244
 1370 04e8 00C0      		rjmp .L72
 1371               	.L75:
 1372               		.loc 1 655 1 view .LVU245
 1373               	.LBE31:
 287:interpretacjaSMS.c ****     if (sprawdz_reset_ustawien(sms))
 1374               		.loc 1 287 3 is_stmt 1 view .LVU246
 287:interpretacjaSMS.c ****     if (sprawdz_reset_ustawien(sms))
 1375               		.loc 1 287 8 is_stmt 0 view .LVU247
 1376 04ea CE01      		movw r24,r28
 1377 04ec 0696      		adiw r24,6
 1378 04ee 0E94 0000 		call sprawdz_kod
 1379               	.LVL113:
 1380 04f2 2E81      		ldd r18,Y+6
 1381 04f4 9F81      		ldd r25,Y+7
 287:interpretacjaSMS.c ****     if (sprawdz_reset_ustawien(sms))
 1382               		.loc 1 287 6 view .LVU248
 1383 04f6 8111      		cpse r24,__zero_reg__
 1384 04f8 00C0      		rjmp .L77
 288:interpretacjaSMS.c ****       return INTERPRETACJA_SMS_RESET_WSZYSTKICH_USTAWIEN;
 1385               		.loc 1 288 5 is_stmt 1 view .LVU249
 288:interpretacjaSMS.c ****       return INTERPRETACJA_SMS_RESET_WSZYSTKICH_USTAWIEN;
 1386               		.loc 1 288 9 is_stmt 0 view .LVU250
 1387 04fa 822F      		mov r24,r18
 1388 04fc 0E94 0000 		call sprawdz_reset_ustawien
 1389               	.LVL114:
 1390 0500 182F      		mov r17,r24
 288:interpretacjaSMS.c ****       return INTERPRETACJA_SMS_RESET_WSZYSTKICH_USTAWIEN;
 1391               		.loc 1 288 8 view .LVU251
 1392 0502 8823      		tst r24
 1393 0504 01F0      		breq .L70
 1394               	.L115:
 289:interpretacjaSMS.c ****     return INTERPRETACJA_SMS_BRAK_KODU;
 1395               		.loc 1 289 14 view .LVU252
 1396 0506 1BE0      		ldi r17,lo8(11)
 1397 0508 00C0      		rjmp .L70
 1398               	.L77:
 293:interpretacjaSMS.c ****       *ptr = toupper(*ptr);
 1399               		.loc 1 293 5 is_stmt 1 view .LVU253
 1400               	.LBB32:
 293:interpretacjaSMS.c ****       *ptr = toupper(*ptr);
 1401               		.loc 1 293 10 view .LVU254
 1402 050a 022F      		mov r16,r18
 1403 050c 192F      		mov r17,r25
 1404               	.L78:
 1405               	.LVL115:
 293:interpretacjaSMS.c ****       *ptr = toupper(*ptr);
 1406               		.loc 1 293 37 discriminator 1 view .LVU255
 1407 050e F801      		movw r30,r16
 1408 0510 8191      		ld r24,Z+
 1409 0512 8F01      		movw r16,r30
 1410               	.LVL116:
 293:interpretacjaSMS.c ****       *ptr = toupper(*ptr);
 1411               		.loc 1 293 5 is_stmt 0 discriminator 1 view .LVU256
 1412 0514 8111      		cpse r24,__zero_reg__
 1413 0516 00C0      		rjmp .L79
 1414               	.LBE32:
 297:interpretacjaSMS.c ****       interpretuj_instrukcje_sms(&sms, INSTRUKCJA_CODE, INSTRUKCJA_SYS + 1)) {
 1415               		.loc 1 297 3 is_stmt 1 view .LVU257
 298:interpretacjaSMS.c **** 
 1416               		.loc 1 298 7 is_stmt 0 view .LVU258
 1417 0518 4AE1      		ldi r20,lo8(26)
 1418 051a 60E0      		ldi r22,0
 1419 051c CE01      		movw r24,r28
 1420 051e 0696      		adiw r24,6
 1421 0520 0E94 0000 		call interpretuj_instrukcje_sms
 1422               	.LVL117:
 1423 0524 182F      		mov r17,r24
 297:interpretacjaSMS.c ****       interpretuj_instrukcje_sms(&sms, INSTRUKCJA_CODE, INSTRUKCJA_SYS + 1)) {
 1424               		.loc 1 297 3 view .LVU259
 1425 0526 8A31      		cpi r24,lo8(26)
 1426 0528 00F0      		brlo .+2
 1427 052a 00C0      		rjmp .L80
 1428 052c E82F      		mov r30,r24
 1429 052e F0E0      		ldi r31,0
 1430 0530 E050      		subi r30,lo8(-(gs(.L82)))
 1431 0532 F040      		sbci r31,hi8(-(gs(.L82)))
 1432 0534 0C94 0000 		jmp __tablejump2__
 1433               		.section	.jumptables.gcc.interpretuj_wiadomosc_sms,"a",@progbits
 1434               		.p2align	1
 1435               	.L82:
 1436 0000 0000      		.word gs(.L95)
 1437 0002 0000      		.word gs(.L94)
 1438 0004 0000      		.word gs(.L93)
 1439 0006 0000      		.word gs(.L115)
 1440 0008 0000      		.word gs(.L70)
 1441 000a 0000      		.word gs(.L91)
 1442 000c 0000      		.word gs(.L90)
 1443 000e 0000      		.word gs(.L89)
 1444 0010 0000      		.word gs(.L80)
 1445 0012 0000      		.word gs(.L80)
 1446 0014 0000      		.word gs(.L118)
 1447 0016 0000      		.word gs(.L118)
 1448 0018 0000      		.word gs(.L118)
 1449 001a 0000      		.word gs(.L118)
 1450 001c 0000      		.word gs(.L118)
 1451 001e 0000      		.word gs(.L118)
 1452 0020 0000      		.word gs(.L88)
 1453 0022 0000      		.word gs(.L118)
 1454 0024 0000      		.word gs(.L87)
 1455 0026 0000      		.word gs(.L86)
 1456 0028 0000      		.word gs(.L85)
 1457 002a 0000      		.word gs(.L80)
 1458 002c 0000      		.word gs(.L80)
 1459 002e 0000      		.word gs(.L84)
 1460 0030 0000      		.word gs(.L83)
 1461 0032 0000      		.word gs(.L118)
 1462               		.text
 1463               	.L79:
 1464               	.LBB33:
 294:interpretacjaSMS.c ****   }
 1465               		.loc 1 294 7 is_stmt 1 discriminator 3 view .LVU260
 294:interpretacjaSMS.c ****   }
 1466               		.loc 1 294 14 is_stmt 0 discriminator 3 view .LVU261
 1467 0538 90E0      		ldi r25,0
 1468 053a 0E94 0000 		call toupper
 1469               	.LVL118:
 294:interpretacjaSMS.c ****   }
 1470               		.loc 1 294 12 discriminator 3 view .LVU262
 1471 053e F801      		movw r30,r16
 1472 0540 3197      		sbiw r30,1
 1473 0542 8083      		st Z,r24
 293:interpretacjaSMS.c ****       *ptr = toupper(*ptr);
 1474               		.loc 1 293 51 is_stmt 1 discriminator 3 view .LVU263
 1475               	.LVL119:
 293:interpretacjaSMS.c ****       *ptr = toupper(*ptr);
 1476               		.loc 1 293 51 is_stmt 0 discriminator 3 view .LVU264
 1477 0544 00C0      		rjmp .L78
 1478               	.LVL120:
 1479               	.L96:
 293:interpretacjaSMS.c ****       *ptr = toupper(*ptr);
 1480               		.loc 1 293 51 discriminator 3 view .LVU265
 1481               	.LBE33:
 301:interpretacjaSMS.c ****     for (uchar i = 0; i < LICZBA_BAJTOW_KODU_DOSTEPU; ++i) {
 1482               		.loc 1 301 5 is_stmt 1 discriminator 2 view .LVU266
 1483 0546 0F5F      		subi r16,-1
 1484 0548 1F4F      		sbci r17,-1
 1485 054a 1F83      		std Y+7,r17
 1486 054c 0E83      		std Y+6,r16
 1487               	.L95:
 301:interpretacjaSMS.c ****     for (uchar i = 0; i < LICZBA_BAJTOW_KODU_DOSTEPU; ++i) {
 1488               		.loc 1 301 5 discriminator 1 view .LVU267
 1489 054e 0E81      		ldd r16,Y+6
 1490 0550 1F81      		ldd r17,Y+7
 1491 0552 F801      		movw r30,r16
 1492 0554 8081      		ld r24,Z
 1493 0556 90E0      		ldi r25,0
 1494 0558 0E94 0000 		call isspace
 1495               	.LVL121:
 1496 055c 892B      		or r24,r25
 1497 055e 01F4      		brne .L96
 1498 0560 30E0      		ldi r19,0
 1499 0562 20E0      		ldi r18,0
 1500               	.LBB34:
 1501               	.LBB35:
 303:interpretacjaSMS.c ****       if (not((znak >= 'A' && znak <= 'Z') || (znak >= '0' && znak <= '9')))
 1502               		.loc 1 303 44 is_stmt 0 view .LVU268
 1503 0564 C801      		movw r24,r16
 1504 0566 8E19      		sub r24,r14
 1505 0568 9F09      		sbc r25,r15
 303:interpretacjaSMS.c ****       if (not((znak >= 'A' && znak <= 'Z') || (znak >= '0' && znak <= '9')))
 1506               		.loc 1 303 19 view .LVU269
 1507 056a 8050      		subi r24,lo8(-(bufor_eeprom))
 1508 056c 9040      		sbci r25,hi8(-(bufor_eeprom))
 1509               	.L98:
 1510               	.LVL122:
 303:interpretacjaSMS.c ****       if (not((znak >= 'A' && znak <= 'Z') || (znak >= '0' && znak <= '9')))
 1511               		.loc 1 303 7 is_stmt 1 view .LVU270
 303:interpretacjaSMS.c ****       if (not((znak >= 'A' && znak <= 'Z') || (znak >= '0' && znak <= '9')))
 1512               		.loc 1 303 19 is_stmt 0 view .LVU271
 1513 056e FC01      		movw r30,r24
 1514 0570 E20F      		add r30,r18
 1515 0572 F31F      		adc r31,r19
 1516 0574 4081      		ld r20,Z
 1517               	.LVL123:
 304:interpretacjaSMS.c ****         return INTERPRETACJA_SMS_BLEDNE_DANE;
 1518               		.loc 1 304 7 is_stmt 1 view .LVU272
 304:interpretacjaSMS.c ****         return INTERPRETACJA_SMS_BLEDNE_DANE;
 1519               		.loc 1 304 28 is_stmt 0 view .LVU273
 1520 0576 5FEB      		ldi r21,lo8(-65)
 1521 0578 540F      		add r21,r20
 304:interpretacjaSMS.c ****         return INTERPRETACJA_SMS_BLEDNE_DANE;
 1522               		.loc 1 304 10 view .LVU274
 1523 057a 5A31      		cpi r21,lo8(26)
 1524 057c 00F0      		brlo .L97
 304:interpretacjaSMS.c ****         return INTERPRETACJA_SMS_BLEDNE_DANE;
 1525               		.loc 1 304 60 discriminator 1 view .LVU275
 1526 057e 4053      		subi r20,lo8(-(-48))
 1527               	.LVL124:
 304:interpretacjaSMS.c ****         return INTERPRETACJA_SMS_BLEDNE_DANE;
 1528               		.loc 1 304 11 discriminator 1 view .LVU276
 1529 0580 4A30      		cpi r20,lo8(10)
 1530 0582 00F0      		brlo .L97
 1531               	.LVL125:
 1532               	.L118:
 304:interpretacjaSMS.c ****         return INTERPRETACJA_SMS_BLEDNE_DANE;
 1533               		.loc 1 304 11 discriminator 1 view .LVU277
 1534               	.LBE35:
 1535               	.LBE34:
 1536               	.LBB36:
 573:interpretacjaSMS.c ****   }
 1537               		.loc 1 573 12 view .LVU278
 1538 0584 12E0      		ldi r17,lo8(2)
 1539 0586 00C0      		rjmp .L70
 1540               	.LVL126:
 1541               	.L97:
 573:interpretacjaSMS.c ****   }
 1542               		.loc 1 573 12 view .LVU279
 1543               	.LBE36:
 1544               	.LBB39:
 302:interpretacjaSMS.c ****       const uchar znak = bufor_eeprom[(sms - sms_pom) + i];
 1545               		.loc 1 302 55 is_stmt 1 discriminator 2 view .LVU280
 302:interpretacjaSMS.c ****       const uchar znak = bufor_eeprom[(sms - sms_pom) + i];
 1546               		.loc 1 302 23 discriminator 2 view .LVU281
 1547 0588 2F5F      		subi r18,-1
 1548 058a 3F4F      		sbci r19,-1
 1549               	.LVL127:
 302:interpretacjaSMS.c ****       const uchar znak = bufor_eeprom[(sms - sms_pom) + i];
 1550               		.loc 1 302 5 is_stmt 0 discriminator 2 view .LVU282
 1551 058c 2430      		cpi r18,4
 1552 058e 3105      		cpc r19,__zero_reg__
 1553 0590 01F4      		brne .L98
 1554               	.LBE39:
 307:interpretacjaSMS.c ****            LICZBA_BAJTOW_KODU_DOSTEPU);
 1555               		.loc 1 307 5 is_stmt 1 view .LVU283
 1556 0592 FC01      		movw r30,r24
 1557               	.LVL128:
 307:interpretacjaSMS.c ****            LICZBA_BAJTOW_KODU_DOSTEPU);
 1558               		.loc 1 307 5 is_stmt 0 view .LVU284
 1559 0594 4081      		ld r20,Z
 1560 0596 5181      		ldd r21,Z+1
 1561 0598 6281      		ldd r22,Z+2
 1562 059a 7381      		ldd r23,Z+3
 1563 059c 4093 0000 		sts kod_modulu,r20
 1564 05a0 5093 0000 		sts kod_modulu+1,r21
 1565 05a4 6093 0000 		sts kod_modulu+2,r22
 1566 05a8 7093 0000 		sts kod_modulu+3,r23
 309:interpretacjaSMS.c ****                           (uint)ADRES_EEPROM_KOD_DOSTEPU,
 1567               		.loc 1 309 5 is_stmt 1 view .LVU285
 1568 05ac 44E0      		ldi r20,lo8(4)
 1569 05ae 61E0      		ldi r22,lo8(1)
 1570 05b0 70E0      		ldi r23,0
 1571 05b2 0E94 0000 		call zapisz_znaki_w_eeprom
 1572               	.LVL129:
 312:interpretacjaSMS.c ****   }
 1573               		.loc 1 312 5 view .LVU286
 1574               	.L145:
 1575               	.LBB40:
 651:interpretacjaSMS.c ****   }
 1576               		.loc 1 651 5 view .LVU287
 651:interpretacjaSMS.c ****   }
 1577               		.loc 1 651 12 is_stmt 0 view .LVU288
 1578 05b6 13E0      		ldi r17,lo8(3)
 1579 05b8 00C0      		rjmp .L70
 1580               	.LVL130:
 1581               	.L91:
 651:interpretacjaSMS.c ****   }
 1582               		.loc 1 651 12 view .LVU289
 1583               	.LBE40:
 327:interpretacjaSMS.c ****       return INTERPRETACJA_SMS_USER;
 1584               		.loc 1 327 5 is_stmt 1 view .LVU290
 327:interpretacjaSMS.c ****       return INTERPRETACJA_SMS_USER;
 1585               		.loc 1 327 9 is_stmt 0 view .LVU291
 1586 05ba 4EE0      		ldi r20,lo8(14)
 1587 05bc 60E0      		ldi r22,lo8(numer_telefonu_do_ktorego_dzwonic)
 1588 05be 70E0      		ldi r23,hi8(numer_telefonu_do_ktorego_dzwonic)
 1589 05c0 CE01      		movw r24,r28
 1590 05c2 0696      		adiw r24,6
 1591 05c4 0E94 0000 		call pobierz_numer_telefonu
 1592               	.LVL131:
 327:interpretacjaSMS.c ****       return INTERPRETACJA_SMS_USER;
 1593               		.loc 1 327 8 view .LVU292
 1594 05c8 8111      		cpse r24,__zero_reg__
 1595 05ca 00C0      		rjmp .L70
 332:interpretacjaSMS.c ****   }
 1596               		.loc 1 332 12 view .LVU293
 1597 05cc 16E0      		ldi r17,lo8(6)
 1598 05ce 00C0      		rjmp .L70
 1599               	.L94:
 335:interpretacjaSMS.c ****                                    14))
 1600               		.loc 1 335 5 is_stmt 1 view .LVU294
 335:interpretacjaSMS.c ****                                    14))
 1601               		.loc 1 335 13 is_stmt 0 view .LVU295
 1602 05d0 4EE0      		ldi r20,lo8(14)
 1603 05d2 60E0      		ldi r22,lo8(numer_telefonu_do_ktorego_dzwonic)
 1604 05d4 70E0      		ldi r23,hi8(numer_telefonu_do_ktorego_dzwonic)
 1605 05d6 CE01      		movw r24,r28
 1606 05d8 0696      		adiw r24,6
 1607 05da 0E94 0000 		call pobierz_numer_telefonu
 1608               	.LVL132:
 335:interpretacjaSMS.c ****                                    14))
 1609               		.loc 1 335 8 view .LVU296
 1610 05de 8823      		tst r24
 1611 05e0 01F0      		breq .L118
 338:interpretacjaSMS.c ****     return INTERPRETACJA_SMS_POPRAWNY;
 1612               		.loc 1 338 5 is_stmt 1 view .LVU297
 1613 05e2 85E2      		ldi r24,lo8(37)
 1614               	.L147:
 1615               	.LBB42:
 649:interpretacjaSMS.c **** 
 1616               		.loc 1 649 5 is_stmt 0 view .LVU298
 1617 05e4 0E94 0000 		call dodaj_komende
 1618               	.LVL133:
 1619 05e8 00C0      		rjmp .L145
 1620               	.L93:
 1621               	.LBE42:
 342:interpretacjaSMS.c ****                                    14))
 1622               		.loc 1 342 5 is_stmt 1 view .LVU299
 342:interpretacjaSMS.c ****                                    14))
 1623               		.loc 1 342 13 is_stmt 0 view .LVU300
 1624 05ea 4EE0      		ldi r20,lo8(14)
 1625 05ec 60E0      		ldi r22,lo8(numer_telefonu_do_ktorego_dzwonic)
 1626 05ee 70E0      		ldi r23,hi8(numer_telefonu_do_ktorego_dzwonic)
 1627 05f0 CE01      		movw r24,r28
 1628 05f2 0696      		adiw r24,6
 1629 05f4 0E94 0000 		call pobierz_numer_telefonu
 1630               	.LVL134:
 342:interpretacjaSMS.c ****                                    14))
 1631               		.loc 1 342 8 view .LVU301
 1632 05f8 8823      		tst r24
 1633 05fa 01F0      		breq .L118
 345:interpretacjaSMS.c ****     return INTERPRETACJA_SMS_POPRAWNY;
 1634               		.loc 1 345 5 is_stmt 1 view .LVU302
 1635 05fc 88E2      		ldi r24,lo8(40)
 1636 05fe 00C0      		rjmp .L147
 1637               	.L90:
 1638               	.LBB43:
 352:interpretacjaSMS.c ****         interpretuj_instrukcje_sms(&sms, INSTRUKCJA_CLIP, INSTRUKCJA_SMS + 1);
 1639               		.loc 1 352 5 view .LVU303
 353:interpretacjaSMS.c ****     if (podtryb == INSTRUKCJA_CLIP) {
 1640               		.loc 1 353 9 is_stmt 0 view .LVU304
 1641 0600 47E1      		ldi r20,lo8(23)
 1642 0602 68E0      		ldi r22,lo8(8)
 1643 0604 CE01      		movw r24,r28
 1644 0606 0696      		adiw r24,6
 1645 0608 0E94 0000 		call interpretuj_instrukcje_sms
 1646               	.LVL135:
 354:interpretacjaSMS.c ****       tryb_pracy = 1; // Publiczny
 1647               		.loc 1 354 5 is_stmt 1 view .LVU305
 354:interpretacjaSMS.c ****       tryb_pracy = 1; // Publiczny
 1648               		.loc 1 354 8 is_stmt 0 view .LVU306
 1649 060c 8830      		cpi r24,lo8(8)
 1650 060e 01F4      		brne .L100
 1651               	.L103:
 355:interpretacjaSMS.c ****       zapisz_znak_w_eeprom(1, ADRES_EEPROM_TRYB_PRACY);
 1652               		.loc 1 355 7 is_stmt 1 view .LVU307
 355:interpretacjaSMS.c ****       zapisz_znak_w_eeprom(1, ADRES_EEPROM_TRYB_PRACY);
 1653               		.loc 1 355 18 is_stmt 0 view .LVU308
 1654 0610 81E0      		ldi r24,lo8(1)
 1655               	.LVL136:
 355:interpretacjaSMS.c ****       zapisz_znak_w_eeprom(1, ADRES_EEPROM_TRYB_PRACY);
 1656               		.loc 1 355 18 view .LVU309
 1657 0612 8093 0000 		sts tryb_pracy,r24
 356:interpretacjaSMS.c **** 
 1658               		.loc 1 356 7 is_stmt 1 view .LVU310
 1659 0616 6FEE      		ldi r22,lo8(-17)
 1660 0618 74E0      		ldi r23,lo8(4)
 1661               	.L155:
 356:interpretacjaSMS.c **** 
 1662               		.loc 1 356 7 is_stmt 0 view .LVU311
 1663               	.LBE43:
 1664               	.LBB44:
 423:interpretacjaSMS.c **** 
 1665               		.loc 1 423 7 view .LVU312
 1666 061a 0E94 0000 		call zapisz_znak_w_eeprom
 1667               	.LVL137:
 425:interpretacjaSMS.c ****       zapisz_znak_w_eeprom(1, ADRES_EEPROM_TRYB_CLIP_DTMF);
 1668               		.loc 1 425 7 is_stmt 1 view .LVU313
 425:interpretacjaSMS.c ****       zapisz_znak_w_eeprom(1, ADRES_EEPROM_TRYB_CLIP_DTMF);
 1669               		.loc 1 425 17 is_stmt 0 view .LVU314
 1670 061e 8FEF      		ldi r24,lo8(-1)
 1671 0620 8093 0000 		sts tryb_clip,r24
 426:interpretacjaSMS.c **** 
 1672               		.loc 1 426 7 is_stmt 1 view .LVU315
 1673 0624 60EF      		ldi r22,lo8(-16)
 1674 0626 74E0      		ldi r23,lo8(4)
 1675 0628 81E0      		ldi r24,lo8(1)
 1676 062a 00C0      		rjmp .L153
 1677               	.LVL138:
 1678               	.L100:
 426:interpretacjaSMS.c **** 
 1679               		.loc 1 426 7 is_stmt 0 view .LVU316
 1680               	.LBE44:
 1681               	.LBB45:
 366:interpretacjaSMS.c ****       tryb_pracy = 1; // Publiczny
 1682               		.loc 1 366 12 is_stmt 1 view .LVU317
 366:interpretacjaSMS.c ****       tryb_pracy = 1; // Publiczny
 1683               		.loc 1 366 15 is_stmt 0 view .LVU318
 1684 062c 8930      		cpi r24,lo8(9)
 1685 062e 01F4      		brne .L101
 367:interpretacjaSMS.c ****       zapisz_znak_w_eeprom(1, ADRES_EEPROM_TRYB_PRACY);
 1686               		.loc 1 367 7 is_stmt 1 view .LVU319
 367:interpretacjaSMS.c ****       zapisz_znak_w_eeprom(1, ADRES_EEPROM_TRYB_PRACY);
 1687               		.loc 1 367 18 is_stmt 0 view .LVU320
 1688 0630 81E0      		ldi r24,lo8(1)
 1689               	.LVL139:
 367:interpretacjaSMS.c ****       zapisz_znak_w_eeprom(1, ADRES_EEPROM_TRYB_PRACY);
 1690               		.loc 1 367 18 view .LVU321
 1691 0632 8093 0000 		sts tryb_pracy,r24
 368:interpretacjaSMS.c **** 
 1692               		.loc 1 368 7 is_stmt 1 view .LVU322
 1693 0636 6FEE      		ldi r22,lo8(-17)
 1694 0638 74E0      		ldi r23,lo8(4)
 1695               	.L154:
 368:interpretacjaSMS.c **** 
 1696               		.loc 1 368 7 is_stmt 0 view .LVU323
 1697 063a 0E94 0000 		call zapisz_znak_w_eeprom
 1698               	.LVL140:
 370:interpretacjaSMS.c ****       zapisz_znak_w_eeprom(0, ADRES_EEPROM_TRYB_CLIP_DTMF);
 1699               		.loc 1 370 7 is_stmt 1 view .LVU324
 370:interpretacjaSMS.c ****       zapisz_znak_w_eeprom(0, ADRES_EEPROM_TRYB_CLIP_DTMF);
 1700               		.loc 1 370 17 is_stmt 0 view .LVU325
 1701 063e 1092 0000 		sts tryb_clip,__zero_reg__
 371:interpretacjaSMS.c **** 
 1702               		.loc 1 371 7 is_stmt 1 view .LVU326
 1703 0642 60EF      		ldi r22,lo8(-16)
 1704 0644 74E0      		ldi r23,lo8(4)
 1705 0646 80E0      		ldi r24,0
 1706               	.L153:
 1707 0648 0E94 0000 		call zapisz_znak_w_eeprom
 1708               	.LVL141:
 375:interpretacjaSMS.c ****       zapisz_znak_w_eeprom(0, ADRES_EEPROM_SMS_TRIGGER);
 1709               		.loc 1 375 7 view .LVU327
 375:interpretacjaSMS.c ****       zapisz_znak_w_eeprom(0, ADRES_EEPROM_SMS_TRIGGER);
 1710               		.loc 1 375 19 is_stmt 0 view .LVU328
 1711 064c 1092 0000 		sts sms_trigger,__zero_reg__
 376:interpretacjaSMS.c **** 
 1712               		.loc 1 376 7 is_stmt 1 view .LVU329
 1713 0650 66E0      		ldi r22,lo8(6)
 1714 0652 70E0      		ldi r23,0
 1715 0654 80E0      		ldi r24,0
 1716               	.L150:
 1717               	.LBE45:
 1718               	.LBB46:
 465:interpretacjaSMS.c **** 
 1719               		.loc 1 465 7 is_stmt 0 view .LVU330
 1720 0656 0E94 0000 		call zapisz_znak_w_eeprom
 1721               	.LVL142:
 467:interpretacjaSMS.c ****       return INTERPRETACJA_SMS_POPRAWNY;
 1722               		.loc 1 467 7 is_stmt 1 view .LVU331
 1723 065a 0E94 0000 		call wymus_wylaczenie_wyjscia
 1724               	.LVL143:
 468:interpretacjaSMS.c ****     } else {
 1725               		.loc 1 468 7 view .LVU332
 1726 065e 00C0      		rjmp .L145
 1727               	.LVL144:
 1728               	.L101:
 468:interpretacjaSMS.c ****     } else {
 1729               		.loc 1 468 7 is_stmt 0 view .LVU333
 1730               	.LBE46:
 1731               	.LBB47:
 380:interpretacjaSMS.c ****       tryb_pracy = 1; // Publiczny
 1732               		.loc 1 380 12 is_stmt 1 view .LVU334
 380:interpretacjaSMS.c ****       tryb_pracy = 1; // Publiczny
 1733               		.loc 1 380 15 is_stmt 0 view .LVU335
 1734 0660 8631      		cpi r24,lo8(22)
 1735 0662 01F4      		brne .L102
 381:interpretacjaSMS.c ****       zapisz_znak_w_eeprom(1, ADRES_EEPROM_TRYB_PRACY);
 1736               		.loc 1 381 7 is_stmt 1 view .LVU336
 381:interpretacjaSMS.c ****       zapisz_znak_w_eeprom(1, ADRES_EEPROM_TRYB_PRACY);
 1737               		.loc 1 381 18 is_stmt 0 view .LVU337
 1738 0664 81E0      		ldi r24,lo8(1)
 1739               	.LVL145:
 381:interpretacjaSMS.c ****       zapisz_znak_w_eeprom(1, ADRES_EEPROM_TRYB_PRACY);
 1740               		.loc 1 381 18 view .LVU338
 1741 0666 8093 0000 		sts tryb_pracy,r24
 382:interpretacjaSMS.c **** 
 1742               		.loc 1 382 7 is_stmt 1 view .LVU339
 1743 066a 6FEE      		ldi r22,lo8(-17)
 1744 066c 74E0      		ldi r23,lo8(4)
 1745               	.L152:
 382:interpretacjaSMS.c **** 
 1746               		.loc 1 382 7 is_stmt 0 view .LVU340
 1747               	.LBE47:
 1748               	.LBB48:
 447:interpretacjaSMS.c **** 
 1749               		.loc 1 447 7 view .LVU341
 1750 066e 0E94 0000 		call zapisz_znak_w_eeprom
 1751               	.LVL146:
 449:interpretacjaSMS.c ****       zapisz_znak_w_eeprom(0, ADRES_EEPROM_TRYB_CLIP_DTMF);
 1752               		.loc 1 449 7 is_stmt 1 view .LVU342
 449:interpretacjaSMS.c ****       zapisz_znak_w_eeprom(0, ADRES_EEPROM_TRYB_CLIP_DTMF);
 1753               		.loc 1 449 17 is_stmt 0 view .LVU343
 1754 0672 1092 0000 		sts tryb_clip,__zero_reg__
 450:interpretacjaSMS.c **** 
 1755               		.loc 1 450 7 is_stmt 1 view .LVU344
 1756 0676 60EF      		ldi r22,lo8(-16)
 1757 0678 74E0      		ldi r23,lo8(4)
 1758 067a 80E0      		ldi r24,0
 1759 067c 0E94 0000 		call zapisz_znak_w_eeprom
 1760               	.LVL147:
 452:interpretacjaSMS.c ****       zapisz_znak_w_eeprom(1, ADRES_EEPROM_SMS_TRIGGER);
 1761               		.loc 1 452 7 view .LVU345
 452:interpretacjaSMS.c ****       zapisz_znak_w_eeprom(1, ADRES_EEPROM_SMS_TRIGGER);
 1762               		.loc 1 452 19 is_stmt 0 view .LVU346
 1763 0680 8FEF      		ldi r24,lo8(-1)
 1764 0682 8093 0000 		sts sms_trigger,r24
 453:interpretacjaSMS.c ****       wymus_wylaczenie_wyjscia();
 1765               		.loc 1 453 7 is_stmt 1 view .LVU347
 1766               	.L149:
 465:interpretacjaSMS.c **** 
 1767               		.loc 1 465 7 view .LVU348
 1768 0686 66E0      		ldi r22,lo8(6)
 1769 0688 70E0      		ldi r23,0
 1770 068a 81E0      		ldi r24,lo8(1)
 1771 068c 00C0      		rjmp .L150
 1772               	.LVL148:
 1773               	.L102:
 465:interpretacjaSMS.c **** 
 1774               		.loc 1 465 7 is_stmt 0 view .LVU349
 1775               	.LBE48:
 1776               	.LBB49:
 392:interpretacjaSMS.c ****       tryb_pracy = 1; // Publiczny
 1777               		.loc 1 392 12 is_stmt 1 view .LVU350
 392:interpretacjaSMS.c ****       tryb_pracy = 1; // Publiczny
 1778               		.loc 1 392 15 is_stmt 0 view .LVU351
 1779 068e 8531      		cpi r24,lo8(21)
 1780 0690 01F0      		breq .+2
 1781 0692 00C0      		rjmp .L103
 393:interpretacjaSMS.c ****       zapisz_znak_w_eeprom(1, ADRES_EEPROM_TRYB_PRACY);
 1782               		.loc 1 393 7 is_stmt 1 view .LVU352
 393:interpretacjaSMS.c ****       zapisz_znak_w_eeprom(1, ADRES_EEPROM_TRYB_PRACY);
 1783               		.loc 1 393 18 is_stmt 0 view .LVU353
 1784 0694 81E0      		ldi r24,lo8(1)
 1785               	.LVL149:
 393:interpretacjaSMS.c ****       zapisz_znak_w_eeprom(1, ADRES_EEPROM_TRYB_PRACY);
 1786               		.loc 1 393 18 view .LVU354
 1787 0696 8093 0000 		sts tryb_pracy,r24
 394:interpretacjaSMS.c **** 
 1788               		.loc 1 394 7 is_stmt 1 view .LVU355
 1789 069a 6FEE      		ldi r22,lo8(-17)
 1790 069c 74E0      		ldi r23,lo8(4)
 1791               	.L151:
 394:interpretacjaSMS.c **** 
 1792               		.loc 1 394 7 is_stmt 0 view .LVU356
 1793               	.LBE49:
 1794               	.LBB50:
 459:interpretacjaSMS.c **** 
 1795               		.loc 1 459 7 view .LVU357
 1796 069e 0E94 0000 		call zapisz_znak_w_eeprom
 1797               	.LVL150:
 461:interpretacjaSMS.c ****       zapisz_znak_w_eeprom(1, ADRES_EEPROM_TRYB_CLIP_DTMF);
 1798               		.loc 1 461 7 is_stmt 1 view .LVU358
 461:interpretacjaSMS.c ****       zapisz_znak_w_eeprom(1, ADRES_EEPROM_TRYB_CLIP_DTMF);
 1799               		.loc 1 461 17 is_stmt 0 view .LVU359
 1800 06a2 1FEF      		ldi r17,lo8(-1)
 1801 06a4 1093 0000 		sts tryb_clip,r17
 462:interpretacjaSMS.c **** 
 1802               		.loc 1 462 7 is_stmt 1 view .LVU360
 1803 06a8 60EF      		ldi r22,lo8(-16)
 1804 06aa 74E0      		ldi r23,lo8(4)
 1805 06ac 81E0      		ldi r24,lo8(1)
 1806 06ae 0E94 0000 		call zapisz_znak_w_eeprom
 1807               	.LVL151:
 464:interpretacjaSMS.c ****       zapisz_znak_w_eeprom(1, ADRES_EEPROM_SMS_TRIGGER);
 1808               		.loc 1 464 7 view .LVU361
 464:interpretacjaSMS.c ****       zapisz_znak_w_eeprom(1, ADRES_EEPROM_SMS_TRIGGER);
 1809               		.loc 1 464 19 is_stmt 0 view .LVU362
 1810 06b2 1093 0000 		sts sms_trigger,r17
 1811 06b6 00C0      		rjmp .L149
 1812               	.L89:
 419:interpretacjaSMS.c ****         interpretuj_instrukcje_sms(&sms, INSTRUKCJA_CLIP, INSTRUKCJA_SMS + 1);
 1813               		.loc 1 419 5 is_stmt 1 view .LVU363
 420:interpretacjaSMS.c ****     if (podtryb == INSTRUKCJA_CLIP) {
 1814               		.loc 1 420 9 is_stmt 0 view .LVU364
 1815 06b8 47E1      		ldi r20,lo8(23)
 1816 06ba 68E0      		ldi r22,lo8(8)
 1817 06bc CE01      		movw r24,r28
 1818 06be 0696      		adiw r24,6
 1819 06c0 0E94 0000 		call interpretuj_instrukcje_sms
 1820               	.LVL152:
 421:interpretacjaSMS.c ****       tryb_pracy = 0; // Prywatny
 1821               		.loc 1 421 5 is_stmt 1 view .LVU365
 421:interpretacjaSMS.c ****       tryb_pracy = 0; // Prywatny
 1822               		.loc 1 421 8 is_stmt 0 view .LVU366
 1823 06c4 8830      		cpi r24,lo8(8)
 1824 06c6 01F4      		brne .L104
 1825               	.L107:
 422:interpretacjaSMS.c ****       zapisz_znak_w_eeprom(0, ADRES_EEPROM_TRYB_PRACY);
 1826               		.loc 1 422 7 is_stmt 1 view .LVU367
 422:interpretacjaSMS.c ****       zapisz_znak_w_eeprom(0, ADRES_EEPROM_TRYB_PRACY);
 1827               		.loc 1 422 18 is_stmt 0 view .LVU368
 1828 06c8 1092 0000 		sts tryb_pracy,__zero_reg__
 423:interpretacjaSMS.c **** 
 1829               		.loc 1 423 7 is_stmt 1 view .LVU369
 1830 06cc 6FEE      		ldi r22,lo8(-17)
 1831 06ce 74E0      		ldi r23,lo8(4)
 1832 06d0 80E0      		ldi r24,0
 1833               	.LVL153:
 423:interpretacjaSMS.c **** 
 1834               		.loc 1 423 7 is_stmt 0 view .LVU370
 1835 06d2 00C0      		rjmp .L155
 1836               	.LVL154:
 1837               	.L104:
 433:interpretacjaSMS.c ****       tryb_pracy = 0; // Prywatny
 1838               		.loc 1 433 12 is_stmt 1 view .LVU371
 433:interpretacjaSMS.c ****       tryb_pracy = 0; // Prywatny
 1839               		.loc 1 433 15 is_stmt 0 view .LVU372
 1840 06d4 8930      		cpi r24,lo8(9)
 1841 06d6 01F4      		brne .L105
 434:interpretacjaSMS.c ****       zapisz_znak_w_eeprom(0, ADRES_EEPROM_TRYB_PRACY);
 1842               		.loc 1 434 7 is_stmt 1 view .LVU373
 434:interpretacjaSMS.c ****       zapisz_znak_w_eeprom(0, ADRES_EEPROM_TRYB_PRACY);
 1843               		.loc 1 434 18 is_stmt 0 view .LVU374
 1844 06d8 1092 0000 		sts tryb_pracy,__zero_reg__
 435:interpretacjaSMS.c **** 
 1845               		.loc 1 435 7 is_stmt 1 view .LVU375
 1846 06dc 6FEE      		ldi r22,lo8(-17)
 1847 06de 74E0      		ldi r23,lo8(4)
 1848 06e0 80E0      		ldi r24,0
 1849               	.LVL155:
 435:interpretacjaSMS.c **** 
 1850               		.loc 1 435 7 is_stmt 0 view .LVU376
 1851 06e2 00C0      		rjmp .L154
 1852               	.LVL156:
 1853               	.L105:
 445:interpretacjaSMS.c ****       tryb_pracy = 0; // Prywatny
 1854               		.loc 1 445 12 is_stmt 1 view .LVU377
 445:interpretacjaSMS.c ****       tryb_pracy = 0; // Prywatny
 1855               		.loc 1 445 15 is_stmt 0 view .LVU378
 1856 06e4 8631      		cpi r24,lo8(22)
 1857 06e6 01F4      		brne .L106
 446:interpretacjaSMS.c ****       zapisz_znak_w_eeprom(0, ADRES_EEPROM_TRYB_PRACY);
 1858               		.loc 1 446 7 is_stmt 1 view .LVU379
 446:interpretacjaSMS.c ****       zapisz_znak_w_eeprom(0, ADRES_EEPROM_TRYB_PRACY);
 1859               		.loc 1 446 18 is_stmt 0 view .LVU380
 1860 06e8 1092 0000 		sts tryb_pracy,__zero_reg__
 447:interpretacjaSMS.c **** 
 1861               		.loc 1 447 7 is_stmt 1 view .LVU381
 1862 06ec 6FEE      		ldi r22,lo8(-17)
 1863 06ee 74E0      		ldi r23,lo8(4)
 1864 06f0 80E0      		ldi r24,0
 1865               	.LVL157:
 447:interpretacjaSMS.c **** 
 1866               		.loc 1 447 7 is_stmt 0 view .LVU382
 1867 06f2 00C0      		rjmp .L152
 1868               	.LVL158:
 1869               	.L106:
 457:interpretacjaSMS.c ****       tryb_pracy = 0; // Prywatny
 1870               		.loc 1 457 12 is_stmt 1 view .LVU383
 457:interpretacjaSMS.c ****       tryb_pracy = 0; // Prywatny
 1871               		.loc 1 457 15 is_stmt 0 view .LVU384
 1872 06f4 8531      		cpi r24,lo8(21)
 1873 06f6 01F4      		brne .L107
 458:interpretacjaSMS.c ****       zapisz_znak_w_eeprom(0, ADRES_EEPROM_TRYB_PRACY);
 1874               		.loc 1 458 7 is_stmt 1 view .LVU385
 458:interpretacjaSMS.c ****       zapisz_znak_w_eeprom(0, ADRES_EEPROM_TRYB_PRACY);
 1875               		.loc 1 458 18 is_stmt 0 view .LVU386
 1876 06f8 1092 0000 		sts tryb_pracy,__zero_reg__
 459:interpretacjaSMS.c **** 
 1877               		.loc 1 459 7 is_stmt 1 view .LVU387
 1878 06fc 6FEE      		ldi r22,lo8(-17)
 1879 06fe 74E0      		ldi r23,lo8(4)
 1880 0700 80E0      		ldi r24,0
 1881               	.LVL159:
 459:interpretacjaSMS.c **** 
 1882               		.loc 1 459 7 is_stmt 0 view .LVU388
 1883 0702 00C0      		rjmp .L151
 1884               	.LVL160:
 1885               	.L108:
 459:interpretacjaSMS.c **** 
 1886               		.loc 1 459 7 view .LVU389
 1887               	.LBE50:
 1888               	.LBB51:
 510:interpretacjaSMS.c ****     if (*sms == '\0')
 1889               		.loc 1 510 5 is_stmt 1 discriminator 2 view .LVU390
 1890 0704 0F5F      		subi r16,-1
 1891 0706 1F4F      		sbci r17,-1
 1892 0708 1F83      		std Y+7,r17
 1893 070a 0E83      		std Y+6,r16
 1894               	.L88:
 510:interpretacjaSMS.c ****     if (*sms == '\0')
 1895               		.loc 1 510 5 discriminator 1 view .LVU391
 1896 070c 0E81      		ldd r16,Y+6
 1897 070e 1F81      		ldd r17,Y+7
 1898 0710 F801      		movw r30,r16
 1899 0712 F080      		ld r15,Z
 1900 0714 8F2D      		mov r24,r15
 1901 0716 90E0      		ldi r25,0
 1902 0718 0E94 0000 		call isspace
 1903               	.LVL161:
 1904 071c 892B      		or r24,r25
 1905 071e 01F4      		brne .L108
 511:interpretacjaSMS.c ****       return INTERPRETACJA_SMS_BLEDNE_DANE;
 1906               		.loc 1 511 5 view .LVU392
 511:interpretacjaSMS.c ****       return INTERPRETACJA_SMS_BLEDNE_DANE;
 1907               		.loc 1 511 8 is_stmt 0 view .LVU393
 1908 0720 FF20      		tst r15
 1909 0722 01F4      		brne .+2
 1910 0724 00C0      		rjmp .L118
 515:interpretacjaSMS.c ****     wysylany_blok_SIM900[0] = 'A';
 1911               		.loc 1 515 5 is_stmt 1 view .LVU394
 516:interpretacjaSMS.c ****     wysylany_blok_SIM900[1] = 'T';
 1912               		.loc 1 516 5 view .LVU395
 516:interpretacjaSMS.c ****     wysylany_blok_SIM900[1] = 'T';
 1913               		.loc 1 516 29 is_stmt 0 view .LVU396
 1914 0726 81E4      		ldi r24,lo8(65)
 1915 0728 8093 0000 		sts wysylany_blok_SIM900,r24
 517:interpretacjaSMS.c ****     sprintf((char *)wysylany_blok_SIM900 + 2, "+CUSD=1,\"%s\",15", sms);
 1916               		.loc 1 517 5 is_stmt 1 view .LVU397
 517:interpretacjaSMS.c ****     sprintf((char *)wysylany_blok_SIM900 + 2, "+CUSD=1,\"%s\",15", sms);
 1917               		.loc 1 517 29 is_stmt 0 view .LVU398
 1918 072c 84E5      		ldi r24,lo8(84)
 1919 072e 8093 0000 		sts wysylany_blok_SIM900+1,r24
 518:interpretacjaSMS.c **** 
 1920               		.loc 1 518 5 is_stmt 1 view .LVU399
 1921 0732 1F93      		push r17
 1922 0734 0F93      		push r16
 1923 0736 80E0      		ldi r24,lo8(.LC2)
 1924 0738 90E0      		ldi r25,hi8(.LC2)
 1925 073a 9F93      		push r25
 1926 073c 8F93      		push r24
 1927 073e 80E0      		ldi r24,lo8(wysylany_blok_SIM900+2)
 1928 0740 90E0      		ldi r25,hi8(wysylany_blok_SIM900+2)
 1929 0742 9F93      		push r25
 1930 0744 8F93      		push r24
 1931 0746 0E94 0000 		call sprintf
 1932               	.LVL162:
 520:interpretacjaSMS.c ****     extern uchar oczekiwanie_na_ussd;
 1933               		.loc 1 520 5 view .LVU400
 521:interpretacjaSMS.c ****     extern uint licznik_timeout_ussd_100ms;
 1934               		.loc 1 521 5 view .LVU401
 522:interpretacjaSMS.c **** 
 1935               		.loc 1 522 5 view .LVU402
 524:interpretacjaSMS.c ****     oczekiwanie_na_ussd = TRUE;
 1936               		.loc 1 524 5 view .LVU403
 1937 074a 0E94 0000 		call wyslij_polecenie_RAM_SIM900
 1938               	.LVL163:
 525:interpretacjaSMS.c ****     licznik_timeout_ussd_100ms = 300; // 30 sekund
 1939               		.loc 1 525 5 view .LVU404
 525:interpretacjaSMS.c ****     licznik_timeout_ussd_100ms = 300; // 30 sekund
 1940               		.loc 1 525 25 is_stmt 0 view .LVU405
 1941 074e 8FEF      		ldi r24,lo8(-1)
 1942 0750 8093 0000 		sts oczekiwanie_na_ussd,r24
 526:interpretacjaSMS.c **** 
 1943               		.loc 1 526 5 is_stmt 1 view .LVU406
 526:interpretacjaSMS.c **** 
 1944               		.loc 1 526 32 is_stmt 0 view .LVU407
 1945 0754 8CE2      		ldi r24,lo8(44)
 1946 0756 91E0      		ldi r25,lo8(1)
 1947 0758 9093 0000 		sts licznik_timeout_ussd_100ms+1,r25
 1948 075c 8093 0000 		sts licznik_timeout_ussd_100ms,r24
 528:interpretacjaSMS.c ****   }
 1949               		.loc 1 528 5 is_stmt 1 view .LVU408
 528:interpretacjaSMS.c ****   }
 1950               		.loc 1 528 12 is_stmt 0 view .LVU409
 1951 0760 0F90      		pop __tmp_reg__
 1952 0762 0F90      		pop __tmp_reg__
 1953 0764 0F90      		pop __tmp_reg__
 1954 0766 0F90      		pop __tmp_reg__
 1955 0768 0F90      		pop __tmp_reg__
 1956 076a 0F90      		pop __tmp_reg__
 1957 076c 00C0      		rjmp .L145
 1958               	.LVL164:
 1959               	.L87:
 528:interpretacjaSMS.c ****   }
 1960               		.loc 1 528 12 view .LVU410
 1961               	.LBE51:
 1962               	.LBB52:
 536:interpretacjaSMS.c ****     if (pobierz_long(&sms, &czas)) {
 1963               		.loc 1 536 5 is_stmt 1 view .LVU411
 537:interpretacjaSMS.c ****       if (czas < 1 || czas > 99999) {
 1964               		.loc 1 537 5 view .LVU412
 537:interpretacjaSMS.c ****       if (czas < 1 || czas > 99999) {
 1965               		.loc 1 537 9 is_stmt 0 view .LVU413
 1966 076e B501      		movw r22,r10
 1967 0770 CE01      		movw r24,r28
 1968 0772 0696      		adiw r24,6
 1969 0774 0E94 0000 		call pobierz_long
 1970               	.LVL165:
 537:interpretacjaSMS.c ****       if (czas < 1 || czas > 99999) {
 1971               		.loc 1 537 8 view .LVU414
 1972 0778 8823      		tst r24
 1973 077a 01F4      		brne .+2
 1974 077c 00C0      		rjmp .L118
 1975               	.LBB37:
 538:interpretacjaSMS.c ****         return INTERPRETACJA_SMS_BLEDNE_DANE;
 1976               		.loc 1 538 7 is_stmt 1 view .LVU415
 538:interpretacjaSMS.c ****         return INTERPRETACJA_SMS_BLEDNE_DANE;
 1977               		.loc 1 538 20 is_stmt 0 view .LVU416
 1978 077e 8981      		ldd r24,Y+1
 1979 0780 482F      		mov r20,r24
 1980 0782 5A81      		ldd r21,Y+2
 1981 0784 6B81      		ldd r22,Y+3
 1982 0786 7C81      		ldd r23,Y+4
 1983 0788 8A01      		movw r16,r20
 1984               	.LVL166:
 538:interpretacjaSMS.c ****         return INTERPRETACJA_SMS_BLEDNE_DANE;
 1985               		.loc 1 538 20 view .LVU417
 1986 078a 9B01      		movw r18,r22
 1987 078c 0150      		subi r16,1
 1988 078e 1109      		sbc r17,__zero_reg__
 1989 0790 2109      		sbc r18,__zero_reg__
 1990 0792 3109      		sbc r19,__zero_reg__
 538:interpretacjaSMS.c ****         return INTERPRETACJA_SMS_BLEDNE_DANE;
 1991               		.loc 1 538 10 view .LVU418
 1992 0794 0F39      		cpi r16,-97
 1993 0796 1648      		sbci r17,-122
 1994 0798 2140      		sbci r18,1
 1995 079a 3105      		cpc r19,__zero_reg__
 1996 079c 00F0      		brlo .+2
 1997 079e 00C0      		rjmp .L118
 543:interpretacjaSMS.c ****       uint32_t poprzedni_czas = clip_duration_sekundy;
 1998               		.loc 1 543 7 is_stmt 1 view .LVU419
 544:interpretacjaSMS.c ****       clip_duration_sekundy = (uint32_t)czas;
 1999               		.loc 1 544 7 view .LVU420
 544:interpretacjaSMS.c ****       clip_duration_sekundy = (uint32_t)czas;
 2000               		.loc 1 544 16 is_stmt 0 view .LVU421
 2001 07a0 C090 0000 		lds r12,clip_duration_sekundy
 2002 07a4 D090 0000 		lds r13,clip_duration_sekundy+1
 2003 07a8 E090 0000 		lds r14,clip_duration_sekundy+2
 2004 07ac F090 0000 		lds r15,clip_duration_sekundy+3
 2005               	.LVL167:
 545:interpretacjaSMS.c **** 
 2006               		.loc 1 545 7 is_stmt 1 view .LVU422
 545:interpretacjaSMS.c **** 
 2007               		.loc 1 545 29 is_stmt 0 view .LVU423
 2008 07b0 4093 0000 		sts clip_duration_sekundy,r20
 2009 07b4 5093 0000 		sts clip_duration_sekundy+1,r21
 2010 07b8 6093 0000 		sts clip_duration_sekundy+2,r22
 2011 07bc 7093 0000 		sts clip_duration_sekundy+3,r23
 548:interpretacjaSMS.c ****                            ADRES_EEPROM_CLIP_DURATION);
 2012               		.loc 1 548 7 is_stmt 1 view .LVU424
 2013 07c0 6AEE      		ldi r22,lo8(-22)
 2014 07c2 74E0      		ldi r23,lo8(4)
 2015 07c4 0E94 0000 		call zapisz_znak_w_eeprom
 2016               	.LVL168:
 550:interpretacjaSMS.c ****                            ADRES_EEPROM_CLIP_DURATION + 1);
 2017               		.loc 1 550 7 view .LVU425
 2018 07c8 6BEE      		ldi r22,lo8(-21)
 2019 07ca 74E0      		ldi r23,lo8(4)
 2020 07cc 8091 0000 		lds r24,clip_duration_sekundy+1
 2021 07d0 0E94 0000 		call zapisz_znak_w_eeprom
 2022               	.LVL169:
 552:interpretacjaSMS.c ****                            ADRES_EEPROM_CLIP_DURATION + 2);
 2023               		.loc 1 552 7 view .LVU426
 2024 07d4 6CEE      		ldi r22,lo8(-20)
 2025 07d6 74E0      		ldi r23,lo8(4)
 2026 07d8 8091 0000 		lds r24,clip_duration_sekundy+2
 2027 07dc 0E94 0000 		call zapisz_znak_w_eeprom
 2028               	.LVL170:
 554:interpretacjaSMS.c ****                            ADRES_EEPROM_CLIP_DURATION + 3);
 2029               		.loc 1 554 7 view .LVU427
 2030 07e0 6DEE      		ldi r22,lo8(-19)
 2031 07e2 74E0      		ldi r23,lo8(4)
 2032 07e4 8091 0000 		lds r24,clip_duration_sekundy+3
 2033 07e8 0E94 0000 		call zapisz_znak_w_eeprom
 2034               	.LVL171:
 558:interpretacjaSMS.c ****         // Wyczysc stan w EEPROM
 2035               		.loc 1 558 7 view .LVU428
 558:interpretacjaSMS.c ****         // Wyczysc stan w EEPROM
 2036               		.loc 1 558 10 is_stmt 0 view .LVU429
 2037 07ec 2FE9      		ldi r18,-97
 2038 07ee C216      		cp r12,r18
 2039 07f0 26E8      		ldi r18,-122
 2040 07f2 D206      		cpc r13,r18
 2041 07f4 21E0      		ldi r18,1
 2042 07f6 E206      		cpc r14,r18
 2043 07f8 F104      		cpc r15,__zero_reg__
 2044 07fa 01F4      		brne .L148
 558:interpretacjaSMS.c ****         // Wyczysc stan w EEPROM
 2045               		.loc 1 558 35 discriminator 1 view .LVU430
 2046 07fc 8981      		ldd r24,Y+1
 2047 07fe 9A81      		ldd r25,Y+2
 2048 0800 AB81      		ldd r26,Y+3
 2049 0802 BC81      		ldd r27,Y+4
 2050 0804 8F39      		cpi r24,-97
 2051 0806 9648      		sbci r25,-122
 2052 0808 A140      		sbci r26,1
 2053 080a B105      		cpc r27,__zero_reg__
 2054 080c 01F0      		breq .L148
 2055               	.LBB38:
 560:interpretacjaSMS.c **** 
 2056               		.loc 1 560 9 is_stmt 1 view .LVU431
 2057 080e 65E0      		ldi r22,lo8(5)
 2058 0810 70E0      		ldi r23,0
 2059 0812 8FEF      		ldi r24,lo8(-1)
 2060 0814 0E94 0000 		call zapisz_znak_w_eeprom
 2061               	.LVL172:
 563:interpretacjaSMS.c ****         extern ulong licznik_przelacznik_wyjscia[LICZBA_WYJSC];
 2062               		.loc 1 563 9 view .LVU432
 564:interpretacjaSMS.c ****         stan_wyjscie[0] = FALSE;
 2063               		.loc 1 564 9 view .LVU433
 565:interpretacjaSMS.c ****         licznik_przelacznik_wyjscia[0] = 0;
 2064               		.loc 1 565 9 view .LVU434
 565:interpretacjaSMS.c ****         licznik_przelacznik_wyjscia[0] = 0;
 2065               		.loc 1 565 25 is_stmt 0 view .LVU435
 2066 0818 1092 0000 		sts stan_wyjscie,__zero_reg__
 566:interpretacjaSMS.c ****         WYLACZ_OUT0();
 2067               		.loc 1 566 9 is_stmt 1 view .LVU436
 566:interpretacjaSMS.c ****         WYLACZ_OUT0();
 2068               		.loc 1 566 40 is_stmt 0 view .LVU437
 2069 081c 1092 0000 		sts licznik_przelacznik_wyjscia,__zero_reg__
 2070 0820 1092 0000 		sts licznik_przelacznik_wyjscia+1,__zero_reg__
 2071 0824 1092 0000 		sts licznik_przelacznik_wyjscia+2,__zero_reg__
 2072 0828 1092 0000 		sts licznik_przelacznik_wyjscia+3,__zero_reg__
 567:interpretacjaSMS.c ****       }
 2073               		.loc 1 567 9 is_stmt 1 view .LVU438
 2074 082c 5D98      		cbi 0xb,5
 2075               	.LBE38:
 570:interpretacjaSMS.c ****       return INTERPRETACJA_SMS_ON;
 2076               		.loc 1 570 7 view .LVU439
 2077               	.LVL173:
 2078               	.L148:
 570:interpretacjaSMS.c ****       return INTERPRETACJA_SMS_ON;
 2079               		.loc 1 570 7 is_stmt 0 view .LVU440
 2080               	.LBE37:
 2081               	.LBE52:
 2082               	.LBB53:
 614:interpretacjaSMS.c ****       return INTERPRETACJA_SMS_ON;
 2083               		.loc 1 614 7 is_stmt 1 view .LVU441
 2084 082e 0E94 0000 		call wymus_wylaczenie_wyjscia
 2085               	.LVL174:
 615:interpretacjaSMS.c ****     }
 2086               		.loc 1 615 7 view .LVU442
 615:interpretacjaSMS.c ****     }
 2087               		.loc 1 615 14 is_stmt 0 view .LVU443
 2088 0832 1FE0      		ldi r17,lo8(15)
 2089 0834 00C0      		rjmp .L70
 2090               	.L111:
 2091               	.LBE53:
 578:interpretacjaSMS.c **** 
 2092               		.loc 1 578 5 is_stmt 1 discriminator 2 view .LVU444
 2093 0836 0F5F      		subi r16,-1
 2094 0838 1F4F      		sbci r17,-1
 2095 083a 1F83      		std Y+7,r17
 2096 083c 0E83      		std Y+6,r16
 2097               	.L86:
 578:interpretacjaSMS.c **** 
 2098               		.loc 1 578 5 discriminator 1 view .LVU445
 2099 083e 0E81      		ldd r16,Y+6
 2100 0840 1F81      		ldd r17,Y+7
 2101 0842 F801      		movw r30,r16
 2102 0844 8081      		ld r24,Z
 2103 0846 90E0      		ldi r25,0
 2104 0848 0E94 0000 		call isspace
 2105               	.LVL175:
 2106 084c 892B      		or r24,r25
 2107 084e 01F4      		brne .L111
 581:interpretacjaSMS.c ****       extern uint32_t clip_duration_sekundy;
 2108               		.loc 1 581 5 view .LVU446
 2109               	.LBB54:
 581:interpretacjaSMS.c ****       extern uint32_t clip_duration_sekundy;
 2110               		.loc 1 581 28 view .LVU447
 581:interpretacjaSMS.c ****       extern uint32_t clip_duration_sekundy;
 2111               		.loc 1 581 28 view .LVU448
 2112               	.LBE54:
 581:interpretacjaSMS.c ****       extern uint32_t clip_duration_sekundy;
 2113               		.loc 1 581 9 is_stmt 0 view .LVU449
 2114 0850 42E0      		ldi r20,lo8(2)
 2115 0852 50E0      		ldi r21,0
 2116 0854 60E0      		ldi r22,lo8(__c.2781)
 2117 0856 70E0      		ldi r23,hi8(__c.2781)
 2118 0858 C801      		movw r24,r16
 2119 085a 0E94 0000 		call strncasecmp_P
 2120               	.LVL176:
 581:interpretacjaSMS.c ****       extern uint32_t clip_duration_sekundy;
 2121               		.loc 1 581 8 view .LVU450
 2122 085e 892B      		or r24,r25
 2123 0860 01F4      		brne .L112
 2124               	.LBB55:
 582:interpretacjaSMS.c ****       clip_duration_sekundy = 99999;
 2125               		.loc 1 582 7 is_stmt 1 view .LVU451
 583:interpretacjaSMS.c **** 
 2126               		.loc 1 583 7 view .LVU452
 583:interpretacjaSMS.c **** 
 2127               		.loc 1 583 29 is_stmt 0 view .LVU453
 2128 0862 8FE9      		ldi r24,lo8(-97)
 2129 0864 96E8      		ldi r25,lo8(-122)
 2130 0866 A1E0      		ldi r26,lo8(1)
 2131 0868 B0E0      		ldi r27,0
 2132 086a 8093 0000 		sts clip_duration_sekundy,r24
 2133 086e 9093 0000 		sts clip_duration_sekundy+1,r25
 2134 0872 A093 0000 		sts clip_duration_sekundy+2,r26
 2135 0876 B093 0000 		sts clip_duration_sekundy+3,r27
 586:interpretacjaSMS.c ****                            ADRES_EEPROM_CLIP_DURATION);
 2136               		.loc 1 586 7 is_stmt 1 view .LVU454
 2137 087a 6AEE      		ldi r22,lo8(-22)
 2138 087c 74E0      		ldi r23,lo8(4)
 2139 087e 8FE9      		ldi r24,lo8(-97)
 2140               	.L146:
 2141               	.LBE55:
 2142               	.LBB56:
 605:interpretacjaSMS.c ****                            ADRES_EEPROM_CLIP_DURATION);
 2143               		.loc 1 605 7 is_stmt 0 view .LVU455
 2144 0880 0E94 0000 		call zapisz_znak_w_eeprom
 2145               	.LVL177:
 607:interpretacjaSMS.c ****                            ADRES_EEPROM_CLIP_DURATION + 1);
 2146               		.loc 1 607 7 is_stmt 1 view .LVU456
 2147 0884 6BEE      		ldi r22,lo8(-21)
 2148 0886 74E0      		ldi r23,lo8(4)
 2149 0888 8091 0000 		lds r24,clip_duration_sekundy+1
 2150 088c 0E94 0000 		call zapisz_znak_w_eeprom
 2151               	.LVL178:
 609:interpretacjaSMS.c ****                            ADRES_EEPROM_CLIP_DURATION + 2);
 2152               		.loc 1 609 7 view .LVU457
 2153 0890 6CEE      		ldi r22,lo8(-20)
 2154 0892 74E0      		ldi r23,lo8(4)
 2155 0894 8091 0000 		lds r24,clip_duration_sekundy+2
 2156 0898 0E94 0000 		call zapisz_znak_w_eeprom
 2157               	.LVL179:
 611:interpretacjaSMS.c ****                            ADRES_EEPROM_CLIP_DURATION + 3);
 2158               		.loc 1 611 7 view .LVU458
 2159 089c 6DEE      		ldi r22,lo8(-19)
 2160 089e 74E0      		ldi r23,lo8(4)
 2161 08a0 8091 0000 		lds r24,clip_duration_sekundy+3
 2162 08a4 0E94 0000 		call zapisz_znak_w_eeprom
 2163               	.LVL180:
 2164 08a8 00C0      		rjmp .L148
 2165               	.L112:
 2166               	.LBE56:
 600:interpretacjaSMS.c ****       extern uint32_t clip_duration_sekundy;
 2167               		.loc 1 600 5 view .LVU459
 2168               	.LBB57:
 600:interpretacjaSMS.c ****       extern uint32_t clip_duration_sekundy;
 2169               		.loc 1 600 28 view .LVU460
 600:interpretacjaSMS.c ****       extern uint32_t clip_duration_sekundy;
 2170               		.loc 1 600 28 view .LVU461
 2171               	.LBE57:
 600:interpretacjaSMS.c ****       extern uint32_t clip_duration_sekundy;
 2172               		.loc 1 600 9 is_stmt 0 view .LVU462
 2173 08aa 43E0      		ldi r20,lo8(3)
 2174 08ac 50E0      		ldi r21,0
 2175 08ae 60E0      		ldi r22,lo8(__c.2785)
 2176 08b0 70E0      		ldi r23,hi8(__c.2785)
 2177 08b2 C801      		movw r24,r16
 2178 08b4 0E94 0000 		call strncasecmp_P
 2179               	.LVL181:
 600:interpretacjaSMS.c ****       extern uint32_t clip_duration_sekundy;
 2180               		.loc 1 600 8 view .LVU463
 2181 08b8 892B      		or r24,r25
 2182 08ba 01F0      		breq .+2
 2183 08bc 00C0      		rjmp .L118
 2184               	.LBB58:
 601:interpretacjaSMS.c ****       clip_duration_sekundy = 2; // Domyslny czas
 2185               		.loc 1 601 7 is_stmt 1 view .LVU464
 602:interpretacjaSMS.c **** 
 2186               		.loc 1 602 7 view .LVU465
 602:interpretacjaSMS.c **** 
 2187               		.loc 1 602 29 is_stmt 0 view .LVU466
 2188 08be 82E0      		ldi r24,lo8(2)
 2189 08c0 90E0      		ldi r25,0
 2190 08c2 A0E0      		ldi r26,0
 2191 08c4 B0E0      		ldi r27,0
 2192 08c6 8093 0000 		sts clip_duration_sekundy,r24
 2193 08ca 9093 0000 		sts clip_duration_sekundy+1,r25
 2194 08ce A093 0000 		sts clip_duration_sekundy+2,r26
 2195 08d2 B093 0000 		sts clip_duration_sekundy+3,r27
 605:interpretacjaSMS.c ****                            ADRES_EEPROM_CLIP_DURATION);
 2196               		.loc 1 605 7 is_stmt 1 view .LVU467
 2197 08d6 6AEE      		ldi r22,lo8(-22)
 2198 08d8 74E0      		ldi r23,lo8(4)
 2199 08da 00C0      		rjmp .L146
 2200               	.LVL182:
 2201               	.L85:
 605:interpretacjaSMS.c ****                            ADRES_EEPROM_CLIP_DURATION);
 2202               		.loc 1 605 7 is_stmt 0 view .LVU468
 2203               	.LBE58:
 623:interpretacjaSMS.c ****     for (;;)
 2204               		.loc 1 623 5 is_stmt 1 view .LVU469
 2205               	.LBB59:
 2206               	.LBI59:
 2207               		.file 2 "/opt/homebrew/Cellar/avr-gcc@8/8.5.0_3/avr/include/avr/wdt.h"
   1:/opt/homebrew/Cellar/avr-gcc@8/8.5.0_3/avr/include/avr/wdt.h **** /* Copyright (c) 2002, 2004 Marek Michalkiewicz
   2:/opt/homebrew/Cellar/avr-gcc@8/8.5.0_3/avr/include/avr/wdt.h ****    Copyright (c) 2005, 2006, 2007 Eric B. Weddington
   3:/opt/homebrew/Cellar/avr-gcc@8/8.5.0_3/avr/include/avr/wdt.h ****    All rights reserved.
   4:/opt/homebrew/Cellar/avr-gcc@8/8.5.0_3/avr/include/avr/wdt.h **** 
   5:/opt/homebrew/Cellar/avr-gcc@8/8.5.0_3/avr/include/avr/wdt.h ****    Redistribution and use in source and binary forms, with or without
   6:/opt/homebrew/Cellar/avr-gcc@8/8.5.0_3/avr/include/avr/wdt.h ****    modification, are permitted provided that the following conditions are met:
   7:/opt/homebrew/Cellar/avr-gcc@8/8.5.0_3/avr/include/avr/wdt.h **** 
   8:/opt/homebrew/Cellar/avr-gcc@8/8.5.0_3/avr/include/avr/wdt.h ****    * Redistributions of source code must retain the above copyright
   9:/opt/homebrew/Cellar/avr-gcc@8/8.5.0_3/avr/include/avr/wdt.h ****      notice, this list of conditions and the following disclaimer.
  10:/opt/homebrew/Cellar/avr-gcc@8/8.5.0_3/avr/include/avr/wdt.h **** 
  11:/opt/homebrew/Cellar/avr-gcc@8/8.5.0_3/avr/include/avr/wdt.h ****    * Redistributions in binary form must reproduce the above copyright
  12:/opt/homebrew/Cellar/avr-gcc@8/8.5.0_3/avr/include/avr/wdt.h ****      notice, this list of conditions and the following disclaimer in
  13:/opt/homebrew/Cellar/avr-gcc@8/8.5.0_3/avr/include/avr/wdt.h ****      the documentation and/or other materials provided with the
  14:/opt/homebrew/Cellar/avr-gcc@8/8.5.0_3/avr/include/avr/wdt.h ****      distribution.
  15:/opt/homebrew/Cellar/avr-gcc@8/8.5.0_3/avr/include/avr/wdt.h **** 
  16:/opt/homebrew/Cellar/avr-gcc@8/8.5.0_3/avr/include/avr/wdt.h ****    * Neither the name of the copyright holders nor the names of
  17:/opt/homebrew/Cellar/avr-gcc@8/8.5.0_3/avr/include/avr/wdt.h ****      contributors may be used to endorse or promote products derived
  18:/opt/homebrew/Cellar/avr-gcc@8/8.5.0_3/avr/include/avr/wdt.h ****      from this software without specific prior written permission.
  19:/opt/homebrew/Cellar/avr-gcc@8/8.5.0_3/avr/include/avr/wdt.h **** 
  20:/opt/homebrew/Cellar/avr-gcc@8/8.5.0_3/avr/include/avr/wdt.h ****   THIS SOFTWARE IS PROVIDED BY THE COPYRIGHT HOLDERS AND CONTRIBUTORS "AS IS"
  21:/opt/homebrew/Cellar/avr-gcc@8/8.5.0_3/avr/include/avr/wdt.h ****   AND ANY EXPRESS OR IMPLIED WARRANTIES, INCLUDING, BUT NOT LIMITED TO, THE
  22:/opt/homebrew/Cellar/avr-gcc@8/8.5.0_3/avr/include/avr/wdt.h ****   IMPLIED WARRANTIES OF MERCHANTABILITY AND FITNESS FOR A PARTICULAR PURPOSE
  23:/opt/homebrew/Cellar/avr-gcc@8/8.5.0_3/avr/include/avr/wdt.h ****   ARE DISCLAIMED. IN NO EVENT SHALL THE COPYRIGHT OWNER OR CONTRIBUTORS BE
  24:/opt/homebrew/Cellar/avr-gcc@8/8.5.0_3/avr/include/avr/wdt.h ****   LIABLE FOR ANY DIRECT, INDIRECT, INCIDENTAL, SPECIAL, EXEMPLARY, OR
  25:/opt/homebrew/Cellar/avr-gcc@8/8.5.0_3/avr/include/avr/wdt.h ****   CONSEQUENTIAL DAMAGES (INCLUDING, BUT NOT LIMITED TO, PROCUREMENT OF
  26:/opt/homebrew/Cellar/avr-gcc@8/8.5.0_3/avr/include/avr/wdt.h ****   SUBSTITUTE GOODS OR SERVICES; LOSS OF USE, DATA, OR PROFITS; OR BUSINESS
  27:/opt/homebrew/Cellar/avr-gcc@8/8.5.0_3/avr/include/avr/wdt.h ****   INTERRUPTION) HOWEVER CAUSED AND ON ANY THEORY OF LIABILITY, WHETHER IN
  28:/opt/homebrew/Cellar/avr-gcc@8/8.5.0_3/avr/include/avr/wdt.h ****   CONTRACT, STRICT LIABILITY, OR TORT (INCLUDING NEGLIGENCE OR OTHERWISE)
  29:/opt/homebrew/Cellar/avr-gcc@8/8.5.0_3/avr/include/avr/wdt.h ****   ARISING IN ANY WAY OUT OF THE USE OF THIS SOFTWARE, EVEN IF ADVISED OF THE
  30:/opt/homebrew/Cellar/avr-gcc@8/8.5.0_3/avr/include/avr/wdt.h ****   POSSIBILITY OF SUCH DAMAGE. */
  31:/opt/homebrew/Cellar/avr-gcc@8/8.5.0_3/avr/include/avr/wdt.h **** 
  32:/opt/homebrew/Cellar/avr-gcc@8/8.5.0_3/avr/include/avr/wdt.h **** /* $Id: wdt.h 2522 2016-04-20 05:43:23Z joerg_wunsch $ */
  33:/opt/homebrew/Cellar/avr-gcc@8/8.5.0_3/avr/include/avr/wdt.h **** 
  34:/opt/homebrew/Cellar/avr-gcc@8/8.5.0_3/avr/include/avr/wdt.h **** /*
  35:/opt/homebrew/Cellar/avr-gcc@8/8.5.0_3/avr/include/avr/wdt.h ****    avr/wdt.h - macros for AVR watchdog timer
  36:/opt/homebrew/Cellar/avr-gcc@8/8.5.0_3/avr/include/avr/wdt.h ****  */
  37:/opt/homebrew/Cellar/avr-gcc@8/8.5.0_3/avr/include/avr/wdt.h **** 
  38:/opt/homebrew/Cellar/avr-gcc@8/8.5.0_3/avr/include/avr/wdt.h **** #ifndef _AVR_WDT_H_
  39:/opt/homebrew/Cellar/avr-gcc@8/8.5.0_3/avr/include/avr/wdt.h **** #define _AVR_WDT_H_
  40:/opt/homebrew/Cellar/avr-gcc@8/8.5.0_3/avr/include/avr/wdt.h **** 
  41:/opt/homebrew/Cellar/avr-gcc@8/8.5.0_3/avr/include/avr/wdt.h **** #include <avr/io.h>
  42:/opt/homebrew/Cellar/avr-gcc@8/8.5.0_3/avr/include/avr/wdt.h **** #include <stdint.h>
  43:/opt/homebrew/Cellar/avr-gcc@8/8.5.0_3/avr/include/avr/wdt.h **** 
  44:/opt/homebrew/Cellar/avr-gcc@8/8.5.0_3/avr/include/avr/wdt.h **** /** \file */
  45:/opt/homebrew/Cellar/avr-gcc@8/8.5.0_3/avr/include/avr/wdt.h **** /** \defgroup avr_watchdog <avr/wdt.h>: Watchdog timer handling
  46:/opt/homebrew/Cellar/avr-gcc@8/8.5.0_3/avr/include/avr/wdt.h ****     \code #include <avr/wdt.h> \endcode
  47:/opt/homebrew/Cellar/avr-gcc@8/8.5.0_3/avr/include/avr/wdt.h **** 
  48:/opt/homebrew/Cellar/avr-gcc@8/8.5.0_3/avr/include/avr/wdt.h ****     This header file declares the interface to some inline macros
  49:/opt/homebrew/Cellar/avr-gcc@8/8.5.0_3/avr/include/avr/wdt.h ****     handling the watchdog timer present in many AVR devices.  In order
  50:/opt/homebrew/Cellar/avr-gcc@8/8.5.0_3/avr/include/avr/wdt.h ****     to prevent the watchdog timer configuration from being
  51:/opt/homebrew/Cellar/avr-gcc@8/8.5.0_3/avr/include/avr/wdt.h ****     accidentally altered by a crashing application, a special timed
  52:/opt/homebrew/Cellar/avr-gcc@8/8.5.0_3/avr/include/avr/wdt.h ****     sequence is required in order to change it.  The macros within
  53:/opt/homebrew/Cellar/avr-gcc@8/8.5.0_3/avr/include/avr/wdt.h ****     this header file handle the required sequence automatically
  54:/opt/homebrew/Cellar/avr-gcc@8/8.5.0_3/avr/include/avr/wdt.h ****     before changing any value.  Interrupts will be disabled during
  55:/opt/homebrew/Cellar/avr-gcc@8/8.5.0_3/avr/include/avr/wdt.h ****     the manipulation.
  56:/opt/homebrew/Cellar/avr-gcc@8/8.5.0_3/avr/include/avr/wdt.h **** 
  57:/opt/homebrew/Cellar/avr-gcc@8/8.5.0_3/avr/include/avr/wdt.h ****     \note Depending on the fuse configuration of the particular
  58:/opt/homebrew/Cellar/avr-gcc@8/8.5.0_3/avr/include/avr/wdt.h ****     device, further restrictions might apply, in particular it might
  59:/opt/homebrew/Cellar/avr-gcc@8/8.5.0_3/avr/include/avr/wdt.h ****     be disallowed to turn off the watchdog timer.
  60:/opt/homebrew/Cellar/avr-gcc@8/8.5.0_3/avr/include/avr/wdt.h **** 
  61:/opt/homebrew/Cellar/avr-gcc@8/8.5.0_3/avr/include/avr/wdt.h ****     Note that for newer devices (ATmega88 and newer, effectively any
  62:/opt/homebrew/Cellar/avr-gcc@8/8.5.0_3/avr/include/avr/wdt.h ****     AVR that has the option to also generate interrupts), the watchdog
  63:/opt/homebrew/Cellar/avr-gcc@8/8.5.0_3/avr/include/avr/wdt.h ****     timer remains active even after a system reset (except a power-on
  64:/opt/homebrew/Cellar/avr-gcc@8/8.5.0_3/avr/include/avr/wdt.h ****     condition), using the fastest prescaler value (approximately 15
  65:/opt/homebrew/Cellar/avr-gcc@8/8.5.0_3/avr/include/avr/wdt.h ****     ms).  It is therefore required to turn off the watchdog early
  66:/opt/homebrew/Cellar/avr-gcc@8/8.5.0_3/avr/include/avr/wdt.h ****     during program startup, the datasheet recommends a sequence like
  67:/opt/homebrew/Cellar/avr-gcc@8/8.5.0_3/avr/include/avr/wdt.h ****     the following:
  68:/opt/homebrew/Cellar/avr-gcc@8/8.5.0_3/avr/include/avr/wdt.h **** 
  69:/opt/homebrew/Cellar/avr-gcc@8/8.5.0_3/avr/include/avr/wdt.h ****     \code
  70:/opt/homebrew/Cellar/avr-gcc@8/8.5.0_3/avr/include/avr/wdt.h ****     #include <stdint.h>
  71:/opt/homebrew/Cellar/avr-gcc@8/8.5.0_3/avr/include/avr/wdt.h ****     #include <avr/wdt.h>
  72:/opt/homebrew/Cellar/avr-gcc@8/8.5.0_3/avr/include/avr/wdt.h **** 
  73:/opt/homebrew/Cellar/avr-gcc@8/8.5.0_3/avr/include/avr/wdt.h ****     uint8_t mcusr_mirror __attribute__ ((section (".noinit")));
  74:/opt/homebrew/Cellar/avr-gcc@8/8.5.0_3/avr/include/avr/wdt.h **** 
  75:/opt/homebrew/Cellar/avr-gcc@8/8.5.0_3/avr/include/avr/wdt.h ****     void get_mcusr(void) \
  76:/opt/homebrew/Cellar/avr-gcc@8/8.5.0_3/avr/include/avr/wdt.h ****       __attribute__((naked)) \
  77:/opt/homebrew/Cellar/avr-gcc@8/8.5.0_3/avr/include/avr/wdt.h ****       __attribute__((section(".init3")));
  78:/opt/homebrew/Cellar/avr-gcc@8/8.5.0_3/avr/include/avr/wdt.h ****     void get_mcusr(void)
  79:/opt/homebrew/Cellar/avr-gcc@8/8.5.0_3/avr/include/avr/wdt.h ****     {
  80:/opt/homebrew/Cellar/avr-gcc@8/8.5.0_3/avr/include/avr/wdt.h ****       mcusr_mirror = MCUSR;
  81:/opt/homebrew/Cellar/avr-gcc@8/8.5.0_3/avr/include/avr/wdt.h ****       MCUSR = 0;
  82:/opt/homebrew/Cellar/avr-gcc@8/8.5.0_3/avr/include/avr/wdt.h ****       wdt_disable();
  83:/opt/homebrew/Cellar/avr-gcc@8/8.5.0_3/avr/include/avr/wdt.h ****     }
  84:/opt/homebrew/Cellar/avr-gcc@8/8.5.0_3/avr/include/avr/wdt.h ****     \endcode
  85:/opt/homebrew/Cellar/avr-gcc@8/8.5.0_3/avr/include/avr/wdt.h **** 
  86:/opt/homebrew/Cellar/avr-gcc@8/8.5.0_3/avr/include/avr/wdt.h ****     Saving the value of MCUSR in \c mcusr_mirror is only needed if the
  87:/opt/homebrew/Cellar/avr-gcc@8/8.5.0_3/avr/include/avr/wdt.h ****     application later wants to examine the reset source, but in particular, 
  88:/opt/homebrew/Cellar/avr-gcc@8/8.5.0_3/avr/include/avr/wdt.h ****     clearing the watchdog reset flag before disabling the
  89:/opt/homebrew/Cellar/avr-gcc@8/8.5.0_3/avr/include/avr/wdt.h ****     watchdog is required, according to the datasheet.
  90:/opt/homebrew/Cellar/avr-gcc@8/8.5.0_3/avr/include/avr/wdt.h **** */
  91:/opt/homebrew/Cellar/avr-gcc@8/8.5.0_3/avr/include/avr/wdt.h **** 
  92:/opt/homebrew/Cellar/avr-gcc@8/8.5.0_3/avr/include/avr/wdt.h **** /**
  93:/opt/homebrew/Cellar/avr-gcc@8/8.5.0_3/avr/include/avr/wdt.h ****    \ingroup avr_watchdog
  94:/opt/homebrew/Cellar/avr-gcc@8/8.5.0_3/avr/include/avr/wdt.h ****    Reset the watchdog timer.  When the watchdog timer is enabled,
  95:/opt/homebrew/Cellar/avr-gcc@8/8.5.0_3/avr/include/avr/wdt.h ****    a call to this instruction is required before the timer expires,
  96:/opt/homebrew/Cellar/avr-gcc@8/8.5.0_3/avr/include/avr/wdt.h ****    otherwise a watchdog-initiated device reset will occur. 
  97:/opt/homebrew/Cellar/avr-gcc@8/8.5.0_3/avr/include/avr/wdt.h **** */
  98:/opt/homebrew/Cellar/avr-gcc@8/8.5.0_3/avr/include/avr/wdt.h **** 
  99:/opt/homebrew/Cellar/avr-gcc@8/8.5.0_3/avr/include/avr/wdt.h **** #define wdt_reset() __asm__ __volatile__ ("wdr")
 100:/opt/homebrew/Cellar/avr-gcc@8/8.5.0_3/avr/include/avr/wdt.h **** 
 101:/opt/homebrew/Cellar/avr-gcc@8/8.5.0_3/avr/include/avr/wdt.h **** #ifndef __DOXYGEN__
 102:/opt/homebrew/Cellar/avr-gcc@8/8.5.0_3/avr/include/avr/wdt.h **** 
 103:/opt/homebrew/Cellar/avr-gcc@8/8.5.0_3/avr/include/avr/wdt.h **** #if defined(WDP3)
 104:/opt/homebrew/Cellar/avr-gcc@8/8.5.0_3/avr/include/avr/wdt.h **** # define _WD_PS3_MASK       _BV(WDP3)
 105:/opt/homebrew/Cellar/avr-gcc@8/8.5.0_3/avr/include/avr/wdt.h **** #else
 106:/opt/homebrew/Cellar/avr-gcc@8/8.5.0_3/avr/include/avr/wdt.h **** # define _WD_PS3_MASK       0x00
 107:/opt/homebrew/Cellar/avr-gcc@8/8.5.0_3/avr/include/avr/wdt.h **** #endif
 108:/opt/homebrew/Cellar/avr-gcc@8/8.5.0_3/avr/include/avr/wdt.h **** 
 109:/opt/homebrew/Cellar/avr-gcc@8/8.5.0_3/avr/include/avr/wdt.h **** #if defined(WDTCSR)
 110:/opt/homebrew/Cellar/avr-gcc@8/8.5.0_3/avr/include/avr/wdt.h **** #  define _WD_CONTROL_REG     WDTCSR
 111:/opt/homebrew/Cellar/avr-gcc@8/8.5.0_3/avr/include/avr/wdt.h **** #elif defined(WDTCR)
 112:/opt/homebrew/Cellar/avr-gcc@8/8.5.0_3/avr/include/avr/wdt.h **** #  define _WD_CONTROL_REG     WDTCR
 113:/opt/homebrew/Cellar/avr-gcc@8/8.5.0_3/avr/include/avr/wdt.h **** #else
 114:/opt/homebrew/Cellar/avr-gcc@8/8.5.0_3/avr/include/avr/wdt.h **** #  define _WD_CONTROL_REG     WDT
 115:/opt/homebrew/Cellar/avr-gcc@8/8.5.0_3/avr/include/avr/wdt.h **** #endif
 116:/opt/homebrew/Cellar/avr-gcc@8/8.5.0_3/avr/include/avr/wdt.h **** 
 117:/opt/homebrew/Cellar/avr-gcc@8/8.5.0_3/avr/include/avr/wdt.h **** #if defined(WDTOE)
 118:/opt/homebrew/Cellar/avr-gcc@8/8.5.0_3/avr/include/avr/wdt.h **** #define _WD_CHANGE_BIT      WDTOE
 119:/opt/homebrew/Cellar/avr-gcc@8/8.5.0_3/avr/include/avr/wdt.h **** #else
 120:/opt/homebrew/Cellar/avr-gcc@8/8.5.0_3/avr/include/avr/wdt.h **** #define _WD_CHANGE_BIT      WDCE
 121:/opt/homebrew/Cellar/avr-gcc@8/8.5.0_3/avr/include/avr/wdt.h **** #endif
 122:/opt/homebrew/Cellar/avr-gcc@8/8.5.0_3/avr/include/avr/wdt.h **** 
 123:/opt/homebrew/Cellar/avr-gcc@8/8.5.0_3/avr/include/avr/wdt.h **** #endif	/* !__DOXYGEN__ */
 124:/opt/homebrew/Cellar/avr-gcc@8/8.5.0_3/avr/include/avr/wdt.h **** 
 125:/opt/homebrew/Cellar/avr-gcc@8/8.5.0_3/avr/include/avr/wdt.h **** 
 126:/opt/homebrew/Cellar/avr-gcc@8/8.5.0_3/avr/include/avr/wdt.h **** /**
 127:/opt/homebrew/Cellar/avr-gcc@8/8.5.0_3/avr/include/avr/wdt.h ****    \ingroup avr_watchdog
 128:/opt/homebrew/Cellar/avr-gcc@8/8.5.0_3/avr/include/avr/wdt.h ****    Enable the watchdog timer, configuring it for expiry after
 129:/opt/homebrew/Cellar/avr-gcc@8/8.5.0_3/avr/include/avr/wdt.h ****    \c timeout (which is a combination of the \c WDP0 through
 130:/opt/homebrew/Cellar/avr-gcc@8/8.5.0_3/avr/include/avr/wdt.h ****    \c WDP2 bits to write into the \c WDTCR register; For those devices 
 131:/opt/homebrew/Cellar/avr-gcc@8/8.5.0_3/avr/include/avr/wdt.h ****    that have a \c WDTCSR register, it uses the combination of the \c WDP0 
 132:/opt/homebrew/Cellar/avr-gcc@8/8.5.0_3/avr/include/avr/wdt.h ****    through \c WDP3 bits).
 133:/opt/homebrew/Cellar/avr-gcc@8/8.5.0_3/avr/include/avr/wdt.h **** 
 134:/opt/homebrew/Cellar/avr-gcc@8/8.5.0_3/avr/include/avr/wdt.h ****    See also the symbolic constants \c WDTO_15MS et al.
 135:/opt/homebrew/Cellar/avr-gcc@8/8.5.0_3/avr/include/avr/wdt.h **** */
 136:/opt/homebrew/Cellar/avr-gcc@8/8.5.0_3/avr/include/avr/wdt.h **** 
 137:/opt/homebrew/Cellar/avr-gcc@8/8.5.0_3/avr/include/avr/wdt.h **** 
 138:/opt/homebrew/Cellar/avr-gcc@8/8.5.0_3/avr/include/avr/wdt.h **** #if defined(__AVR_XMEGA__)
 139:/opt/homebrew/Cellar/avr-gcc@8/8.5.0_3/avr/include/avr/wdt.h **** 
 140:/opt/homebrew/Cellar/avr-gcc@8/8.5.0_3/avr/include/avr/wdt.h **** /*
 141:/opt/homebrew/Cellar/avr-gcc@8/8.5.0_3/avr/include/avr/wdt.h ****    wdt_enable(timeout) for xmega devices
 142:/opt/homebrew/Cellar/avr-gcc@8/8.5.0_3/avr/include/avr/wdt.h **** ** write signature (CCP_IOREG_gc) that enables change of protected I/O
 143:/opt/homebrew/Cellar/avr-gcc@8/8.5.0_3/avr/include/avr/wdt.h ****    registers to the CCP register
 144:/opt/homebrew/Cellar/avr-gcc@8/8.5.0_3/avr/include/avr/wdt.h **** ** At the same time,
 145:/opt/homebrew/Cellar/avr-gcc@8/8.5.0_3/avr/include/avr/wdt.h ****    1) set WDT change enable (WDT_CEN_bm)
 146:/opt/homebrew/Cellar/avr-gcc@8/8.5.0_3/avr/include/avr/wdt.h ****    2) enable WDT (WDT_ENABLE_bm)
 147:/opt/homebrew/Cellar/avr-gcc@8/8.5.0_3/avr/include/avr/wdt.h ****    3) set timeout (timeout)
 148:/opt/homebrew/Cellar/avr-gcc@8/8.5.0_3/avr/include/avr/wdt.h **** ** Synchronization starts when ENABLE bit of WDT is set. So, wait till it
 149:/opt/homebrew/Cellar/avr-gcc@8/8.5.0_3/avr/include/avr/wdt.h ****    finishes (SYNCBUSY of STATUS register is automatically cleared after the
 150:/opt/homebrew/Cellar/avr-gcc@8/8.5.0_3/avr/include/avr/wdt.h ****    sync is finished).
 151:/opt/homebrew/Cellar/avr-gcc@8/8.5.0_3/avr/include/avr/wdt.h **** */
 152:/opt/homebrew/Cellar/avr-gcc@8/8.5.0_3/avr/include/avr/wdt.h **** #define wdt_enable(timeout) \
 153:/opt/homebrew/Cellar/avr-gcc@8/8.5.0_3/avr/include/avr/wdt.h **** do { \
 154:/opt/homebrew/Cellar/avr-gcc@8/8.5.0_3/avr/include/avr/wdt.h **** uint8_t temp; \
 155:/opt/homebrew/Cellar/avr-gcc@8/8.5.0_3/avr/include/avr/wdt.h **** __asm__ __volatile__ (         \
 156:/opt/homebrew/Cellar/avr-gcc@8/8.5.0_3/avr/include/avr/wdt.h ****     "in __tmp_reg__, %[rampd]"              "\n\t" \
 157:/opt/homebrew/Cellar/avr-gcc@8/8.5.0_3/avr/include/avr/wdt.h ****     "out %[rampd], __zero_reg__"            "\n\t" \
 158:/opt/homebrew/Cellar/avr-gcc@8/8.5.0_3/avr/include/avr/wdt.h ****     "out %[ccp_reg], %[ioreg_cen_mask]"     "\n\t" \
 159:/opt/homebrew/Cellar/avr-gcc@8/8.5.0_3/avr/include/avr/wdt.h ****     "sts %[wdt_reg], %[wdt_enable_timeout]" "\n\t" \
 160:/opt/homebrew/Cellar/avr-gcc@8/8.5.0_3/avr/include/avr/wdt.h ****     "1:lds %[tmp], %[wdt_status_reg]"       "\n\t" \
 161:/opt/homebrew/Cellar/avr-gcc@8/8.5.0_3/avr/include/avr/wdt.h ****     "sbrc %[tmp], %[wdt_syncbusy_bit]"      "\n\t" \
 162:/opt/homebrew/Cellar/avr-gcc@8/8.5.0_3/avr/include/avr/wdt.h ****     "rjmp 1b"                               "\n\t" \
 163:/opt/homebrew/Cellar/avr-gcc@8/8.5.0_3/avr/include/avr/wdt.h ****     "out %[rampd], __tmp_reg__"             "\n\t" \
 164:/opt/homebrew/Cellar/avr-gcc@8/8.5.0_3/avr/include/avr/wdt.h ****     : [tmp]                "=r" (temp) \
 165:/opt/homebrew/Cellar/avr-gcc@8/8.5.0_3/avr/include/avr/wdt.h ****     : [rampd]              "I" (_SFR_IO_ADDR(RAMPD)),      \
 166:/opt/homebrew/Cellar/avr-gcc@8/8.5.0_3/avr/include/avr/wdt.h ****       [ccp_reg]            "I" (_SFR_IO_ADDR(CCP)),        \
 167:/opt/homebrew/Cellar/avr-gcc@8/8.5.0_3/avr/include/avr/wdt.h ****       [ioreg_cen_mask]     "r" ((uint8_t)CCP_IOREG_gc),     \
 168:/opt/homebrew/Cellar/avr-gcc@8/8.5.0_3/avr/include/avr/wdt.h ****       [wdt_reg]            "n" (_SFR_MEM_ADDR(WDT_CTRL)),   \
 169:/opt/homebrew/Cellar/avr-gcc@8/8.5.0_3/avr/include/avr/wdt.h ****       [wdt_enable_timeout] "r" ((uint8_t)(WDT_CEN_bm | WDT_ENABLE_bm | timeout)), \
 170:/opt/homebrew/Cellar/avr-gcc@8/8.5.0_3/avr/include/avr/wdt.h ****       [wdt_status_reg]     "n" (_SFR_MEM_ADDR(WDT_STATUS)), \
 171:/opt/homebrew/Cellar/avr-gcc@8/8.5.0_3/avr/include/avr/wdt.h ****       [wdt_syncbusy_bit]   "I" (WDT_SYNCBUSY_bm)            \
 172:/opt/homebrew/Cellar/avr-gcc@8/8.5.0_3/avr/include/avr/wdt.h ****     : "r0" \
 173:/opt/homebrew/Cellar/avr-gcc@8/8.5.0_3/avr/include/avr/wdt.h **** ); \
 174:/opt/homebrew/Cellar/avr-gcc@8/8.5.0_3/avr/include/avr/wdt.h **** } while(0)
 175:/opt/homebrew/Cellar/avr-gcc@8/8.5.0_3/avr/include/avr/wdt.h **** 
 176:/opt/homebrew/Cellar/avr-gcc@8/8.5.0_3/avr/include/avr/wdt.h **** #define wdt_disable() \
 177:/opt/homebrew/Cellar/avr-gcc@8/8.5.0_3/avr/include/avr/wdt.h **** __asm__ __volatile__ (  \
 178:/opt/homebrew/Cellar/avr-gcc@8/8.5.0_3/avr/include/avr/wdt.h ****     "in __tmp_reg__, %[rampd]"          "\n\t" \
 179:/opt/homebrew/Cellar/avr-gcc@8/8.5.0_3/avr/include/avr/wdt.h ****     "out %[rampd], __zero_reg__"        "\n\t" \
 180:/opt/homebrew/Cellar/avr-gcc@8/8.5.0_3/avr/include/avr/wdt.h ****     "out %[ccp_reg], %[ioreg_cen_mask]" "\n\t" \
 181:/opt/homebrew/Cellar/avr-gcc@8/8.5.0_3/avr/include/avr/wdt.h ****     "sts %[wdt_reg], %[disable_mask]"   "\n\t" \
 182:/opt/homebrew/Cellar/avr-gcc@8/8.5.0_3/avr/include/avr/wdt.h ****     "out %[rampd], __tmp_reg__"         "\n\t" \
 183:/opt/homebrew/Cellar/avr-gcc@8/8.5.0_3/avr/include/avr/wdt.h ****     : \
 184:/opt/homebrew/Cellar/avr-gcc@8/8.5.0_3/avr/include/avr/wdt.h ****     : [rampd]             "I" (_SFR_IO_ADDR(RAMPD)),    \
 185:/opt/homebrew/Cellar/avr-gcc@8/8.5.0_3/avr/include/avr/wdt.h ****       [ccp_reg]           "I" (_SFR_IO_ADDR(CCP)),      \
 186:/opt/homebrew/Cellar/avr-gcc@8/8.5.0_3/avr/include/avr/wdt.h ****       [ioreg_cen_mask]    "r" ((uint8_t)CCP_IOREG_gc),   \
 187:/opt/homebrew/Cellar/avr-gcc@8/8.5.0_3/avr/include/avr/wdt.h ****       [wdt_reg]           "n" (_SFR_MEM_ADDR(WDT_CTRL)), \
 188:/opt/homebrew/Cellar/avr-gcc@8/8.5.0_3/avr/include/avr/wdt.h ****       [disable_mask]      "r" ((uint8_t)((~WDT_ENABLE_bm) | WDT_CEN_bm)) \
 189:/opt/homebrew/Cellar/avr-gcc@8/8.5.0_3/avr/include/avr/wdt.h ****     : "r0" \
 190:/opt/homebrew/Cellar/avr-gcc@8/8.5.0_3/avr/include/avr/wdt.h **** );
 191:/opt/homebrew/Cellar/avr-gcc@8/8.5.0_3/avr/include/avr/wdt.h **** 
 192:/opt/homebrew/Cellar/avr-gcc@8/8.5.0_3/avr/include/avr/wdt.h **** #elif defined(__AVR_TINY__)
 193:/opt/homebrew/Cellar/avr-gcc@8/8.5.0_3/avr/include/avr/wdt.h **** 
 194:/opt/homebrew/Cellar/avr-gcc@8/8.5.0_3/avr/include/avr/wdt.h **** #define wdt_enable(value) \
 195:/opt/homebrew/Cellar/avr-gcc@8/8.5.0_3/avr/include/avr/wdt.h **** __asm__ __volatile__ ( \
 196:/opt/homebrew/Cellar/avr-gcc@8/8.5.0_3/avr/include/avr/wdt.h ****     "in __tmp_reg__,__SREG__" "\n\t"  \
 197:/opt/homebrew/Cellar/avr-gcc@8/8.5.0_3/avr/include/avr/wdt.h ****     "cli" "\n\t"  \
 198:/opt/homebrew/Cellar/avr-gcc@8/8.5.0_3/avr/include/avr/wdt.h ****     "wdr" "\n\t"  \
 199:/opt/homebrew/Cellar/avr-gcc@8/8.5.0_3/avr/include/avr/wdt.h ****     "out %[CCPADDRESS],%[SIGNATURE]" "\n\t"  \
 200:/opt/homebrew/Cellar/avr-gcc@8/8.5.0_3/avr/include/avr/wdt.h ****     "out %[WDTREG],%[WDVALUE]" "\n\t"  \
 201:/opt/homebrew/Cellar/avr-gcc@8/8.5.0_3/avr/include/avr/wdt.h ****     "out __SREG__,__tmp_reg__" "\n\t"  \
 202:/opt/homebrew/Cellar/avr-gcc@8/8.5.0_3/avr/include/avr/wdt.h ****     : /* no outputs */  \
 203:/opt/homebrew/Cellar/avr-gcc@8/8.5.0_3/avr/include/avr/wdt.h ****     : [CCPADDRESS] "I" (_SFR_IO_ADDR(CCP)),  \
 204:/opt/homebrew/Cellar/avr-gcc@8/8.5.0_3/avr/include/avr/wdt.h ****       [SIGNATURE] "r" ((uint8_t)0xD8), \
 205:/opt/homebrew/Cellar/avr-gcc@8/8.5.0_3/avr/include/avr/wdt.h ****       [WDTREG] "I" (_SFR_IO_ADDR(_WD_CONTROL_REG)), \
 206:/opt/homebrew/Cellar/avr-gcc@8/8.5.0_3/avr/include/avr/wdt.h ****       [WDVALUE] "r" ((uint8_t)((value & 0x08 ? _WD_PS3_MASK : 0x00) \
 207:/opt/homebrew/Cellar/avr-gcc@8/8.5.0_3/avr/include/avr/wdt.h ****       | _BV(WDE) | (value & 0x07) )) \
 208:/opt/homebrew/Cellar/avr-gcc@8/8.5.0_3/avr/include/avr/wdt.h ****     : "r16" \
 209:/opt/homebrew/Cellar/avr-gcc@8/8.5.0_3/avr/include/avr/wdt.h **** )
 210:/opt/homebrew/Cellar/avr-gcc@8/8.5.0_3/avr/include/avr/wdt.h **** 
 211:/opt/homebrew/Cellar/avr-gcc@8/8.5.0_3/avr/include/avr/wdt.h **** #define wdt_disable() \
 212:/opt/homebrew/Cellar/avr-gcc@8/8.5.0_3/avr/include/avr/wdt.h **** do { \
 213:/opt/homebrew/Cellar/avr-gcc@8/8.5.0_3/avr/include/avr/wdt.h **** uint8_t temp_wd; \
 214:/opt/homebrew/Cellar/avr-gcc@8/8.5.0_3/avr/include/avr/wdt.h **** __asm__ __volatile__ ( \
 215:/opt/homebrew/Cellar/avr-gcc@8/8.5.0_3/avr/include/avr/wdt.h ****     "in __tmp_reg__,__SREG__" "\n\t"  \
 216:/opt/homebrew/Cellar/avr-gcc@8/8.5.0_3/avr/include/avr/wdt.h ****     "cli" "\n\t"  \
 217:/opt/homebrew/Cellar/avr-gcc@8/8.5.0_3/avr/include/avr/wdt.h ****     "wdr" "\n\t"  \
 218:/opt/homebrew/Cellar/avr-gcc@8/8.5.0_3/avr/include/avr/wdt.h ****     "out %[CCPADDRESS],%[SIGNATURE]" "\n\t"  \
 219:/opt/homebrew/Cellar/avr-gcc@8/8.5.0_3/avr/include/avr/wdt.h ****     "in  %[TEMP_WD],%[WDTREG]" "\n\t" \
 220:/opt/homebrew/Cellar/avr-gcc@8/8.5.0_3/avr/include/avr/wdt.h ****     "cbr %[TEMP_WD],%[WDVALUE]" "\n\t" \
 221:/opt/homebrew/Cellar/avr-gcc@8/8.5.0_3/avr/include/avr/wdt.h ****     "out %[WDTREG],%[TEMP_WD]" "\n\t" \
 222:/opt/homebrew/Cellar/avr-gcc@8/8.5.0_3/avr/include/avr/wdt.h ****     "out __SREG__,__tmp_reg__" "\n\t" \
 223:/opt/homebrew/Cellar/avr-gcc@8/8.5.0_3/avr/include/avr/wdt.h ****     : /*no output */ \
 224:/opt/homebrew/Cellar/avr-gcc@8/8.5.0_3/avr/include/avr/wdt.h ****     : [CCPADDRESS] "I" (_SFR_IO_ADDR(CCP)), \
 225:/opt/homebrew/Cellar/avr-gcc@8/8.5.0_3/avr/include/avr/wdt.h ****       [SIGNATURE] "r" ((uint8_t)0xD8), \
 226:/opt/homebrew/Cellar/avr-gcc@8/8.5.0_3/avr/include/avr/wdt.h ****       [WDTREG] "I" (_SFR_IO_ADDR(_WD_CONTROL_REG)), \
 227:/opt/homebrew/Cellar/avr-gcc@8/8.5.0_3/avr/include/avr/wdt.h ****       [TEMP_WD] "d" (temp_wd), \
 228:/opt/homebrew/Cellar/avr-gcc@8/8.5.0_3/avr/include/avr/wdt.h ****       [WDVALUE] "n" (1 << WDE) \
 229:/opt/homebrew/Cellar/avr-gcc@8/8.5.0_3/avr/include/avr/wdt.h ****     : "r16" \
 230:/opt/homebrew/Cellar/avr-gcc@8/8.5.0_3/avr/include/avr/wdt.h **** ); \
 231:/opt/homebrew/Cellar/avr-gcc@8/8.5.0_3/avr/include/avr/wdt.h **** }while(0)
 232:/opt/homebrew/Cellar/avr-gcc@8/8.5.0_3/avr/include/avr/wdt.h **** 
 233:/opt/homebrew/Cellar/avr-gcc@8/8.5.0_3/avr/include/avr/wdt.h **** #elif defined(CCP)
 234:/opt/homebrew/Cellar/avr-gcc@8/8.5.0_3/avr/include/avr/wdt.h **** 
 235:/opt/homebrew/Cellar/avr-gcc@8/8.5.0_3/avr/include/avr/wdt.h **** static __inline__
 236:/opt/homebrew/Cellar/avr-gcc@8/8.5.0_3/avr/include/avr/wdt.h **** __attribute__ ((__always_inline__))
 237:/opt/homebrew/Cellar/avr-gcc@8/8.5.0_3/avr/include/avr/wdt.h **** void wdt_enable (const uint8_t value)
 238:/opt/homebrew/Cellar/avr-gcc@8/8.5.0_3/avr/include/avr/wdt.h **** {
 239:/opt/homebrew/Cellar/avr-gcc@8/8.5.0_3/avr/include/avr/wdt.h **** 	if (!_SFR_IO_REG_P (CCP) && !_SFR_IO_REG_P (_WD_CONTROL_REG))
 240:/opt/homebrew/Cellar/avr-gcc@8/8.5.0_3/avr/include/avr/wdt.h **** 	{
 241:/opt/homebrew/Cellar/avr-gcc@8/8.5.0_3/avr/include/avr/wdt.h **** 		__asm__ __volatile__ (
 242:/opt/homebrew/Cellar/avr-gcc@8/8.5.0_3/avr/include/avr/wdt.h **** 			"in __tmp_reg__,__SREG__" "\n\t"
 243:/opt/homebrew/Cellar/avr-gcc@8/8.5.0_3/avr/include/avr/wdt.h **** 			"cli" "\n\t"
 244:/opt/homebrew/Cellar/avr-gcc@8/8.5.0_3/avr/include/avr/wdt.h **** 			"wdr" "\n\t"
 245:/opt/homebrew/Cellar/avr-gcc@8/8.5.0_3/avr/include/avr/wdt.h **** 			"sts %[CCPADDRESS],%[SIGNATURE]" "\n\t"
 246:/opt/homebrew/Cellar/avr-gcc@8/8.5.0_3/avr/include/avr/wdt.h **** 			"sts %[WDTREG],%[WDVALUE]" "\n\t"
 247:/opt/homebrew/Cellar/avr-gcc@8/8.5.0_3/avr/include/avr/wdt.h **** 			"out __SREG__,__tmp_reg__" "\n\t"
 248:/opt/homebrew/Cellar/avr-gcc@8/8.5.0_3/avr/include/avr/wdt.h **** 			: /* no outputs */
 249:/opt/homebrew/Cellar/avr-gcc@8/8.5.0_3/avr/include/avr/wdt.h **** 			: [CCPADDRESS] "n" (_SFR_MEM_ADDR(CCP)),
 250:/opt/homebrew/Cellar/avr-gcc@8/8.5.0_3/avr/include/avr/wdt.h **** 			[SIGNATURE] "r" ((uint8_t)0xD8),
 251:/opt/homebrew/Cellar/avr-gcc@8/8.5.0_3/avr/include/avr/wdt.h **** 			[WDTREG] "n" (_SFR_MEM_ADDR(_WD_CONTROL_REG)),
 252:/opt/homebrew/Cellar/avr-gcc@8/8.5.0_3/avr/include/avr/wdt.h **** 			[WDVALUE] "r" ((uint8_t)((value & 0x08 ? _WD_PS3_MASK : 0x00)
 253:/opt/homebrew/Cellar/avr-gcc@8/8.5.0_3/avr/include/avr/wdt.h **** 				| _BV(WDE) | (value & 0x07) ))
 254:/opt/homebrew/Cellar/avr-gcc@8/8.5.0_3/avr/include/avr/wdt.h **** 			: "r0"
 255:/opt/homebrew/Cellar/avr-gcc@8/8.5.0_3/avr/include/avr/wdt.h **** 			);
 256:/opt/homebrew/Cellar/avr-gcc@8/8.5.0_3/avr/include/avr/wdt.h **** 	}
 257:/opt/homebrew/Cellar/avr-gcc@8/8.5.0_3/avr/include/avr/wdt.h **** 	else if (!_SFR_IO_REG_P (CCP) && _SFR_IO_REG_P (_WD_CONTROL_REG))
 258:/opt/homebrew/Cellar/avr-gcc@8/8.5.0_3/avr/include/avr/wdt.h **** 	{
 259:/opt/homebrew/Cellar/avr-gcc@8/8.5.0_3/avr/include/avr/wdt.h **** 		__asm__ __volatile__ (
 260:/opt/homebrew/Cellar/avr-gcc@8/8.5.0_3/avr/include/avr/wdt.h **** 			"in __tmp_reg__,__SREG__" "\n\t"
 261:/opt/homebrew/Cellar/avr-gcc@8/8.5.0_3/avr/include/avr/wdt.h **** 			"cli" "\n\t"
 262:/opt/homebrew/Cellar/avr-gcc@8/8.5.0_3/avr/include/avr/wdt.h **** 			"wdr" "\n\t"
 263:/opt/homebrew/Cellar/avr-gcc@8/8.5.0_3/avr/include/avr/wdt.h **** 			"sts %[CCPADDRESS],%[SIGNATURE]" "\n\t"
 264:/opt/homebrew/Cellar/avr-gcc@8/8.5.0_3/avr/include/avr/wdt.h **** 			"out %[WDTREG],%[WDVALUE]" "\n\t"
 265:/opt/homebrew/Cellar/avr-gcc@8/8.5.0_3/avr/include/avr/wdt.h **** 			"out __SREG__,__tmp_reg__" "\n\t"
 266:/opt/homebrew/Cellar/avr-gcc@8/8.5.0_3/avr/include/avr/wdt.h **** 			: /* no outputs */
 267:/opt/homebrew/Cellar/avr-gcc@8/8.5.0_3/avr/include/avr/wdt.h **** 			: [CCPADDRESS] "n" (_SFR_MEM_ADDR(CCP)),
 268:/opt/homebrew/Cellar/avr-gcc@8/8.5.0_3/avr/include/avr/wdt.h **** 			[SIGNATURE] "r" ((uint8_t)0xD8),
 269:/opt/homebrew/Cellar/avr-gcc@8/8.5.0_3/avr/include/avr/wdt.h **** 			[WDTREG] "I" (_SFR_IO_ADDR(_WD_CONTROL_REG)),
 270:/opt/homebrew/Cellar/avr-gcc@8/8.5.0_3/avr/include/avr/wdt.h **** 			[WDVALUE] "r" ((uint8_t)((value & 0x08 ? _WD_PS3_MASK : 0x00)
 271:/opt/homebrew/Cellar/avr-gcc@8/8.5.0_3/avr/include/avr/wdt.h **** 				| _BV(WDE) | (value & 0x07) ))
 272:/opt/homebrew/Cellar/avr-gcc@8/8.5.0_3/avr/include/avr/wdt.h **** 			: "r0"
 273:/opt/homebrew/Cellar/avr-gcc@8/8.5.0_3/avr/include/avr/wdt.h **** 			);
 274:/opt/homebrew/Cellar/avr-gcc@8/8.5.0_3/avr/include/avr/wdt.h **** 	}
 275:/opt/homebrew/Cellar/avr-gcc@8/8.5.0_3/avr/include/avr/wdt.h **** 	else if (_SFR_IO_REG_P (CCP) && !_SFR_IO_REG_P (_WD_CONTROL_REG))
 276:/opt/homebrew/Cellar/avr-gcc@8/8.5.0_3/avr/include/avr/wdt.h **** 	{
 277:/opt/homebrew/Cellar/avr-gcc@8/8.5.0_3/avr/include/avr/wdt.h **** 		__asm__ __volatile__ (
 278:/opt/homebrew/Cellar/avr-gcc@8/8.5.0_3/avr/include/avr/wdt.h **** 			"in __tmp_reg__,__SREG__" "\n\t"
 279:/opt/homebrew/Cellar/avr-gcc@8/8.5.0_3/avr/include/avr/wdt.h **** 			"cli" "\n\t"
 280:/opt/homebrew/Cellar/avr-gcc@8/8.5.0_3/avr/include/avr/wdt.h **** 			"wdr" "\n\t"
 281:/opt/homebrew/Cellar/avr-gcc@8/8.5.0_3/avr/include/avr/wdt.h **** 			"out %[CCPADDRESS],%[SIGNATURE]" "\n\t"
 282:/opt/homebrew/Cellar/avr-gcc@8/8.5.0_3/avr/include/avr/wdt.h **** 			"sts %[WDTREG],%[WDVALUE]" "\n\t"
 283:/opt/homebrew/Cellar/avr-gcc@8/8.5.0_3/avr/include/avr/wdt.h **** 			"out __SREG__,__tmp_reg__" "\n\t"
 284:/opt/homebrew/Cellar/avr-gcc@8/8.5.0_3/avr/include/avr/wdt.h **** 			: /* no outputs */
 285:/opt/homebrew/Cellar/avr-gcc@8/8.5.0_3/avr/include/avr/wdt.h **** 			: [CCPADDRESS] "I" (_SFR_IO_ADDR(CCP)),
 286:/opt/homebrew/Cellar/avr-gcc@8/8.5.0_3/avr/include/avr/wdt.h **** 			[SIGNATURE] "r" ((uint8_t)0xD8),
 287:/opt/homebrew/Cellar/avr-gcc@8/8.5.0_3/avr/include/avr/wdt.h **** 			[WDTREG] "n" (_SFR_MEM_ADDR(_WD_CONTROL_REG)),
 288:/opt/homebrew/Cellar/avr-gcc@8/8.5.0_3/avr/include/avr/wdt.h **** 			[WDVALUE] "r" ((uint8_t)((value & 0x08 ? _WD_PS3_MASK : 0x00)
 289:/opt/homebrew/Cellar/avr-gcc@8/8.5.0_3/avr/include/avr/wdt.h **** 				| _BV(WDE) | (value & 0x07) ))
 290:/opt/homebrew/Cellar/avr-gcc@8/8.5.0_3/avr/include/avr/wdt.h **** 			: "r0"
 291:/opt/homebrew/Cellar/avr-gcc@8/8.5.0_3/avr/include/avr/wdt.h **** 			);
 292:/opt/homebrew/Cellar/avr-gcc@8/8.5.0_3/avr/include/avr/wdt.h **** 	}
 293:/opt/homebrew/Cellar/avr-gcc@8/8.5.0_3/avr/include/avr/wdt.h **** 	else
 294:/opt/homebrew/Cellar/avr-gcc@8/8.5.0_3/avr/include/avr/wdt.h ****  	{
 295:/opt/homebrew/Cellar/avr-gcc@8/8.5.0_3/avr/include/avr/wdt.h **** 		__asm__ __volatile__ (
 296:/opt/homebrew/Cellar/avr-gcc@8/8.5.0_3/avr/include/avr/wdt.h **** 			"in __tmp_reg__,__SREG__" "\n\t"
 297:/opt/homebrew/Cellar/avr-gcc@8/8.5.0_3/avr/include/avr/wdt.h **** 			"cli" "\n\t"
 298:/opt/homebrew/Cellar/avr-gcc@8/8.5.0_3/avr/include/avr/wdt.h **** 			"wdr" "\n\t"
 299:/opt/homebrew/Cellar/avr-gcc@8/8.5.0_3/avr/include/avr/wdt.h **** 			"out %[CCPADDRESS],%[SIGNATURE]" "\n\t"
 300:/opt/homebrew/Cellar/avr-gcc@8/8.5.0_3/avr/include/avr/wdt.h **** 			"out %[WDTREG],%[WDVALUE]" "\n\t"
 301:/opt/homebrew/Cellar/avr-gcc@8/8.5.0_3/avr/include/avr/wdt.h **** 			"out __SREG__,__tmp_reg__" "\n\t"
 302:/opt/homebrew/Cellar/avr-gcc@8/8.5.0_3/avr/include/avr/wdt.h **** 			: /* no outputs */
 303:/opt/homebrew/Cellar/avr-gcc@8/8.5.0_3/avr/include/avr/wdt.h **** 			: [CCPADDRESS] "I" (_SFR_IO_ADDR(CCP)),
 304:/opt/homebrew/Cellar/avr-gcc@8/8.5.0_3/avr/include/avr/wdt.h **** 			[SIGNATURE] "r" ((uint8_t)0xD8),
 305:/opt/homebrew/Cellar/avr-gcc@8/8.5.0_3/avr/include/avr/wdt.h **** 			[WDTREG] "I" (_SFR_IO_ADDR(_WD_CONTROL_REG)),
 306:/opt/homebrew/Cellar/avr-gcc@8/8.5.0_3/avr/include/avr/wdt.h **** 			[WDVALUE] "r" ((uint8_t)((value & 0x08 ? _WD_PS3_MASK : 0x00)
 307:/opt/homebrew/Cellar/avr-gcc@8/8.5.0_3/avr/include/avr/wdt.h **** 				| _BV(WDE) | (value & 0x07) ))
 308:/opt/homebrew/Cellar/avr-gcc@8/8.5.0_3/avr/include/avr/wdt.h **** 			: "r0"
 309:/opt/homebrew/Cellar/avr-gcc@8/8.5.0_3/avr/include/avr/wdt.h **** 			);
 310:/opt/homebrew/Cellar/avr-gcc@8/8.5.0_3/avr/include/avr/wdt.h **** 	}
 311:/opt/homebrew/Cellar/avr-gcc@8/8.5.0_3/avr/include/avr/wdt.h **** }
 312:/opt/homebrew/Cellar/avr-gcc@8/8.5.0_3/avr/include/avr/wdt.h **** 
 313:/opt/homebrew/Cellar/avr-gcc@8/8.5.0_3/avr/include/avr/wdt.h **** static __inline__
 314:/opt/homebrew/Cellar/avr-gcc@8/8.5.0_3/avr/include/avr/wdt.h **** __attribute__ ((__always_inline__))
 315:/opt/homebrew/Cellar/avr-gcc@8/8.5.0_3/avr/include/avr/wdt.h **** void wdt_disable (void)
 316:/opt/homebrew/Cellar/avr-gcc@8/8.5.0_3/avr/include/avr/wdt.h **** {
 317:/opt/homebrew/Cellar/avr-gcc@8/8.5.0_3/avr/include/avr/wdt.h **** 	if (!_SFR_IO_REG_P (CCP) && !_SFR_IO_REG_P(_WD_CONTROL_REG))
 318:/opt/homebrew/Cellar/avr-gcc@8/8.5.0_3/avr/include/avr/wdt.h **** 	{
 319:/opt/homebrew/Cellar/avr-gcc@8/8.5.0_3/avr/include/avr/wdt.h ****         uint8_t temp_wd;
 320:/opt/homebrew/Cellar/avr-gcc@8/8.5.0_3/avr/include/avr/wdt.h ****         __asm__ __volatile__ (
 321:/opt/homebrew/Cellar/avr-gcc@8/8.5.0_3/avr/include/avr/wdt.h **** 				"in __tmp_reg__,__SREG__" "\n\t"
 322:/opt/homebrew/Cellar/avr-gcc@8/8.5.0_3/avr/include/avr/wdt.h **** 				"cli" "\n\t"
 323:/opt/homebrew/Cellar/avr-gcc@8/8.5.0_3/avr/include/avr/wdt.h **** 				"wdr" "\n\t"
 324:/opt/homebrew/Cellar/avr-gcc@8/8.5.0_3/avr/include/avr/wdt.h **** 				"sts %[CCPADDRESS],%[SIGNATURE]" "\n\t"
 325:/opt/homebrew/Cellar/avr-gcc@8/8.5.0_3/avr/include/avr/wdt.h **** 				"lds %[TEMP_WD],%[WDTREG]" "\n\t"
 326:/opt/homebrew/Cellar/avr-gcc@8/8.5.0_3/avr/include/avr/wdt.h **** 				"cbr %[TEMP_WD],%[WDVALUE]" "\n\t"
 327:/opt/homebrew/Cellar/avr-gcc@8/8.5.0_3/avr/include/avr/wdt.h **** 				"sts %[WDTREG],%[TEMP_WD]" "\n\t"
 328:/opt/homebrew/Cellar/avr-gcc@8/8.5.0_3/avr/include/avr/wdt.h **** 				"out __SREG__,__tmp_reg__" "\n\t"
 329:/opt/homebrew/Cellar/avr-gcc@8/8.5.0_3/avr/include/avr/wdt.h **** 				: /*no output */
 330:/opt/homebrew/Cellar/avr-gcc@8/8.5.0_3/avr/include/avr/wdt.h **** 				: [CCPADDRESS] "n" (_SFR_MEM_ADDR(CCP)),
 331:/opt/homebrew/Cellar/avr-gcc@8/8.5.0_3/avr/include/avr/wdt.h **** 				[SIGNATURE] "r" ((uint8_t)0xD8),
 332:/opt/homebrew/Cellar/avr-gcc@8/8.5.0_3/avr/include/avr/wdt.h **** 				[WDTREG] "n" (_SFR_MEM_ADDR(_WD_CONTROL_REG)),
 333:/opt/homebrew/Cellar/avr-gcc@8/8.5.0_3/avr/include/avr/wdt.h **** 				[TEMP_WD] "d" (temp_wd),
 334:/opt/homebrew/Cellar/avr-gcc@8/8.5.0_3/avr/include/avr/wdt.h **** 				[WDVALUE] "n" (1 << WDE)
 335:/opt/homebrew/Cellar/avr-gcc@8/8.5.0_3/avr/include/avr/wdt.h **** 				: "r0"
 336:/opt/homebrew/Cellar/avr-gcc@8/8.5.0_3/avr/include/avr/wdt.h **** 				);
 337:/opt/homebrew/Cellar/avr-gcc@8/8.5.0_3/avr/include/avr/wdt.h **** 	}
 338:/opt/homebrew/Cellar/avr-gcc@8/8.5.0_3/avr/include/avr/wdt.h **** 	else if (!_SFR_IO_REG_P (CCP) && _SFR_IO_REG_P(_WD_CONTROL_REG))
 339:/opt/homebrew/Cellar/avr-gcc@8/8.5.0_3/avr/include/avr/wdt.h **** 	{
 340:/opt/homebrew/Cellar/avr-gcc@8/8.5.0_3/avr/include/avr/wdt.h ****         uint8_t temp_wd;
 341:/opt/homebrew/Cellar/avr-gcc@8/8.5.0_3/avr/include/avr/wdt.h ****         __asm__ __volatile__ (
 342:/opt/homebrew/Cellar/avr-gcc@8/8.5.0_3/avr/include/avr/wdt.h **** 				"in __tmp_reg__,__SREG__" "\n\t"
 343:/opt/homebrew/Cellar/avr-gcc@8/8.5.0_3/avr/include/avr/wdt.h **** 				"cli" "\n\t"
 344:/opt/homebrew/Cellar/avr-gcc@8/8.5.0_3/avr/include/avr/wdt.h **** 				"wdr" "\n\t"
 345:/opt/homebrew/Cellar/avr-gcc@8/8.5.0_3/avr/include/avr/wdt.h **** 				"sts %[CCPADDRESS],%[SIGNATURE]" "\n\t"
 346:/opt/homebrew/Cellar/avr-gcc@8/8.5.0_3/avr/include/avr/wdt.h **** 				"in %[TEMP_WD],%[WDTREG]" "\n\t"
 347:/opt/homebrew/Cellar/avr-gcc@8/8.5.0_3/avr/include/avr/wdt.h **** 				"cbr %[TEMP_WD],%[WDVALUE]" "\n\t"
 348:/opt/homebrew/Cellar/avr-gcc@8/8.5.0_3/avr/include/avr/wdt.h **** 				"out %[WDTREG],%[TEMP_WD]" "\n\t"
 349:/opt/homebrew/Cellar/avr-gcc@8/8.5.0_3/avr/include/avr/wdt.h **** 				"out __SREG__,__tmp_reg__" "\n\t"
 350:/opt/homebrew/Cellar/avr-gcc@8/8.5.0_3/avr/include/avr/wdt.h **** 				: /*no output */
 351:/opt/homebrew/Cellar/avr-gcc@8/8.5.0_3/avr/include/avr/wdt.h **** 				: [CCPADDRESS] "n" (_SFR_MEM_ADDR(CCP)),
 352:/opt/homebrew/Cellar/avr-gcc@8/8.5.0_3/avr/include/avr/wdt.h **** 				[SIGNATURE] "r" ((uint8_t)0xD8),
 353:/opt/homebrew/Cellar/avr-gcc@8/8.5.0_3/avr/include/avr/wdt.h **** 				[WDTREG] "I" (_SFR_IO_ADDR(_WD_CONTROL_REG)),
 354:/opt/homebrew/Cellar/avr-gcc@8/8.5.0_3/avr/include/avr/wdt.h **** 				[TEMP_WD] "d" (temp_wd),
 355:/opt/homebrew/Cellar/avr-gcc@8/8.5.0_3/avr/include/avr/wdt.h **** 				[WDVALUE] "n" (1 << WDE)
 356:/opt/homebrew/Cellar/avr-gcc@8/8.5.0_3/avr/include/avr/wdt.h **** 				: "r0"
 357:/opt/homebrew/Cellar/avr-gcc@8/8.5.0_3/avr/include/avr/wdt.h **** 				);
 358:/opt/homebrew/Cellar/avr-gcc@8/8.5.0_3/avr/include/avr/wdt.h **** 	}
 359:/opt/homebrew/Cellar/avr-gcc@8/8.5.0_3/avr/include/avr/wdt.h **** 	else if (_SFR_IO_REG_P (CCP) && !_SFR_IO_REG_P(_WD_CONTROL_REG))
 360:/opt/homebrew/Cellar/avr-gcc@8/8.5.0_3/avr/include/avr/wdt.h **** 	{
 361:/opt/homebrew/Cellar/avr-gcc@8/8.5.0_3/avr/include/avr/wdt.h ****         uint8_t temp_wd;
 362:/opt/homebrew/Cellar/avr-gcc@8/8.5.0_3/avr/include/avr/wdt.h ****         __asm__ __volatile__ (
 363:/opt/homebrew/Cellar/avr-gcc@8/8.5.0_3/avr/include/avr/wdt.h **** 				"in __tmp_reg__,__SREG__" "\n\t"
 364:/opt/homebrew/Cellar/avr-gcc@8/8.5.0_3/avr/include/avr/wdt.h **** 				"cli" "\n\t"
 365:/opt/homebrew/Cellar/avr-gcc@8/8.5.0_3/avr/include/avr/wdt.h **** 				"wdr" "\n\t"
 366:/opt/homebrew/Cellar/avr-gcc@8/8.5.0_3/avr/include/avr/wdt.h **** 				"out %[CCPADDRESS],%[SIGNATURE]" "\n\t"
 367:/opt/homebrew/Cellar/avr-gcc@8/8.5.0_3/avr/include/avr/wdt.h **** 				"lds %[TEMP_WD],%[WDTREG]" "\n\t"
 368:/opt/homebrew/Cellar/avr-gcc@8/8.5.0_3/avr/include/avr/wdt.h **** 				"cbr %[TEMP_WD],%[WDVALUE]" "\n\t"
 369:/opt/homebrew/Cellar/avr-gcc@8/8.5.0_3/avr/include/avr/wdt.h **** 				"sts %[WDTREG],%[TEMP_WD]" "\n\t"
 370:/opt/homebrew/Cellar/avr-gcc@8/8.5.0_3/avr/include/avr/wdt.h **** 				"out __SREG__,__tmp_reg__" "\n\t"
 371:/opt/homebrew/Cellar/avr-gcc@8/8.5.0_3/avr/include/avr/wdt.h **** 				: /*no output */
 372:/opt/homebrew/Cellar/avr-gcc@8/8.5.0_3/avr/include/avr/wdt.h **** 				: [CCPADDRESS] "I" (_SFR_IO_ADDR(CCP)),
 373:/opt/homebrew/Cellar/avr-gcc@8/8.5.0_3/avr/include/avr/wdt.h **** 				[SIGNATURE] "r" ((uint8_t)0xD8),
 374:/opt/homebrew/Cellar/avr-gcc@8/8.5.0_3/avr/include/avr/wdt.h **** 				[WDTREG] "n" (_SFR_MEM_ADDR(_WD_CONTROL_REG)),
 375:/opt/homebrew/Cellar/avr-gcc@8/8.5.0_3/avr/include/avr/wdt.h **** 				[TEMP_WD] "d" (temp_wd),
 376:/opt/homebrew/Cellar/avr-gcc@8/8.5.0_3/avr/include/avr/wdt.h **** 				[WDVALUE] "n" (1 << WDE)
 377:/opt/homebrew/Cellar/avr-gcc@8/8.5.0_3/avr/include/avr/wdt.h **** 				: "r0"
 378:/opt/homebrew/Cellar/avr-gcc@8/8.5.0_3/avr/include/avr/wdt.h **** 				);
 379:/opt/homebrew/Cellar/avr-gcc@8/8.5.0_3/avr/include/avr/wdt.h **** 	}
 380:/opt/homebrew/Cellar/avr-gcc@8/8.5.0_3/avr/include/avr/wdt.h **** 	else
 381:/opt/homebrew/Cellar/avr-gcc@8/8.5.0_3/avr/include/avr/wdt.h **** 	{
 382:/opt/homebrew/Cellar/avr-gcc@8/8.5.0_3/avr/include/avr/wdt.h ****         uint8_t temp_wd;
 383:/opt/homebrew/Cellar/avr-gcc@8/8.5.0_3/avr/include/avr/wdt.h ****         __asm__ __volatile__ (
 384:/opt/homebrew/Cellar/avr-gcc@8/8.5.0_3/avr/include/avr/wdt.h **** 				"in __tmp_reg__,__SREG__" "\n\t"
 385:/opt/homebrew/Cellar/avr-gcc@8/8.5.0_3/avr/include/avr/wdt.h **** 				"cli" "\n\t"
 386:/opt/homebrew/Cellar/avr-gcc@8/8.5.0_3/avr/include/avr/wdt.h **** 				"wdr" "\n\t"
 387:/opt/homebrew/Cellar/avr-gcc@8/8.5.0_3/avr/include/avr/wdt.h **** 				"out %[CCPADDRESS],%[SIGNATURE]" "\n\t"
 388:/opt/homebrew/Cellar/avr-gcc@8/8.5.0_3/avr/include/avr/wdt.h **** 				"in %[TEMP_WD],%[WDTREG]" "\n\t"
 389:/opt/homebrew/Cellar/avr-gcc@8/8.5.0_3/avr/include/avr/wdt.h **** 				"cbr %[TEMP_WD],%[WDVALUE]" "\n\t"
 390:/opt/homebrew/Cellar/avr-gcc@8/8.5.0_3/avr/include/avr/wdt.h **** 				"out %[WDTREG],%[TEMP_WD]" "\n\t"
 391:/opt/homebrew/Cellar/avr-gcc@8/8.5.0_3/avr/include/avr/wdt.h **** 				"out __SREG__,__tmp_reg__" "\n\t"
 392:/opt/homebrew/Cellar/avr-gcc@8/8.5.0_3/avr/include/avr/wdt.h **** 				: /*no output */
 393:/opt/homebrew/Cellar/avr-gcc@8/8.5.0_3/avr/include/avr/wdt.h **** 				: [CCPADDRESS] "I" (_SFR_IO_ADDR(CCP)),
 394:/opt/homebrew/Cellar/avr-gcc@8/8.5.0_3/avr/include/avr/wdt.h **** 				[SIGNATURE] "r" ((uint8_t)0xD8),
 395:/opt/homebrew/Cellar/avr-gcc@8/8.5.0_3/avr/include/avr/wdt.h **** 				[WDTREG] "I" (_SFR_IO_ADDR(_WD_CONTROL_REG)),
 396:/opt/homebrew/Cellar/avr-gcc@8/8.5.0_3/avr/include/avr/wdt.h **** 				[TEMP_WD] "d" (temp_wd),
 397:/opt/homebrew/Cellar/avr-gcc@8/8.5.0_3/avr/include/avr/wdt.h **** 				[WDVALUE] "n" (1 << WDE)
 398:/opt/homebrew/Cellar/avr-gcc@8/8.5.0_3/avr/include/avr/wdt.h **** 				: "r0"
 399:/opt/homebrew/Cellar/avr-gcc@8/8.5.0_3/avr/include/avr/wdt.h **** 				);
 400:/opt/homebrew/Cellar/avr-gcc@8/8.5.0_3/avr/include/avr/wdt.h **** 	}
 401:/opt/homebrew/Cellar/avr-gcc@8/8.5.0_3/avr/include/avr/wdt.h **** }
 402:/opt/homebrew/Cellar/avr-gcc@8/8.5.0_3/avr/include/avr/wdt.h **** 
 403:/opt/homebrew/Cellar/avr-gcc@8/8.5.0_3/avr/include/avr/wdt.h **** #else
 404:/opt/homebrew/Cellar/avr-gcc@8/8.5.0_3/avr/include/avr/wdt.h **** 
 405:/opt/homebrew/Cellar/avr-gcc@8/8.5.0_3/avr/include/avr/wdt.h **** static __inline__
 406:/opt/homebrew/Cellar/avr-gcc@8/8.5.0_3/avr/include/avr/wdt.h **** __attribute__ ((__always_inline__))
 407:/opt/homebrew/Cellar/avr-gcc@8/8.5.0_3/avr/include/avr/wdt.h **** void wdt_enable (const uint8_t value)
 2208               		.loc 2 407 6 view .LVU470
 2209               	.LBB60:
 408:/opt/homebrew/Cellar/avr-gcc@8/8.5.0_3/avr/include/avr/wdt.h **** {
 409:/opt/homebrew/Cellar/avr-gcc@8/8.5.0_3/avr/include/avr/wdt.h **** 	if (_SFR_IO_REG_P (_WD_CONTROL_REG))
 2210               		.loc 2 409 2 view .LVU471
 410:/opt/homebrew/Cellar/avr-gcc@8/8.5.0_3/avr/include/avr/wdt.h **** 	{
 411:/opt/homebrew/Cellar/avr-gcc@8/8.5.0_3/avr/include/avr/wdt.h **** 		__asm__ __volatile__ (
 412:/opt/homebrew/Cellar/avr-gcc@8/8.5.0_3/avr/include/avr/wdt.h **** 				"in __tmp_reg__,__SREG__" "\n\t"
 413:/opt/homebrew/Cellar/avr-gcc@8/8.5.0_3/avr/include/avr/wdt.h **** 				"cli" "\n\t"
 414:/opt/homebrew/Cellar/avr-gcc@8/8.5.0_3/avr/include/avr/wdt.h **** 				"wdr" "\n\t"
 415:/opt/homebrew/Cellar/avr-gcc@8/8.5.0_3/avr/include/avr/wdt.h **** 				"out %0, %1" "\n\t"
 416:/opt/homebrew/Cellar/avr-gcc@8/8.5.0_3/avr/include/avr/wdt.h **** 				"out __SREG__,__tmp_reg__" "\n\t"
 417:/opt/homebrew/Cellar/avr-gcc@8/8.5.0_3/avr/include/avr/wdt.h **** 				"out %0, %2" "\n \t"
 418:/opt/homebrew/Cellar/avr-gcc@8/8.5.0_3/avr/include/avr/wdt.h **** 				: /* no outputs */
 419:/opt/homebrew/Cellar/avr-gcc@8/8.5.0_3/avr/include/avr/wdt.h **** 				: "I" (_SFR_IO_ADDR(_WD_CONTROL_REG)),
 420:/opt/homebrew/Cellar/avr-gcc@8/8.5.0_3/avr/include/avr/wdt.h **** 				"r" ((uint8_t)(_BV(_WD_CHANGE_BIT) | _BV(WDE))),
 421:/opt/homebrew/Cellar/avr-gcc@8/8.5.0_3/avr/include/avr/wdt.h **** 				"r" ((uint8_t) ((value & 0x08 ? _WD_PS3_MASK : 0x00) |
 422:/opt/homebrew/Cellar/avr-gcc@8/8.5.0_3/avr/include/avr/wdt.h **** 						_BV(WDE) | (value & 0x07)) )
 423:/opt/homebrew/Cellar/avr-gcc@8/8.5.0_3/avr/include/avr/wdt.h **** 				: "r0"
 424:/opt/homebrew/Cellar/avr-gcc@8/8.5.0_3/avr/include/avr/wdt.h **** 		);
 425:/opt/homebrew/Cellar/avr-gcc@8/8.5.0_3/avr/include/avr/wdt.h **** 	}
 426:/opt/homebrew/Cellar/avr-gcc@8/8.5.0_3/avr/include/avr/wdt.h **** 	else
 427:/opt/homebrew/Cellar/avr-gcc@8/8.5.0_3/avr/include/avr/wdt.h **** 	{
 428:/opt/homebrew/Cellar/avr-gcc@8/8.5.0_3/avr/include/avr/wdt.h **** 		__asm__ __volatile__ (
 2211               		.loc 2 428 3 view .LVU472
 2212 08dc 88E1      		ldi r24,lo8(24)
 2213 08de 98E0      		ldi r25,lo8(8)
 2214               	/* #APP */
 2215               	 ;  428 "/opt/homebrew/Cellar/avr-gcc@8/8.5.0_3/avr/include/avr/wdt.h" 1
 2216 08e0 0FB6      		in __tmp_reg__,__SREG__
 2217 08e2 F894      		cli
 2218 08e4 A895      		wdr
 2219 08e6 8093 6000 		sts 96, r24
 2220 08ea 0FBE      		out __SREG__,__tmp_reg__
 2221 08ec 9093 6000 		sts 96, r25
 2222               	 	
 2223               	 ;  0 "" 2
 2224               	/* #NOAPP */
 2225               	.L113:
 2226               	.LBE60:
 2227               	.LBE59:
 624:interpretacjaSMS.c ****       ;
 2228               		.loc 1 624 5 discriminator 2 view .LVU473
 625:interpretacjaSMS.c ****     return INTERPRETACJA_SMS_POPRAWNY; // Nigdy nie dotrze tutaj
 2229               		.loc 1 625 7 discriminator 2 view .LVU474
 624:interpretacjaSMS.c ****       ;
 2230               		.loc 1 624 11 discriminator 2 view .LVU475
 2231 08f0 00C0      		rjmp .L113
 2232               	.LVL183:
 2233               	.L83:
 2234               	.LBB61:
 631:interpretacjaSMS.c ****     blokada_systemu_tymczasowo_odblokowana = TRUE;
 2235               		.loc 1 631 5 view .LVU476
 632:interpretacjaSMS.c **** 
 2236               		.loc 1 632 5 view .LVU477
 632:interpretacjaSMS.c **** 
 2237               		.loc 1 632 44 is_stmt 0 view .LVU478
 2238 08f2 8FEF      		ldi r24,lo8(-1)
 2239 08f4 8093 0000 		sts blokada_systemu_tymczasowo_odblokowana,r24
 636:interpretacjaSMS.c ****     extern uchar tryb_clip;
 2240               		.loc 1 636 5 is_stmt 1 view .LVU479
 637:interpretacjaSMS.c ****     extern uchar sms_trigger;
 2241               		.loc 1 637 5 view .LVU480
 638:interpretacjaSMS.c ****     tryb_pracy = 1; // Open
 2242               		.loc 1 638 5 view .LVU481
 639:interpretacjaSMS.c ****     tryb_clip = TRUE;
 2243               		.loc 1 639 5 view .LVU482
 639:interpretacjaSMS.c ****     tryb_clip = TRUE;
 2244               		.loc 1 639 16 is_stmt 0 view .LVU483
 2245 08f8 91E0      		ldi r25,lo8(1)
 2246 08fa 9093 0000 		sts tryb_pracy,r25
 640:interpretacjaSMS.c ****     sms_trigger = TRUE;
 2247               		.loc 1 640 5 is_stmt 1 view .LVU484
 640:interpretacjaSMS.c ****     sms_trigger = TRUE;
 2248               		.loc 1 640 15 is_stmt 0 view .LVU485
 2249 08fe 8093 0000 		sts tryb_clip,r24
 641:interpretacjaSMS.c **** 
 2250               		.loc 1 641 5 is_stmt 1 view .LVU486
 641:interpretacjaSMS.c **** 
 2251               		.loc 1 641 17 is_stmt 0 view .LVU487
 2252 0902 8093 0000 		sts sms_trigger,r24
 644:interpretacjaSMS.c ****     extern uchar numer_telefonu_odebranego_smsa[];
 2253               		.loc 1 644 5 is_stmt 1 view .LVU488
 645:interpretacjaSMS.c ****     strcpy((char *)numer_telefonu_wysylanego_smsa,
 2254               		.loc 1 645 5 view .LVU489
 646:interpretacjaSMS.c ****            (char *)numer_telefonu_odebranego_smsa);
 2255               		.loc 1 646 5 view .LVU490
 2256 0906 60E0      		ldi r22,lo8(numer_telefonu_odebranego_smsa)
 2257 0908 70E0      		ldi r23,hi8(numer_telefonu_odebranego_smsa)
 2258 090a 80E0      		ldi r24,lo8(numer_telefonu_wysylanego_smsa)
 2259 090c 90E0      		ldi r25,hi8(numer_telefonu_wysylanego_smsa)
 2260 090e 0E94 0000 		call strcpy
 2261               	.LVL184:
 648:interpretacjaSMS.c ****     dodaj_komende(KOMENDA_KOLEJKI_WYSLIJ_SMSA_TEXT);
 2262               		.loc 1 648 5 view .LVU491
 2263               	.LBB41:
 648:interpretacjaSMS.c ****     dodaj_komende(KOMENDA_KOLEJKI_WYSLIJ_SMSA_TEXT);
 2264               		.loc 1 648 45 view .LVU492
 648:interpretacjaSMS.c ****     dodaj_komende(KOMENDA_KOLEJKI_WYSLIJ_SMSA_TEXT);
 2265               		.loc 1 648 45 view .LVU493
 2266               	.LBE41:
 648:interpretacjaSMS.c ****     dodaj_komende(KOMENDA_KOLEJKI_WYSLIJ_SMSA_TEXT);
 2267               		.loc 1 648 5 is_stmt 0 view .LVU494
 2268 0912 60E0      		ldi r22,lo8(__c.2798)
 2269 0914 70E0      		ldi r23,hi8(__c.2798)
 2270 0916 80E0      		ldi r24,lo8(tekst_wysylanego_smsa)
 2271 0918 90E0      		ldi r25,hi8(tekst_wysylanego_smsa)
 2272 091a 0E94 0000 		call strcpy_P
 2273               	.LVL185:
 649:interpretacjaSMS.c **** 
 2274               		.loc 1 649 5 is_stmt 1 view .LVU495
 2275 091e 84E7      		ldi r24,lo8(116)
 2276 0920 00C0      		rjmp .L147
 2277               	.L80:
 2278               	.LBE61:
 654:interpretacjaSMS.c **** }
 2279               		.loc 1 654 3 view .LVU496
 654:interpretacjaSMS.c **** }
 2280               		.loc 1 654 10 is_stmt 0 view .LVU497
 2281 0922 11E0      		ldi r17,lo8(1)
 2282 0924 00C0      		rjmp .L70
 2283               		.cfi_endproc
 2284               	.LFE17:
 2286               		.section	.progmem.data,"a",@progbits
 2289               	__c.2798:
 2290 0000 5472 7962 		.string	"Tryb serwisowy aktywny"
 2290      2073 6572 
 2290      7769 736F 
 2290      7779 2061 
 2290      6B74 7977 
 2293               	__c.2785:
 2294 0017 4F46 4600 		.string	"OFF"
 2297               	__c.2781:
 2298 001b 4F4E 00   		.string	"ON"
 2301               	res_ust.2606:
 2302 001e 4333 4434 		.string	"C3D4"
 2302      00
 2305               	instrukcja_sms:
 2306 0023 0443 4F44 		.string	"\004CODE"
 2306      4500 
 2307 0029 0000 0000 		.zero	4
 2308 002d 0341 4444 		.string	"\003ADD"
 2308      00
 2309 0032 0000 0000 		.zero	5
 2309      00
 2310 0037 0344 454C 		.string	"\003DEL"
 2310      00
 2311 003c 0000 0000 		.zero	5
 2311      00
 2312 0041 0458 5858 		.string	"\004XXXX"
 2312      5800 
 2313 0047 0000 0000 		.zero	4
 2314 004b 0652 4550 		.string	"\006REPORT"
 2314      4F52 5400 
 2315 0053 0000      		.zero	2
 2316 0055 0455 5345 		.string	"\004USER"
 2316      5200 
 2317 005b 0000 0000 		.zero	4
 2318 005f 044F 5045 		.string	"\004OPEN"
 2318      4E00 
 2319 0065 0000 0000 		.zero	4
 2320 0069 0543 4C4F 		.string	"\005CLOSE"
 2320      5345 00
 2321 0070 0000 00   		.zero	3
 2322 0073 0443 4C49 		.string	"\004CLIP"
 2322      5000 
 2323 0079 0000 0000 		.zero	4
 2324 007d 0444 544D 		.string	"\004DTMF"
 2324      4600 
 2325 0083 0000 0000 		.zero	4
 2326 0087 0353 4554 		.string	"\003SET"
 2326      00
 2327 008c 0000 0000 		.zero	5
 2327      00
 2328 0091 0454 494D 		.string	"\004TIME"
 2328      4500 
 2329 0097 0000 0000 		.zero	4
 2330 009b 0653 4B52 		.string	"\006SKRYBA"
 2330      5942 4100 
 2331 00a3 0000      		.zero	2
 2332 00a5 0544 4542 		.string	"\005DEBUG"
 2332      5547 00
 2333 00ac 0000 00   		.zero	3
 2334 00af 0353 5542 		.string	"\003SUB"
 2334      00
 2335 00b4 0000 0000 		.zero	5
 2335      00
 2336 00b9 054D 594E 		.string	"\005MYNUM"
 2336      554D 00
 2337 00c0 0000 00   		.zero	3
 2338 00c3 0455 5353 		.string	"\004USSD"
 2338      4400 
 2339 00c9 0000 0000 		.zero	4
 2340 00cd 0343 4F4E 		.string	"\003CON"
 2340      00
 2341 00d2 0000 0000 		.zero	5
 2341      00
 2342 00d7 024F 4E00 		.string	"\002ON"
 2343 00db 0000 0000 		.zero	6
 2343      0000 
 2344 00e1 0554 4F47 		.string	"\005TOGLE"
 2344      4C45 00
 2345 00e8 0000 00   		.zero	3
 2346 00eb 0352 5354 		.string	"\003RST"
 2346      00
 2347 00f0 0000 0000 		.zero	5
 2347      00
 2348 00f5 0853 4D53 		.string	"\bSMS CLIP"
 2348      2043 4C49 
 2348      5000 
 2349 00ff 0353 4D53 		.string	"\003SMS"
 2349      00
 2350 0104 0000 0000 		.zero	5
 2350      00
 2351 0109 0453 5441 		.string	"\004STAN"
 2351      4E00 
 2352 010f 0000 0000 		.zero	4
 2353 0113 0454 4543 		.string	"\004TECH"
 2353      4800 
 2354 0119 0000 0000 		.zero	4
 2355 011d 0353 5953 		.string	"\003SYS"
 2355      00
 2356 0122 0000 0000 		.zero	5
 2356      00
 2357               		.comm	nr_usunietego_uzytkownika_z_smsa,1,1
 2358               		.comm	stan_wyjscie,1,1
 2359               		.text
 2360               	.Letext0:
 2361               		.file 3 "narzedzia.h"
 2362               		.file 4 "/opt/homebrew/Cellar/avr-gcc@8/8.5.0_3/lib/avr-gcc/8/gcc/avr/8.5.0/include/stddef.h"
 2363               		.file 5 "/opt/homebrew/Cellar/avr-gcc@8/8.5.0_3/avr/include/stdint.h"
 2364               		.file 6 "pamiec_ram.h"
 2365               		.file 7 "interpretacjaSMS.h"
 2366               		.file 8 "enumkomendy.h"
 2367               		.file 9 "komendy.h"
 2368               		.file 10 "/opt/homebrew/Cellar/avr-gcc@8/8.5.0_3/avr/include/stdio.h"
 2369               		.file 11 "/opt/homebrew/Cellar/avr-gcc@8/8.5.0_3/avr/include/stdlib.h"
 2370               		.file 12 "wewy.h"
 2371               		.file 13 "zapiseeprom.h"
 2372               		.file 14 "/opt/homebrew/Cellar/avr-gcc@8/8.5.0_3/avr/include/ctype.h"
 2373               		.file 15 "/opt/homebrew/Cellar/avr-gcc@8/8.5.0_3/avr/include/string.h"
 2374               		.file 16 "/opt/homebrew/Cellar/avr-gcc@8/8.5.0_3/avr/include/avr/pgmspace.h"
 2375               		.file 17 "konfiguracja.h"
 2376               		.file 18 "<built-in>"