   1               		.file	"pdu.c"
   2               	__SP_H__ = 0x3e
   3               	__SP_L__ = 0x3d
   4               	__SREG__ = 0x3f
   5               	__tmp_reg__ = 0
   6               	__zero_reg__ = 1
   7               		.text
   8               	.Ltext0:
   9               		.cfi_sections	.debug_frame
  10               	.global	pdu_to_ascii
  12               	pdu_to_ascii:
  13               	.LVL0:
  14               	.LFB1:
  15               		.file 1 "pdu.c"
   1:pdu.c         **** 
   2:pdu.c         **** #include "pdu.h"
   3:pdu.c         **** #include <string.h>
   4:pdu.c         **** #include "narzedzia.h"
   5:pdu.c         **** #include <avr/pgmspace.h>
   6:pdu.c         **** #include "konfiguracja.h"
   7:pdu.c         **** 
   8:pdu.c         **** #define ALPHABET_SIZE 128
   9:pdu.c         **** 
  10:pdu.c         **** static const uchar GSM_Default_Alphabet[ALPHABET_SIZE] PROGMEM = {
  11:pdu.c         **** 
  12:pdu.c         **** 	/* ETSI GSM 03.38, version 6.0.1, section 6.2.1; Default alphabet */
  13:pdu.c         **** 	/* Characters in hex position 10, [12 to 1a] and 24 are not present on
  14:pdu.c         **** 	   latin1 charset, so we cannot reproduce on the screen, however they are
  15:pdu.c         **** 	   greek symbol not present even on my Nokia */
  16:pdu.c         **** 
  17:pdu.c         **** 	'@',  0xa3, '$',  0xa5, 0xe8, 0xe9, 0xf9, 0xec, 
  18:pdu.c         **** 	0xf2, 0xc7, '\n', 0xd8, 0xf8, '\r', 0xc5, 0xe5,
  19:pdu.c         **** 	'?',  '_',  '?',  '?',  '?',  '?',  '?',  '?',
  20:pdu.c         **** 	'?',  '?',  '?',  '?',  0xc6, 0xe6, 0xdf, 0xc9,
  21:pdu.c         **** 	' ',  '!',  '\"', '#',  0xa4,  '%',  '&', '\'',
  22:pdu.c         **** 	'(',  ')',  '*',  '+',  ',',  '-',  '.',  '/',
  23:pdu.c         **** 	'0',  '1',  '2',  '3',  '4',  '5',  '6',  '7',
  24:pdu.c         **** 	'8',  '9',  ':',  ';',  '<',  '=',  '>',  '?',
  25:pdu.c         **** 	0xa1, 'A',  'B',  'C',  'D',  'E',  'F',  'G',
  26:pdu.c         **** 	'H',  'I',  'J',  'K',  'L',  'M',  'N',  'O',
  27:pdu.c         **** 	'P',  'Q',  'R',  'S',  'T',  'U',  'V',  'W',
  28:pdu.c         **** 	'X',  'Y',  'Z',  0xc4, 0xd6, 0xd1, 0xdc, 0xa7,
  29:pdu.c         **** 	0xbf, 'a',  'b',  'c',  'd',  'e',  'f',  'g',
  30:pdu.c         **** 	'h',  'i',  'j',  'k',  'l',  'm',  'n',  'o',
  31:pdu.c         **** 	'p',  'q',  'r',  's',  't',  'u',  'v',  'w',
  32:pdu.c         **** 	'x',  'y',  'z',  0xe4, 0xf6, 0xf1, 0xfc, 0xe0
  33:pdu.c         **** };
  34:pdu.c         **** 
  35:pdu.c         **** void pdu_to_ascii(const uchar* pdu, uchar* bufor, const uchar dim_bufor)
  36:pdu.c         **** {
  16               		.loc 1 36 1 view -0
  17               		.cfi_startproc
  18               		.loc 1 36 1 is_stmt 0 view .LVU1
  19 0000 DF92      		push r13
  20               	.LCFI0:
  21               		.cfi_def_cfa_offset 3
  22               		.cfi_offset 13, -2
  23 0002 EF92      		push r14
  24               	.LCFI1:
  25               		.cfi_def_cfa_offset 4
  26               		.cfi_offset 14, -3
  27 0004 FF92      		push r15
  28               	.LCFI2:
  29               		.cfi_def_cfa_offset 5
  30               		.cfi_offset 15, -4
  31 0006 0F93      		push r16
  32               	.LCFI3:
  33               		.cfi_def_cfa_offset 6
  34               		.cfi_offset 16, -5
  35 0008 1F93      		push r17
  36               	.LCFI4:
  37               		.cfi_def_cfa_offset 7
  38               		.cfi_offset 17, -6
  39 000a CF93      		push r28
  40               	.LCFI5:
  41               		.cfi_def_cfa_offset 8
  42               		.cfi_offset 28, -7
  43 000c DF93      		push r29
  44               	.LCFI6:
  45               		.cfi_def_cfa_offset 9
  46               		.cfi_offset 29, -8
  47               	/* prologue: function */
  48               	/* frame size = 0 */
  49               	/* stack size = 7 */
  50               	.L__stack_usage = 7
  37:pdu.c         **** 	const uchar l = *pdu++;
  51               		.loc 1 37 2 is_stmt 1 view .LVU2
  52               		.loc 1 37 22 is_stmt 0 view .LVU3
  53 000e DC01      		movw r26,r24
  54               		.loc 1 37 14 view .LVU4
  55 0010 1D91      		ld r17,X+
  56               	.LVL1:
  38:pdu.c         **** 	uchar* ascii = bufor;
  57               		.loc 1 38 2 is_stmt 1 view .LVU5
  39:pdu.c         **** 	uchar flaga = 0x80;
  58               		.loc 1 39 2 view .LVU6
  40:pdu.c         **** 	uchar pom = 0;
  59               		.loc 1 40 2 view .LVU7
  41:pdu.c         **** 	uchar w = 0;
  60               		.loc 1 41 2 view .LVU8
  42:pdu.c         **** 	const uchar roz_1 = min(dim_bufor-1, l);
  61               		.loc 1 42 2 view .LVU9
  62               		.loc 1 42 14 is_stmt 0 view .LVU10
  63 0012 1417      		cp r17,r20
  64 0014 00F0      		brlo .L2
  65               		.loc 1 42 14 discriminator 1 view .LVU11
  66 0016 1FEF      		ldi r17,lo8(-1)
  67               	.LVL2:
  68               		.loc 1 42 14 discriminator 1 view .LVU12
  69 0018 140F      		add r17,r20
  70               	.L2:
  71               	.LVL3:
  43:pdu.c         **** 	for (uchar i = 0; i < roz_1; )
  72               		.loc 1 43 2 is_stmt 1 discriminator 4 view .LVU13
  73               	.LBB2:
  74               		.loc 1 43 7 discriminator 4 view .LVU14
  75               		.loc 1 43 7 is_stmt 0 discriminator 4 view .LVU15
  76               	.LBE2:
  38:pdu.c         **** 	uchar flaga = 0x80;
  77               		.loc 1 38 9 discriminator 4 view .LVU16
  78 001a 862F      		mov r24,r22
  79               	.LVL4:
  38:pdu.c         **** 	uchar flaga = 0x80;
  80               		.loc 1 38 9 discriminator 4 view .LVU17
  81 001c 072F      		mov r16,r23
  82               	.LBB6:
  83               		.loc 1 43 13 discriminator 4 view .LVU18
  84 001e C0E0      		ldi r28,0
  85               	.LBE6:
  41:pdu.c         **** 	const uchar roz_1 = min(dim_bufor-1, l);
  86               		.loc 1 41 8 discriminator 4 view .LVU19
  87 0020 D12C      		mov r13,__zero_reg__
  40:pdu.c         **** 	uchar w = 0;
  88               		.loc 1 40 8 discriminator 4 view .LVU20
  89 0022 90E0      		ldi r25,0
  39:pdu.c         **** 	uchar pom = 0;
  90               		.loc 1 39 8 discriminator 4 view .LVU21
  91 0024 D0E8      		ldi r29,lo8(-128)
  92               	.LBB7:
  93               	.LBB3:
  44:pdu.c         **** {
  45:pdu.c         **** 		*ascii++ = pgm_read_byte(GSM_Default_Alphabet + (((*pdu & (~flaga)) << w) + pom));
  46:pdu.c         **** 		const uchar k = ++i & 0x07;
  47:pdu.c         **** 		if ( k != 0 )
  48:pdu.c         **** 		{
  49:pdu.c         **** 			pom = (*pdu++ & flaga) >> (7 - w);
  94               		.loc 1 49 33 discriminator 4 view .LVU22
  95 0026 27E0      		ldi r18,lo8(7)
  96 0028 30E0      		ldi r19,0
  97               	.LVL5:
  98               	.L3:
  99               		.loc 1 49 33 discriminator 4 view .LVU23
 100               	.LBE3:
  43:pdu.c         **** {
 101               		.loc 1 43 20 is_stmt 1 discriminator 1 view .LVU24
  43:pdu.c         **** {
 102               		.loc 1 43 2 is_stmt 0 discriminator 1 view .LVU25
 103 002a C113      		cpse r28,r17
 104 002c 00C0      		rjmp .L5
 105               	.LBE7:
  50:pdu.c         **** 			flaga = (flaga >> 1) + 0x80;
  51:pdu.c         **** 		}
  52:pdu.c         **** 		else
  53:pdu.c         **** 		{
  54:pdu.c         **** 			flaga = 0x80;
  55:pdu.c         **** 			pom = 0;
  56:pdu.c         **** 		}
  57:pdu.c         **** 		w = k;
  58:pdu.c         **** 	}
  59:pdu.c         **** 	*ascii = '\0';
 106               		.loc 1 59 2 is_stmt 1 view .LVU26
 107               		.loc 1 59 9 is_stmt 0 view .LVU27
 108 002e C60F      		add r28,r22
 109 0030 D72F      		mov r29,r23
 110 0032 D11D      		adc r29,__zero_reg__
 111               	.LVL6:
 112               		.loc 1 59 9 view .LVU28
 113 0034 1882      		st Y,__zero_reg__
 114               	/* epilogue start */
  60:pdu.c         **** }
 115               		.loc 1 60 1 view .LVU29
 116 0036 DF91      		pop r29
 117               	.LVL7:
 118               		.loc 1 60 1 view .LVU30
 119 0038 CF91      		pop r28
 120 003a 1F91      		pop r17
 121               	.LVL8:
 122               		.loc 1 60 1 view .LVU31
 123 003c 0F91      		pop r16
 124               	.LVL9:
 125               		.loc 1 60 1 view .LVU32
 126 003e FF90      		pop r15
 127 0040 EF90      		pop r14
 128 0042 DF90      		pop r13
 129               	.LVL10:
 130               		.loc 1 60 1 view .LVU33
 131 0044 0895      		ret
 132               	.LVL11:
 133               	.L5:
 134               	.LBB8:
 135               	.LBB5:
  45:pdu.c         **** 		const uchar k = ++i & 0x07;
 136               		.loc 1 45 3 is_stmt 1 view .LVU34
 137               	.LBB4:
  45:pdu.c         **** 		const uchar k = ++i & 0x07;
 138               		.loc 1 45 14 view .LVU35
 139 0046 4D2D      		mov r20,r13
 140 0048 50E0      		ldi r21,0
 141               	.LVL12:
  45:pdu.c         **** 		const uchar k = ++i & 0x07;
 142               		.loc 1 45 14 view .LVU36
  45:pdu.c         **** 		const uchar k = ++i & 0x07;
 143               		.loc 1 45 14 view .LVU37
 144 004a EC91      		ld r30,X
 145 004c F0E0      		ldi r31,0
 146 004e ED2E      		mov r14,r29
 147 0050 F12C      		mov r15,__zero_reg__
 148 0052 E094      		com r14
 149 0054 F094      		com r15
 150 0056 EE21      		and r30,r14
 151 0058 FF21      		and r31,r15
 152 005a 00C0      		rjmp 2f
 153               		1:
 154 005c EE0F      		lsl r30
 155 005e FF1F      		rol r31
 156               		2:
 157 0060 DA94      		dec r13
 158 0062 02F4      		brpl 1b
 159 0064 E90F      		add r30,r25
 160 0066 F11D      		adc r31,__zero_reg__
 161 0068 E050      		subi r30,lo8(-(GSM_Default_Alphabet))
 162 006a F040      		sbci r31,hi8(-(GSM_Default_Alphabet))
 163               	/* #APP */
 164               	 ;  45 "pdu.c" 1
 165 006c 9491      		lpm r25, Z
 166               		
 167               	 ;  0 "" 2
 168               	.LVL13:
  45:pdu.c         **** 		const uchar k = ++i & 0x07;
 169               		.loc 1 45 14 view .LVU38
 170               	/* #NOAPP */
 171               	.LBE4:
  45:pdu.c         **** 		const uchar k = ++i & 0x07;
 172               		.loc 1 45 9 is_stmt 0 view .LVU39
 173 006e E82E      		mov r14,r24
 174 0070 F02E      		mov r15,r16
 175               	.LVL14:
  45:pdu.c         **** 		const uchar k = ++i & 0x07;
 176               		.loc 1 45 12 view .LVU40
 177 0072 F701      		movw r30,r14
 178 0074 9193      		st Z+,r25
  45:pdu.c         **** 		const uchar k = ++i & 0x07;
 179               		.loc 1 45 12 view .LVU41
 180 0076 7F01      		movw r14,r30
 181               	.LVL15:
  46:pdu.c         **** 		if ( k != 0 )
 182               		.loc 1 46 3 is_stmt 1 view .LVU42
  46:pdu.c         **** 		if ( k != 0 )
 183               		.loc 1 46 15 is_stmt 0 view .LVU43
 184 0078 CF5F      		subi r28,lo8(-(1))
 185               	.LVL16:
  46:pdu.c         **** 		if ( k != 0 )
 186               		.loc 1 46 15 view .LVU44
 187 007a FC2F      		mov r31,r28
 188 007c F770      		andi r31,lo8(7)
 189 007e DF2E      		mov r13,r31
 190               	.LVL17:
  47:pdu.c         **** 		{
 191               		.loc 1 47 3 is_stmt 1 view .LVU45
  47:pdu.c         **** 		{
 192               		.loc 1 47 6 is_stmt 0 view .LVU46
 193 0080 01F0      		breq .L6
  49:pdu.c         **** 			flaga = (flaga >> 1) + 0x80;
 194               		.loc 1 49 4 is_stmt 1 view .LVU47
  49:pdu.c         **** 			flaga = (flaga >> 1) + 0x80;
 195               		.loc 1 49 18 is_stmt 0 view .LVU48
 196 0082 ED91      		ld r30,X+
 197               	.LVL18:
  49:pdu.c         **** 			flaga = (flaga >> 1) + 0x80;
 198               		.loc 1 49 18 view .LVU49
 199 0084 ED23      		and r30,r29
 200 0086 F0E0      		ldi r31,0
  49:pdu.c         **** 			flaga = (flaga >> 1) + 0x80;
 201               		.loc 1 49 33 view .LVU50
 202 0088 C901      		movw r24,r18
 203 008a 841B      		sub r24,r20
 204 008c 950B      		sbc r25,r21
  49:pdu.c         **** 			flaga = (flaga >> 1) + 0x80;
 205               		.loc 1 49 27 view .LVU51
 206 008e 00C0      		rjmp 2f
 207               		1:
 208 0090 F595      		asr r31
 209 0092 E795      		ror r30
 210               		2:
 211 0094 8A95      		dec r24
 212 0096 02F4      		brpl 1b
  49:pdu.c         **** 			flaga = (flaga >> 1) + 0x80;
 213               		.loc 1 49 8 view .LVU52
 214 0098 9E2F      		mov r25,r30
 215               	.LVL19:
  50:pdu.c         **** 		}
 216               		.loc 1 50 4 is_stmt 1 view .LVU53
  50:pdu.c         **** 		}
 217               		.loc 1 50 25 is_stmt 0 view .LVU54
 218 009a D695      		lsr r29
 219               	.LVL20:
  50:pdu.c         **** 		}
 220               		.loc 1 50 10 view .LVU55
 221 009c D058      		subi r29,lo8(-(-128))
 222               	.LVL21:
 223               	.L4:
  46:pdu.c         **** 		if ( k != 0 )
 224               		.loc 1 46 15 discriminator 1 view .LVU56
 225 009e 8E2D      		mov r24,r14
 226 00a0 0F2D      		mov r16,r15
 227 00a2 00C0      		rjmp .L3
 228               	.LVL22:
 229               	.L6:
  55:pdu.c         **** 		}
 230               		.loc 1 55 8 view .LVU57
 231 00a4 90E0      		ldi r25,0
 232               	.LVL23:
  54:pdu.c         **** 			pom = 0;
 233               		.loc 1 54 10 view .LVU58
 234 00a6 D0E8      		ldi r29,lo8(-128)
 235               	.LVL24:
  54:pdu.c         **** 			pom = 0;
 236               		.loc 1 54 10 view .LVU59
 237 00a8 00C0      		rjmp .L4
 238               	.LBE5:
 239               	.LBE8:
 240               		.cfi_endproc
 241               	.LFE1:
 243               	.global	ascii_to_pdu_blok
 245               	ascii_to_pdu_blok:
 246               	.LVL25:
 247               	.LFB2:
  61:pdu.c         **** 
  62:pdu.c         **** static const uchar GSM_Default_DeAlphabet[256] PROGMEM = {
  63:pdu.c         **** 	0x3f, 0x3f, 0x3f, 0x3f, 0x3f, 0x3f, 0x3f, 0x3f, 0x3f, 0x3f, 0x0a, 0x3f, 0x3f, 0x0d, 0x3f, 0x3f, 
  64:pdu.c         **** 	0x3f, 0x3f, 0x3f, 0x3f, 0x3f, 0x3f, 0x3f, 0x3f, 0x3f, 0x3f, 0x3f, 0x3f, 0x3f, 0x3f, 0x3f, 0x3f, 
  65:pdu.c         **** 	0x20, 0x21, 0x22, 0x23, 0x02, 0x25, 0x26, 0x27, 0x28, 0x29, 0x2a, 0x2b, 0x2c, 0x2d, 0x2e, 0x2f, 
  66:pdu.c         **** 	0x30, 0x31, 0x32, 0x33, 0x34, 0x35, 0x36, 0x37, 0x38, 0x39, 0x3a, 0x3b, 0x3c, 0x3d, 0x3e, 0x3f, 
  67:pdu.c         **** 	0x00, 0x41, 0x42, 0x43, 0x44, 0x45, 0x46, 0x47, 0x48, 0x49, 0x4a, 0x4b, 0x4c, 0x4d, 0x4e, 0x4f, 
  68:pdu.c         **** 	0x50, 0x51, 0x52, 0x53, 0x54, 0x55, 0x56, 0x57, 0x58, 0x59, 0x5a, 0x3f, 0x3f, 0x3f, 0x3f, 0x11, 
  69:pdu.c         **** 	0x3f, 0x61, 0x62, 0x63, 0x64, 0x65, 0x66, 0x67, 0x68, 0x69, 0x6a, 0x6b, 0x6c, 0x6d, 0x6e, 0x6f, 
  70:pdu.c         **** 	0x70, 0x71, 0x72, 0x73, 0x74, 0x75, 0x76, 0x77, 0x78, 0x79, 0x7a, 0x3f, 0x3f, 0x3f, 0x3f, 0x3f, 
  71:pdu.c         **** 	0x3f, 0x3f, 0x3f, 0x3f, 0x3f, 0x3f, 0x3f, 0x3f, 0x3f, 0x3f, 0x3f, 0x3f, 0x3f, 0x3f, 0x3f, 0x3f, 
  72:pdu.c         **** 	0x3f, 0x3f, 0x3f, 0x3f, 0x3f, 0x3f, 0x3f, 0x3f, 0x3f, 0x3f, 0x3f, 0x3f, 0x3f, 0x3f, 0x3f, 0x3f, 
  73:pdu.c         **** 	0x3f, 0x40, 0x3f, 0x01, 0x24, 0x03, 0x3f, 0x5f, 0x3f, 0x3f, 0x3f, 0x3f, 0x3f, 0x3f, 0x3f, 0x3f, 
  74:pdu.c         **** 	0x3f, 0x3f, 0x3f, 0x3f, 0x3f, 0x3f, 0x3f, 0x3f, 0x3f, 0x3f, 0x3f, 0x3f, 0x3f, 0x3f, 0x3f, 0x60, 
  75:pdu.c         **** 	0x3f, 0x3f, 0x3f, 0x3f, 0x5b, 0x0e, 0x1c, 0x09, 0x3f, 0x1f, 0x3f, 0x3f, 0x3f, 0x3f, 0x3f, 0x3f, 
  76:pdu.c         **** 	0x3f, 0x5d, 0x3f, 0x3f, 0x3f, 0x3f, 0x5c, 0x3f, 0x0b, 0x3f, 0x3f, 0x3f, 0x5e, 0x3f, 0x3f, 0x1e, 
  77:pdu.c         **** 	0x7f, 0x3f, 0x3f, 0x3f, 0x7b, 0x0f, 0x1d, 0x3f, 0x04, 0x05, 0x3f, 0x3f, 0x07, 0x3f, 0x3f, 0x3f, 
  78:pdu.c         **** 	0x3f, 0x7d, 0x08, 0x3f, 0x3f, 0x3f, 0x7c, 0x3f, 0x0c, 0x06, 0x3f, 0x3f, 0x7e, 0x3f, 0x3f, 0x3f
  79:pdu.c         **** };
  80:pdu.c         **** 
  81:pdu.c         **** uchar* ascii_to_pdu_blok(uchar* bufor_pdu, const uchar* ascii, 
  82:pdu.c         **** 	const uchar* ascii_end)
  83:pdu.c         **** {
 248               		.loc 1 83 1 is_stmt 1 view -0
 249               		.cfi_startproc
 250               		.loc 1 83 1 is_stmt 0 view .LVU61
 251 00aa CF92      		push r12
 252               	.LCFI7:
 253               		.cfi_def_cfa_offset 3
 254               		.cfi_offset 12, -2
 255 00ac DF92      		push r13
 256               	.LCFI8:
 257               		.cfi_def_cfa_offset 4
 258               		.cfi_offset 13, -3
 259 00ae EF92      		push r14
 260               	.LCFI9:
 261               		.cfi_def_cfa_offset 5
 262               		.cfi_offset 14, -4
 263 00b0 FF92      		push r15
 264               	.LCFI10:
 265               		.cfi_def_cfa_offset 6
 266               		.cfi_offset 15, -5
 267 00b2 0F93      		push r16
 268               	.LCFI11:
 269               		.cfi_def_cfa_offset 7
 270               		.cfi_offset 16, -6
 271 00b4 1F93      		push r17
 272               	.LCFI12:
 273               		.cfi_def_cfa_offset 8
 274               		.cfi_offset 17, -7
 275 00b6 CF93      		push r28
 276               	.LCFI13:
 277               		.cfi_def_cfa_offset 9
 278               		.cfi_offset 28, -8
 279 00b8 DF93      		push r29
 280               	.LCFI14:
 281               		.cfi_def_cfa_offset 10
 282               		.cfi_offset 29, -9
 283               	/* prologue: function */
 284               	/* frame size = 0 */
 285               	/* stack size = 8 */
 286               	.L__stack_usage = 8
 287 00ba EC01      		movw r28,r24
  84:pdu.c         **** 	bufor_pdu[0] = (uchar)(ascii_end - ascii);
 288               		.loc 1 84 2 is_stmt 1 view .LVU62
 289               		.loc 1 84 35 is_stmt 0 view .LVU63
 290 00bc 461B      		sub r20,r22
 291 00be 570B      		sbc r21,r23
 292               	.LVL26:
 293               		.loc 1 84 15 view .LVU64
 294 00c0 DC01      		movw r26,r24
 295 00c2 4D93      		st X+,r20
  85:pdu.c         **** 	const uchar roz_1 = bufor_pdu[0] - 1;	// rozmiar = roz_1 + 1
 296               		.loc 1 85 2 is_stmt 1 view .LVU65
 297               		.loc 1 85 14 is_stmt 0 view .LVU66
 298 00c4 3FEF      		ldi r19,lo8(-1)
 299 00c6 340F      		add r19,r20
 300               	.LVL27:
  86:pdu.c         **** 	uchar j = 0;
 301               		.loc 1 86 2 is_stmt 1 view .LVU67
  87:pdu.c         **** 	uchar l = 0;
 302               		.loc 1 87 2 view .LVU68
  88:pdu.c         **** 	uchar* pdu_ptr = bufor_pdu+1;
 303               		.loc 1 88 2 view .LVU69
  89:pdu.c         **** 	uchar konwersja;
 304               		.loc 1 89 2 view .LVU70
  90:pdu.c         **** 	while ( j < roz_1 )
 305               		.loc 1 90 2 view .LVU71
  87:pdu.c         **** 	uchar* pdu_ptr = bufor_pdu+1;
 306               		.loc 1 87 8 is_stmt 0 view .LVU72
 307 00c8 90E0      		ldi r25,0
  86:pdu.c         **** 	uchar l = 0;
 308               		.loc 1 86 8 view .LVU73
 309 00ca 20E0      		ldi r18,0
 310               	.LBB9:
  91:pdu.c         **** 	{
  92:pdu.c         **** 		uchar l_7 = 7 - l;
  93:pdu.c         **** 		konwersja = ((pgm_read_byte(GSM_Default_DeAlphabet + ascii[j])) & (0x7fu << l)) >> l;
 311               		.loc 1 93 76 view .LVU74
 312 00cc 0FE7      		ldi r16,lo8(127)
 313 00ce 10E0      		ldi r17,0
  92:pdu.c         **** 		konwersja = ((pgm_read_byte(GSM_Default_DeAlphabet + ascii[j])) & (0x7fu << l)) >> l;
 314               		.loc 1 92 9 view .LVU75
 315 00d0 87E0      		ldi r24,lo8(7)
 316               	.LVL28:
  94:pdu.c         **** 		konwersja |= ((pgm_read_byte(GSM_Default_DeAlphabet + ascii[j+1])) & (0xffu >> l_7)) << l_7;
 317               		.loc 1 94 79 view .LVU76
 318 00d2 4FEF      		ldi r20,lo8(-1)
 319 00d4 50E0      		ldi r21,0
 320               	.LVL29:
 321               	.L8:
 322               		.loc 1 94 79 view .LVU77
 323               	.LBE9:
  90:pdu.c         **** 	{
 324               		.loc 1 90 8 is_stmt 1 view .LVU78
 325 00d6 2317      		cp r18,r19
 326 00d8 00F0      		brlo .L10
  95:pdu.c         **** 		//*pdu_ptr++ = pgm_read_byte(GSM_Default_DeAlphabet + konwersja);
  96:pdu.c         **** 		*pdu_ptr++ = konwersja;
  97:pdu.c         **** 		if ( ++l == 7 )
  98:pdu.c         **** 		{
  99:pdu.c         **** 			l = 0;
 100:pdu.c         **** 			++j;
 101:pdu.c         **** 		}
 102:pdu.c         **** 		++j;
 103:pdu.c         **** 	}
 104:pdu.c         **** 	if ( bufor_pdu[0] % 8 != 0 )
 327               		.loc 1 104 2 view .LVU79
 328               		.loc 1 104 24 is_stmt 0 view .LVU80
 329 00da 8881      		ld r24,Y
 330 00dc 8770      		andi r24,lo8(7)
 331               		.loc 1 104 5 view .LVU81
 332 00de 01F0      		breq .L7
 105:pdu.c         **** 	{
 106:pdu.c         **** 		konwersja = (((pgm_read_byte(GSM_Default_DeAlphabet + ascii[j])) & (0x7fu << l)) >> l );
 333               		.loc 1 106 3 is_stmt 1 view .LVU82
 334               	.LBB12:
 335               		.loc 1 106 18 view .LVU83
 336               	.LVL30:
 337               		.loc 1 106 18 view .LVU84
 338               		.loc 1 106 18 view .LVU85
 339 00e0 FB01      		movw r30,r22
 340 00e2 E20F      		add r30,r18
 341 00e4 F11D      		adc r31,__zero_reg__
 342 00e6 E081      		ld r30,Z
 343 00e8 F0E0      		ldi r31,0
 344 00ea E050      		subi r30,lo8(-(GSM_Default_DeAlphabet))
 345 00ec F040      		sbci r31,hi8(-(GSM_Default_DeAlphabet))
 346               	/* #APP */
 347               	 ;  106 "pdu.c" 1
 348 00ee 2491      		lpm r18, Z
 349               		
 350               	 ;  0 "" 2
 351               	.LVL31:
 352               		.loc 1 106 18 view .LVU86
 353               		.loc 1 106 18 is_stmt 0 view .LVU87
 354               	/* #NOAPP */
 355               	.LBE12:
 107:pdu.c         **** 		//*pdu_ptr++ = pgm_read_byte(GSM_Default_DeAlphabet + konwersja);
 108:pdu.c         **** 		*pdu_ptr++ = konwersja;
 356               		.loc 1 108 3 is_stmt 1 view .LVU88
 106:pdu.c         **** 		//*pdu_ptr++ = pgm_read_byte(GSM_Default_DeAlphabet + konwersja);
 357               		.loc 1 106 77 is_stmt 0 view .LVU89
 358 00f0 4FE7      		ldi r20,lo8(127)
 359 00f2 50E0      		ldi r21,0
 360 00f4 092E      		mov r0,r25
 361 00f6 00C0      		rjmp 2f
 362               		1:
 363 00f8 440F      		lsl r20
 364 00fa 551F      		rol r21
 365               		2:
 366 00fc 0A94      		dec r0
 367 00fe 02F4      		brpl 1b
 106:pdu.c         **** 		//*pdu_ptr++ = pgm_read_byte(GSM_Default_DeAlphabet + konwersja);
 368               		.loc 1 106 18 view .LVU90
 369 0100 E22F      		mov r30,r18
 370 0102 F0E0      		ldi r31,0
 106:pdu.c         **** 		//*pdu_ptr++ = pgm_read_byte(GSM_Default_DeAlphabet + konwersja);
 371               		.loc 1 106 68 view .LVU91
 372 0104 E423      		and r30,r20
 373 0106 F523      		and r31,r21
 106:pdu.c         **** 		//*pdu_ptr++ = pgm_read_byte(GSM_Default_DeAlphabet + konwersja);
 374               		.loc 1 106 84 view .LVU92
 375 0108 00C0      		rjmp 2f
 376               		1:
 377 010a F695      		lsr r31
 378 010c E795      		ror r30
 379               		2:
 380 010e 9A95      		dec r25
 381 0110 02F4      		brpl 1b
 106:pdu.c         **** 		//*pdu_ptr++ = pgm_read_byte(GSM_Default_DeAlphabet + konwersja);
 382               		.loc 1 106 13 view .LVU93
 383 0112 ED93      		st X+,r30
 384               	.LVL32:
 109:pdu.c         **** 	}
 110:pdu.c         **** 	return pdu_ptr;
 385               		.loc 1 110 2 is_stmt 1 view .LVU94
 386               	.L7:
 111:pdu.c         **** }
 387               		.loc 1 111 1 is_stmt 0 view .LVU95
 388 0114 CD01      		movw r24,r26
 389               	/* epilogue start */
 390 0116 DF91      		pop r29
 391 0118 CF91      		pop r28
 392               	.LVL33:
 393               		.loc 1 111 1 view .LVU96
 394 011a 1F91      		pop r17
 395 011c 0F91      		pop r16
 396 011e FF90      		pop r15
 397 0120 EF90      		pop r14
 398 0122 DF90      		pop r13
 399 0124 CF90      		pop r12
 400 0126 0895      		ret
 401               	.LVL34:
 402               	.L10:
 403               	.LBB13:
  92:pdu.c         **** 		konwersja = ((pgm_read_byte(GSM_Default_DeAlphabet + ascii[j])) & (0x7fu << l)) >> l;
 404               		.loc 1 92 3 is_stmt 1 view .LVU97
  93:pdu.c         **** 		konwersja |= ((pgm_read_byte(GSM_Default_DeAlphabet + ascii[j+1])) & (0xffu >> l_7)) << l_7;
 405               		.loc 1 93 3 view .LVU98
 406               	.LBB10:
  93:pdu.c         **** 		konwersja |= ((pgm_read_byte(GSM_Default_DeAlphabet + ascii[j+1])) & (0xffu >> l_7)) << l_7;
 407               		.loc 1 93 17 view .LVU99
  93:pdu.c         **** 		konwersja |= ((pgm_read_byte(GSM_Default_DeAlphabet + ascii[j+1])) & (0xffu >> l_7)) << l_7;
 408               		.loc 1 93 17 view .LVU100
  93:pdu.c         **** 		konwersja |= ((pgm_read_byte(GSM_Default_DeAlphabet + ascii[j+1])) & (0xffu >> l_7)) << l_7;
 409               		.loc 1 93 17 view .LVU101
 410 0128 6B01      		movw r12,r22
 411 012a C20E      		add r12,r18
 412 012c D11C      		adc r13,__zero_reg__
 413               	.LVL35:
  93:pdu.c         **** 		konwersja |= ((pgm_read_byte(GSM_Default_DeAlphabet + ascii[j+1])) & (0xffu >> l_7)) << l_7;
 414               		.loc 1 93 17 is_stmt 0 view .LVU102
 415 012e F601      		movw r30,r12
 416 0130 F080      		ld r15,Z
 417 0132 EF2D      		mov r30,r15
 418 0134 F0E0      		ldi r31,0
 419 0136 E050      		subi r30,lo8(-(GSM_Default_DeAlphabet))
 420 0138 F040      		sbci r31,hi8(-(GSM_Default_DeAlphabet))
 421               	/* #APP */
 422               	 ;  93 "pdu.c" 1
 423 013a E491      		lpm r30, Z
 424               		
 425               	 ;  0 "" 2
 426               	.LVL36:
  93:pdu.c         **** 		konwersja |= ((pgm_read_byte(GSM_Default_DeAlphabet + ascii[j+1])) & (0xffu >> l_7)) << l_7;
 427               		.loc 1 93 17 is_stmt 1 view .LVU103
 428               	/* #NOAPP */
 429               	.LBE10:
  93:pdu.c         **** 		konwersja |= ((pgm_read_byte(GSM_Default_DeAlphabet + ascii[j+1])) & (0xffu >> l_7)) << l_7;
 430               		.loc 1 93 76 is_stmt 0 view .LVU104
 431 013c 7801      		movw r14,r16
 432 013e 092E      		mov r0,r25
 433 0140 00C0      		rjmp 2f
 434               		1:
 435 0142 EE0C      		lsl r14
 436 0144 FF1C      		rol r15
 437               		2:
 438 0146 0A94      		dec r0
 439 0148 02F4      		brpl 1b
  93:pdu.c         **** 		konwersja |= ((pgm_read_byte(GSM_Default_DeAlphabet + ascii[j+1])) & (0xffu >> l_7)) << l_7;
 440               		.loc 1 93 17 view .LVU105
 441 014a F0E0      		ldi r31,0
  93:pdu.c         **** 		konwersja |= ((pgm_read_byte(GSM_Default_DeAlphabet + ascii[j+1])) & (0xffu >> l_7)) << l_7;
 442               		.loc 1 93 67 view .LVU106
 443 014c EE22      		and r14,r30
 444 014e FF22      		and r15,r31
  93:pdu.c         **** 		konwersja |= ((pgm_read_byte(GSM_Default_DeAlphabet + ascii[j+1])) & (0xffu >> l_7)) << l_7;
 445               		.loc 1 93 83 view .LVU107
 446 0150 092E      		mov r0,r25
 447 0152 00C0      		rjmp 2f
 448               		1:
 449 0154 F694      		lsr r15
 450 0156 E794      		ror r14
 451               		2:
 452 0158 0A94      		dec r0
 453 015a 02F4      		brpl 1b
 454               	.LVL37:
  94:pdu.c         **** 		//*pdu_ptr++ = pgm_read_byte(GSM_Default_DeAlphabet + konwersja);
 455               		.loc 1 94 3 is_stmt 1 view .LVU108
 456               	.LBB11:
  94:pdu.c         **** 		//*pdu_ptr++ = pgm_read_byte(GSM_Default_DeAlphabet + konwersja);
 457               		.loc 1 94 18 view .LVU109
  94:pdu.c         **** 		//*pdu_ptr++ = pgm_read_byte(GSM_Default_DeAlphabet + konwersja);
 458               		.loc 1 94 18 view .LVU110
  94:pdu.c         **** 		//*pdu_ptr++ = pgm_read_byte(GSM_Default_DeAlphabet + konwersja);
 459               		.loc 1 94 18 view .LVU111
 460 015c F601      		movw r30,r12
 461               	.LVL38:
  94:pdu.c         **** 		//*pdu_ptr++ = pgm_read_byte(GSM_Default_DeAlphabet + konwersja);
 462               		.loc 1 94 18 is_stmt 0 view .LVU112
 463 015e F180      		ldd r15,Z+1
 464 0160 EF2D      		mov r30,r15
 465 0162 F0E0      		ldi r31,0
 466 0164 E050      		subi r30,lo8(-(GSM_Default_DeAlphabet))
 467 0166 F040      		sbci r31,hi8(-(GSM_Default_DeAlphabet))
 468               	/* #APP */
 469               	 ;  94 "pdu.c" 1
 470 0168 E491      		lpm r30, Z
 471               		
 472               	 ;  0 "" 2
 473               	.LVL39:
  94:pdu.c         **** 		//*pdu_ptr++ = pgm_read_byte(GSM_Default_DeAlphabet + konwersja);
 474               		.loc 1 94 18 is_stmt 1 view .LVU113
 475               	/* #NOAPP */
 476               	.LBE11:
  92:pdu.c         **** 		konwersja = ((pgm_read_byte(GSM_Default_DeAlphabet + ascii[j])) & (0x7fu << l)) >> l;
 477               		.loc 1 92 9 is_stmt 0 view .LVU114
 478 016a F82E      		mov r15,r24
 479 016c F91A      		sub r15,r25
 480               	.LVL40:
  96:pdu.c         **** 		if ( ++l == 7 )
 481               		.loc 1 96 3 is_stmt 1 view .LVU115
  94:pdu.c         **** 		//*pdu_ptr++ = pgm_read_byte(GSM_Default_DeAlphabet + konwersja);
 482               		.loc 1 94 79 is_stmt 0 view .LVU116
 483 016e 6A01      		movw r12,r20
 484               	.LVL41:
  94:pdu.c         **** 		//*pdu_ptr++ = pgm_read_byte(GSM_Default_DeAlphabet + konwersja);
 485               		.loc 1 94 79 view .LVU117
 486 0170 0F2C      		mov r0,r15
 487 0172 00C0      		rjmp 2f
 488               		1:
 489 0174 D694      		lsr r13
 490 0176 C794      		ror r12
 491               		2:
 492 0178 0A94      		dec r0
 493 017a 02F4      		brpl 1b
  94:pdu.c         **** 		//*pdu_ptr++ = pgm_read_byte(GSM_Default_DeAlphabet + konwersja);
 494               		.loc 1 94 70 view .LVU118
 495 017c EC21      		and r30,r12
 496               	.LVL42:
  94:pdu.c         **** 		//*pdu_ptr++ = pgm_read_byte(GSM_Default_DeAlphabet + konwersja);
 497               		.loc 1 94 88 view .LVU119
 498 017e 00C0      		rjmp 2f
 499               		1:
 500 0180 EE0F      		lsl r30
 501               		2:
 502 0182 FA94      		dec r15
 503 0184 02F4      		brpl 1b
  94:pdu.c         **** 		//*pdu_ptr++ = pgm_read_byte(GSM_Default_DeAlphabet + konwersja);
 504               		.loc 1 94 13 view .LVU120
 505 0186 EE29      		or r30,r14
  96:pdu.c         **** 		if ( ++l == 7 )
 506               		.loc 1 96 14 view .LVU121
 507 0188 ED93      		st X+,r30
 508               	.LVL43:
  97:pdu.c         **** 		{
 509               		.loc 1 97 3 is_stmt 1 view .LVU122
  97:pdu.c         **** 		{
 510               		.loc 1 97 6 is_stmt 0 view .LVU123
 511 018a 9F5F      		subi r25,lo8(-(1))
 512               	.LVL44:
  97:pdu.c         **** 		{
 513               		.loc 1 97 6 view .LVU124
 514 018c 9730      		cpi r25,lo8(7)
 515 018e 01F4      		brne .L9
 516 0190 2F5F      		subi r18,lo8(-(1))
 517               	.LVL45:
  99:pdu.c         **** 			++j;
 518               		.loc 1 99 6 view .LVU125
 519 0192 90E0      		ldi r25,0
 520               	.LVL46:
 521               	.L9:
 102:pdu.c         **** 	}
 522               		.loc 1 102 3 is_stmt 1 view .LVU126
 523 0194 2F5F      		subi r18,lo8(-(1))
 524               	.LVL47:
 102:pdu.c         **** 	}
 525               		.loc 1 102 3 is_stmt 0 view .LVU127
 526 0196 00C0      		rjmp .L8
 527               	.LBE13:
 528               		.cfi_endproc
 529               	.LFE2:
 531               	.global	konwertuj_blok_dwa_znaki_na_znak_pdu
 533               	konwertuj_blok_dwa_znaki_na_znak_pdu:
 534               	.LVL48:
 535               	.LFB3:
 112:pdu.c         **** 
 113:pdu.c         **** void konwertuj_blok_dwa_znaki_na_znak_pdu(const uchar* blok_danych, 
 114:pdu.c         **** 	const uchar liczba_znakow, uchar* ptr)
 115:pdu.c         **** {
 536               		.loc 1 115 1 is_stmt 1 view -0
 537               		.cfi_startproc
 538               	/* prologue: function */
 539               	/* frame size = 0 */
 540               	/* stack size = 0 */
 541               	.L__stack_usage = 0
 116:pdu.c         **** 	for (uint i = 0; i < liczba_znakow; ++i)
 542               		.loc 1 116 2 view .LVU129
 543               	.LBB14:
 544               		.loc 1 116 7 view .LVU130
 545               		.loc 1 116 7 is_stmt 0 view .LVU131
 546 0198 FC01      		movw r30,r24
 547 019a 640F      		add r22,r20
 548 019c 752F      		mov r23,r21
 549 019e 711D      		adc r23,__zero_reg__
 550               	.LVL49:
 551               	.L16:
 552               		.loc 1 116 19 is_stmt 1 discriminator 2 view .LVU132
 553               		.loc 1 116 2 is_stmt 0 discriminator 2 view .LVU133
 554 01a0 4617      		cp r20,r22
 555 01a2 5707      		cpc r21,r23
 556 01a4 01F4      		brne .L21
 557               	/* epilogue start */
 558               	.LBE14:
 117:pdu.c         **** 	{
 118:pdu.c         **** 		uchar ch = *blok_danych++;
 119:pdu.c         **** 		uchar wynik = ( ch < ('9' + 1)) ? (ch - '0') : (ch - ('A' - 10));
 120:pdu.c         **** 		wynik <<= 4;
 121:pdu.c         **** 		ch = *blok_danych++;
 122:pdu.c         **** 		wynik += ( ch < ('9' + 1)) ? (ch - '0') : (ch - ('A' - 10));
 123:pdu.c         **** 		*ptr++ = wynik;
 124:pdu.c         **** 	}
 125:pdu.c         **** }
 559               		.loc 1 125 1 view .LVU134
 560 01a6 0895      		ret
 561               	.L21:
 562               	.LBB17:
 563               	.LBB15:
 118:pdu.c         **** 		uchar wynik = ( ch < ('9' + 1)) ? (ch - '0') : (ch - ('A' - 10));
 564               		.loc 1 118 3 is_stmt 1 view .LVU135
 565               	.LVL50:
 118:pdu.c         **** 		uchar wynik = ( ch < ('9' + 1)) ? (ch - '0') : (ch - ('A' - 10));
 566               		.loc 1 118 9 is_stmt 0 view .LVU136
 567 01a8 9081      		ld r25,Z
 568               	.LVL51:
 119:pdu.c         **** 		wynik <<= 4;
 569               		.loc 1 119 3 is_stmt 1 view .LVU137
 119:pdu.c         **** 		wynik <<= 4;
 570               		.loc 1 119 9 is_stmt 0 view .LVU138
 571 01aa 9A33      		cpi r25,lo8(58)
 572 01ac 00F4      		brsh .L17
 119:pdu.c         **** 		wynik <<= 4;
 573               		.loc 1 119 9 discriminator 1 view .LVU139
 574 01ae 9053      		subi r25,lo8(-(-48))
 575               	.LVL52:
 576               	.L18:
 120:pdu.c         **** 		ch = *blok_danych++;
 577               		.loc 1 120 3 is_stmt 1 discriminator 4 view .LVU140
 120:pdu.c         **** 		ch = *blok_danych++;
 578               		.loc 1 120 9 is_stmt 0 discriminator 4 view .LVU141
 579 01b0 292F      		mov r18,r25
 580 01b2 2295      		swap r18
 581 01b4 207F      		andi r18,lo8(-16)
 582               	.LVL53:
 121:pdu.c         **** 		wynik += ( ch < ('9' + 1)) ? (ch - '0') : (ch - ('A' - 10));
 583               		.loc 1 121 3 is_stmt 1 discriminator 4 view .LVU142
 121:pdu.c         **** 		wynik += ( ch < ('9' + 1)) ? (ch - '0') : (ch - ('A' - 10));
 584               		.loc 1 121 6 is_stmt 0 discriminator 4 view .LVU143
 585 01b6 9181      		ldd r25,Z+1
 586               	.LVL54:
 122:pdu.c         **** 		*ptr++ = wynik;
 587               		.loc 1 122 3 is_stmt 1 discriminator 4 view .LVU144
 122:pdu.c         **** 		*ptr++ = wynik;
 588               		.loc 1 122 9 is_stmt 0 discriminator 4 view .LVU145
 589 01b8 9A33      		cpi r25,lo8(58)
 590 01ba 00F4      		brsh .L19
 122:pdu.c         **** 		*ptr++ = wynik;
 591               		.loc 1 122 9 discriminator 1 view .LVU146
 592 01bc 9053      		subi r25,lo8(-(-48))
 593               	.LVL55:
 594               	.L20:
 123:pdu.c         **** 	}
 595               		.loc 1 123 3 is_stmt 1 discriminator 4 view .LVU147
 122:pdu.c         **** 		*ptr++ = wynik;
 596               		.loc 1 122 9 is_stmt 0 discriminator 4 view .LVU148
 597 01be 920F      		add r25,r18
 598               	.LVL56:
 123:pdu.c         **** 	}
 599               		.loc 1 123 10 discriminator 4 view .LVU149
 600 01c0 DA01      		movw r26,r20
 601 01c2 9D93      		st X+,r25
 602               	.LVL57:
 123:pdu.c         **** 	}
 603               		.loc 1 123 10 discriminator 4 view .LVU150
 604 01c4 AD01      		movw r20,r26
 605               	.LVL58:
 123:pdu.c         **** 	}
 606               		.loc 1 123 10 discriminator 4 view .LVU151
 607               	.LBE15:
 116:pdu.c         **** 	{
 608               		.loc 1 116 38 is_stmt 1 discriminator 4 view .LVU152
 116:pdu.c         **** 	{
 609               		.loc 1 116 38 is_stmt 0 discriminator 4 view .LVU153
 610 01c6 3296      		adiw r30,2
 611               	.LVL59:
 116:pdu.c         **** 	{
 612               		.loc 1 116 38 discriminator 4 view .LVU154
 613 01c8 00C0      		rjmp .L16
 614               	.LVL60:
 615               	.L17:
 616               	.LBB16:
 119:pdu.c         **** 		wynik <<= 4;
 617               		.loc 1 119 9 discriminator 2 view .LVU155
 618 01ca 9753      		subi r25,lo8(-(-55))
 619               	.LVL61:
 119:pdu.c         **** 		wynik <<= 4;
 620               		.loc 1 119 9 discriminator 2 view .LVU156
 621 01cc 00C0      		rjmp .L18
 622               	.LVL62:
 623               	.L19:
 122:pdu.c         **** 		*ptr++ = wynik;
 624               		.loc 1 122 9 discriminator 2 view .LVU157
 625 01ce 9753      		subi r25,lo8(-(-55))
 626               	.LVL63:
 122:pdu.c         **** 		*ptr++ = wynik;
 627               		.loc 1 122 9 discriminator 2 view .LVU158
 628 01d0 00C0      		rjmp .L20
 629               	.LBE16:
 630               	.LBE17:
 631               		.cfi_endproc
 632               	.LFE3:
 634               	.global	pobierz_numer_telefonu_nadawcy_z_PDU
 636               	pobierz_numer_telefonu_nadawcy_z_PDU:
 637               	.LVL64:
 638               	.LFB4:
 126:pdu.c         **** 
 127:pdu.c         **** uchar* pobierz_numer_telefonu_nadawcy_z_PDU(const uchar* pdu_ptr, uchar* bufor_numer_telefonu, ucha
 128:pdu.c         **** {
 639               		.loc 1 128 1 is_stmt 1 view -0
 640               		.cfi_startproc
 641               		.loc 1 128 1 is_stmt 0 view .LVU160
 642 01d2 1F93      		push r17
 643               	.LCFI15:
 644               		.cfi_def_cfa_offset 3
 645               		.cfi_offset 17, -2
 646 01d4 CF93      		push r28
 647               	.LCFI16:
 648               		.cfi_def_cfa_offset 4
 649               		.cfi_offset 28, -3
 650 01d6 DF93      		push r29
 651               	.LCFI17:
 652               		.cfi_def_cfa_offset 5
 653               		.cfi_offset 29, -4
 654               	/* prologue: function */
 655               	/* frame size = 0 */
 656               	/* stack size = 3 */
 657               	.L__stack_usage = 3
 658 01d8 DC01      		movw r26,r24
 659 01da EA01      		movw r28,r20
 129:pdu.c         **** 	//pdu_ptr += pdu_ptr[0] + 2;
 130:pdu.c         **** 	if ( (pdu_ptr[0] + 1) >= 200 )	// (1)
 660               		.loc 1 130 2 is_stmt 1 view .LVU161
 661               		.loc 1 130 5 is_stmt 0 view .LVU162
 662 01dc 8C91      		ld r24,X
 663               	.LVL65:
 664               		.loc 1 130 5 view .LVU163
 665 01de 873C      		cpi r24,lo8(-57)
 666 01e0 00F0      		brlo .L23
 667               	.LVL66:
 668               	.L26:
 131:pdu.c         **** 	{
 132:pdu.c         **** 		*bufor_numer_telefonu = 0;
 669               		.loc 1 132 3 is_stmt 1 view .LVU164
 670               		.loc 1 132 25 is_stmt 0 view .LVU165
 671 01e2 DB01      		movw r26,r22
 672 01e4 1C92      		st X,__zero_reg__
 133:pdu.c         **** 		*nietypowy_sms = TRUE;
 673               		.loc 1 133 3 is_stmt 1 view .LVU166
 674               		.loc 1 133 18 is_stmt 0 view .LVU167
 675 01e6 8FEF      		ldi r24,lo8(-1)
 676 01e8 8883      		st Y,r24
 134:pdu.c         **** 		return 0;
 677               		.loc 1 134 3 is_stmt 1 view .LVU168
 678               		.loc 1 134 10 is_stmt 0 view .LVU169
 679 01ea 90E0      		ldi r25,0
 680 01ec 80E0      		ldi r24,0
 681               	.LVL67:
 682               	.L22:
 683               	/* epilogue start */
 135:pdu.c         **** 	}
 136:pdu.c         **** 	*nietypowy_sms = FALSE;
 137:pdu.c         **** 	pdu_ptr += pdu_ptr[0] + 1;
 138:pdu.c         **** 	if ( ! (*pdu_ptr == 0x04 || *pdu_ptr == 0x00) )	//First octet of the SMS-DELIVER PDU
 139:pdu.c         **** 		*nietypowy_sms = TRUE;
 140:pdu.c         **** 	++pdu_ptr;
 141:pdu.c         **** 	const uchar liczba_cyfr_w_telefonie = *pdu_ptr++;
 142:pdu.c         **** 	if ( liczba_cyfr_w_telefonie > MAX_LICZBA_ZNAKOW_TELEFON )	// (1)
 143:pdu.c         **** 	{
 144:pdu.c         **** 		*bufor_numer_telefonu = 0;
 145:pdu.c         **** 		*nietypowy_sms = TRUE;
 146:pdu.c         **** 		return 0;
 147:pdu.c         **** 	}
 148:pdu.c         **** 	const uchar typ_telefonu = *pdu_ptr++;
 149:pdu.c         **** 	const uchar dobry_telefon = (typ_telefonu == 129 || typ_telefonu == 145);
 150:pdu.c         **** 	if ( typ_telefonu == 145 )
 151:pdu.c         **** 		*bufor_numer_telefonu++ = '+';
 152:pdu.c         **** 	for (uchar i = 0; i < liczba_cyfr_w_telefonie; ++i)
 153:pdu.c         **** 	{
 154:pdu.c         **** 		uchar znak = *pdu_ptr;
 155:pdu.c         **** 		if ( (i & 0x01) != 0)
 156:pdu.c         **** 		{
 157:pdu.c         **** 			SWAP(znak);
 158:pdu.c         **** 			++pdu_ptr;
 159:pdu.c         **** 		}
 160:pdu.c         **** 		*bufor_numer_telefonu++ = (dobry_telefon ? ((znak & 0x0f) + '0') : '0');
 161:pdu.c         **** 	}
 162:pdu.c         **** 	*bufor_numer_telefonu = '\0';
 163:pdu.c         **** 	if ( !(liczba_cyfr_w_telefonie & 0x01) )
 164:pdu.c         **** 		--pdu_ptr;
 165:pdu.c         **** 	if ( pdu_ptr[2] != 0 )	// TP-DCS Data coding scheme
 166:pdu.c         **** 		*nietypowy_sms = TRUE;
 167:pdu.c         **** 	pdu_ptr += 3;
 168:pdu.c         **** 	return (uchar*) pdu_ptr;
 169:pdu.c         **** }
 684               		.loc 1 169 1 view .LVU170
 685 01ee DF91      		pop r29
 686 01f0 CF91      		pop r28
 687               	.LVL68:
 688               		.loc 1 169 1 view .LVU171
 689 01f2 1F91      		pop r17
 690 01f4 0895      		ret
 691               	.LVL69:
 692               	.L23:
 136:pdu.c         **** 	pdu_ptr += pdu_ptr[0] + 1;
 693               		.loc 1 136 2 is_stmt 1 view .LVU172
 136:pdu.c         **** 	pdu_ptr += pdu_ptr[0] + 1;
 694               		.loc 1 136 17 is_stmt 0 view .LVU173
 695 01f6 1882      		st Y,__zero_reg__
 137:pdu.c         **** 	if ( ! (*pdu_ptr == 0x04 || *pdu_ptr == 0x00) )	//First octet of the SMS-DELIVER PDU
 696               		.loc 1 137 2 is_stmt 1 view .LVU174
 137:pdu.c         **** 	if ( ! (*pdu_ptr == 0x04 || *pdu_ptr == 0x00) )	//First octet of the SMS-DELIVER PDU
 697               		.loc 1 137 20 is_stmt 0 view .LVU175
 698 01f8 8C91      		ld r24,X
 699 01fa 90E0      		ldi r25,0
 137:pdu.c         **** 	if ( ! (*pdu_ptr == 0x04 || *pdu_ptr == 0x00) )	//First octet of the SMS-DELIVER PDU
 700               		.loc 1 137 10 view .LVU176
 701 01fc 0196      		adiw r24,1
 702 01fe A80F      		add r26,r24
 703 0200 B91F      		adc r27,r25
 704               	.LVL70:
 138:pdu.c         **** 		*nietypowy_sms = TRUE;
 705               		.loc 1 138 2 is_stmt 1 view .LVU177
 138:pdu.c         **** 		*nietypowy_sms = TRUE;
 706               		.loc 1 138 7 is_stmt 0 view .LVU178
 707 0202 8C91      		ld r24,X
 708 0204 8B7F      		andi r24,lo8(-5)
 709 0206 01F0      		breq .L25
 139:pdu.c         **** 	++pdu_ptr;
 710               		.loc 1 139 3 is_stmt 1 view .LVU179
 139:pdu.c         **** 	++pdu_ptr;
 711               		.loc 1 139 18 is_stmt 0 view .LVU180
 712 0208 8FEF      		ldi r24,lo8(-1)
 713 020a 8883      		st Y,r24
 714               	.L25:
 140:pdu.c         **** 	const uchar liczba_cyfr_w_telefonie = *pdu_ptr++;
 715               		.loc 1 140 2 is_stmt 1 view .LVU181
 716               	.LVL71:
 141:pdu.c         **** 	if ( liczba_cyfr_w_telefonie > MAX_LICZBA_ZNAKOW_TELEFON )	// (1)
 717               		.loc 1 141 2 view .LVU182
 141:pdu.c         **** 	if ( liczba_cyfr_w_telefonie > MAX_LICZBA_ZNAKOW_TELEFON )	// (1)
 718               		.loc 1 141 14 is_stmt 0 view .LVU183
 719 020c 1196      		adiw r26,1
 720 020e 3C91      		ld r19,X
 721 0210 1197      		sbiw r26,1
 722               	.LVL72:
 142:pdu.c         **** 	{
 723               		.loc 1 142 2 is_stmt 1 view .LVU184
 142:pdu.c         **** 	{
 724               		.loc 1 142 5 is_stmt 0 view .LVU185
 725 0212 3131      		cpi r19,lo8(17)
 726 0214 00F4      		brsh .L26
 148:pdu.c         **** 	const uchar dobry_telefon = (typ_telefonu == 129 || typ_telefonu == 145);
 727               		.loc 1 148 2 is_stmt 1 view .LVU186
 148:pdu.c         **** 	const uchar dobry_telefon = (typ_telefonu == 129 || typ_telefonu == 145);
 728               		.loc 1 148 37 is_stmt 0 view .LVU187
 729 0216 FD01      		movw r30,r26
 730 0218 3396      		adiw r30,3
 731               	.LVL73:
 148:pdu.c         **** 	const uchar dobry_telefon = (typ_telefonu == 129 || typ_telefonu == 145);
 732               		.loc 1 148 14 view .LVU188
 733 021a 1296      		adiw r26,2
 734 021c 8C91      		ld r24,X
 735               	.LVL74:
 149:pdu.c         **** 	if ( typ_telefonu == 145 )
 736               		.loc 1 149 2 is_stmt 1 view .LVU189
 149:pdu.c         **** 	if ( typ_telefonu == 145 )
 737               		.loc 1 149 51 is_stmt 0 view .LVU190
 738 021e 982F      		mov r25,r24
 739 0220 9F7E      		andi r25,lo8(-17)
 740 0222 41E0      		ldi r20,lo8(1)
 741               	.LVL75:
 149:pdu.c         **** 	if ( typ_telefonu == 145 )
 742               		.loc 1 149 51 view .LVU191
 743 0224 9138      		cpi r25,lo8(-127)
 744 0226 01F0      		breq .L27
 745 0228 40E0      		ldi r20,0
 746               	.L27:
 747               	.LVL76:
 150:pdu.c         **** 		*bufor_numer_telefonu++ = '+';
 748               		.loc 1 150 2 is_stmt 1 view .LVU192
 150:pdu.c         **** 		*bufor_numer_telefonu++ = '+';
 749               		.loc 1 150 5 is_stmt 0 view .LVU193
 750 022a 8139      		cpi r24,lo8(-111)
 751 022c 01F4      		brne .L28
 151:pdu.c         **** 	for (uchar i = 0; i < liczba_cyfr_w_telefonie; ++i)
 752               		.loc 1 151 3 is_stmt 1 view .LVU194
 151:pdu.c         **** 	for (uchar i = 0; i < liczba_cyfr_w_telefonie; ++i)
 753               		.loc 1 151 27 is_stmt 0 view .LVU195
 754 022e 8BE2      		ldi r24,lo8(43)
 755               	.LVL77:
 151:pdu.c         **** 	for (uchar i = 0; i < liczba_cyfr_w_telefonie; ++i)
 756               		.loc 1 151 27 view .LVU196
 757 0230 DB01      		movw r26,r22
 758               	.LVL78:
 151:pdu.c         **** 	for (uchar i = 0; i < liczba_cyfr_w_telefonie; ++i)
 759               		.loc 1 151 27 view .LVU197
 760 0232 8D93      		st X+,r24
 761               	.LVL79:
 151:pdu.c         **** 	for (uchar i = 0; i < liczba_cyfr_w_telefonie; ++i)
 762               		.loc 1 151 27 view .LVU198
 763 0234 BD01      		movw r22,r26
 764               	.LVL80:
 765               	.L28:
 151:pdu.c         **** 	for (uchar i = 0; i < liczba_cyfr_w_telefonie; ++i)
 766               		.loc 1 151 24 discriminator 2 view .LVU199
 767 0236 562F      		mov r21,r22
 768 0238 172F      		mov r17,r23
 769 023a 80E0      		ldi r24,0
 770 023c 00C0      		rjmp .L31
 771               	.LVL81:
 772               	.L32:
 773               	.LBB18:
 774               	.LBB19:
 154:pdu.c         **** 		if ( (i & 0x01) != 0)
 775               		.loc 1 154 3 is_stmt 1 view .LVU200
 154:pdu.c         **** 		if ( (i & 0x01) != 0)
 776               		.loc 1 154 9 is_stmt 0 view .LVU201
 777 023e 9081      		ld r25,Z
 778               	.LVL82:
 155:pdu.c         **** 		{
 779               		.loc 1 155 3 is_stmt 1 view .LVU202
 155:pdu.c         **** 		{
 780               		.loc 1 155 6 is_stmt 0 view .LVU203
 781 0240 2223      		tst r18
 782 0242 01F0      		breq .L29
 157:pdu.c         **** 			++pdu_ptr;
 783               		.loc 1 157 4 is_stmt 1 view .LVU204
 784               	/* #APP */
 785               	 ;  157 "pdu.c" 1
 786 0244 9295      		swap r25
 787               		
 788               	 ;  0 "" 2
 789               	.LVL83:
 158:pdu.c         **** 		}
 790               		.loc 1 158 4 view .LVU205
 791               	/* #NOAPP */
 792 0246 3196      		adiw r30,1
 793               	.LVL84:
 794               	.L29:
 160:pdu.c         **** 	}
 795               		.loc 1 160 3 view .LVU206
 160:pdu.c         **** 	}
 796               		.loc 1 160 53 is_stmt 0 view .LVU207
 797 0248 9F70      		andi r25,lo8(15)
 798               	.LVL85:
 160:pdu.c         **** 	}
 799               		.loc 1 160 27 view .LVU208
 800 024a 905D      		subi r25,lo8(-(48))
 801 024c 4111      		cpse r20,__zero_reg__
 802 024e 00C0      		rjmp .L30
 160:pdu.c         **** 	}
 803               		.loc 1 160 27 view .LVU209
 804 0250 90E3      		ldi r25,lo8(48)
 805               	.L30:
 160:pdu.c         **** 	}
 806               		.loc 1 160 24 discriminator 4 view .LVU210
 807 0252 A52F      		mov r26,r21
 808 0254 B12F      		mov r27,r17
 809               	.LVL86:
 160:pdu.c         **** 	}
 810               		.loc 1 160 27 discriminator 4 view .LVU211
 811 0256 9D93      		st X+,r25
 812               	.LVL87:
 160:pdu.c         **** 	}
 813               		.loc 1 160 27 discriminator 4 view .LVU212
 814               	.LBE19:
 152:pdu.c         **** 	{
 815               		.loc 1 152 49 is_stmt 1 discriminator 4 view .LVU213
 816 0258 8F5F      		subi r24,lo8(-(1))
 817               	.LVL88:
 818               	.LBB20:
 160:pdu.c         **** 	}
 819               		.loc 1 160 24 is_stmt 0 discriminator 4 view .LVU214
 820 025a 5A2F      		mov r21,r26
 821 025c 1B2F      		mov r17,r27
 822               	.LVL89:
 823               	.L31:
 160:pdu.c         **** 	}
 824               		.loc 1 160 24 discriminator 4 view .LVU215
 825               	.LBE20:
 152:pdu.c         **** 	{
 826               		.loc 1 152 20 is_stmt 1 discriminator 2 view .LVU216
 827 025e 282F      		mov r18,r24
 828 0260 2170      		andi r18,lo8(1)
 152:pdu.c         **** 	{
 829               		.loc 1 152 2 is_stmt 0 discriminator 2 view .LVU217
 830 0262 8313      		cpse r24,r19
 831 0264 00C0      		rjmp .L32
 152:pdu.c         **** 	{
 832               		.loc 1 152 2 discriminator 2 view .LVU218
 833               	.LBE18:
 162:pdu.c         **** 	if ( !(liczba_cyfr_w_telefonie & 0x01) )
 834               		.loc 1 162 2 is_stmt 1 view .LVU219
 162:pdu.c         **** 	if ( !(liczba_cyfr_w_telefonie & 0x01) )
 835               		.loc 1 162 24 is_stmt 0 view .LVU220
 836 0266 680F      		add r22,r24
 837 0268 711D      		adc r23,__zero_reg__
 838 026a DB01      		movw r26,r22
 839 026c 1C92      		st X,__zero_reg__
 163:pdu.c         **** 		--pdu_ptr;
 840               		.loc 1 163 2 is_stmt 1 view .LVU221
 163:pdu.c         **** 		--pdu_ptr;
 841               		.loc 1 163 5 is_stmt 0 view .LVU222
 842 026e 2111      		cpse r18,__zero_reg__
 843 0270 00C0      		rjmp .L33
 164:pdu.c         **** 	if ( pdu_ptr[2] != 0 )	// TP-DCS Data coding scheme
 844               		.loc 1 164 3 is_stmt 1 view .LVU223
 845 0272 3197      		sbiw r30,1
 846               	.LVL90:
 847               	.L33:
 165:pdu.c         **** 		*nietypowy_sms = TRUE;
 848               		.loc 1 165 2 view .LVU224
 165:pdu.c         **** 		*nietypowy_sms = TRUE;
 849               		.loc 1 165 5 is_stmt 0 view .LVU225
 850 0274 8281      		ldd r24,Z+2
 851               	.LVL91:
 165:pdu.c         **** 		*nietypowy_sms = TRUE;
 852               		.loc 1 165 5 view .LVU226
 853 0276 8823      		tst r24
 854 0278 01F0      		breq .L34
 166:pdu.c         **** 	pdu_ptr += 3;
 855               		.loc 1 166 3 is_stmt 1 view .LVU227
 166:pdu.c         **** 	pdu_ptr += 3;
 856               		.loc 1 166 18 is_stmt 0 view .LVU228
 857 027a 8FEF      		ldi r24,lo8(-1)
 858 027c 8883      		st Y,r24
 859               	.L34:
 167:pdu.c         **** 	return (uchar*) pdu_ptr;
 860               		.loc 1 167 2 is_stmt 1 view .LVU229
 167:pdu.c         **** 	return (uchar*) pdu_ptr;
 861               		.loc 1 167 10 is_stmt 0 view .LVU230
 862 027e CF01      		movw r24,r30
 863 0280 0396      		adiw r24,3
 864               	.LVL92:
 168:pdu.c         **** }
 865               		.loc 1 168 2 is_stmt 1 view .LVU231
 168:pdu.c         **** }
 866               		.loc 1 168 9 is_stmt 0 view .LVU232
 867 0282 00C0      		rjmp .L22
 868               		.cfi_endproc
 869               	.LFE4:
 871               	.global	pobierz_date_z_PDU
 873               	pobierz_date_z_PDU:
 874               	.LVL93:
 875               	.LFB5:
 170:pdu.c         **** 
 171:pdu.c         **** const uchar* pobierz_date_z_PDU(const uchar* ptr, uchar* rok, uchar* miesiac, uchar* dzien)
 172:pdu.c         **** {
 876               		.loc 1 172 1 is_stmt 1 view -0
 877               		.cfi_startproc
 878               	/* prologue: function */
 879               	/* frame size = 0 */
 880               	/* stack size = 0 */
 881               	.L__stack_usage = 0
 882               		.loc 1 172 1 is_stmt 0 view .LVU234
 883 0284 FC01      		movw r30,r24
 173:pdu.c         **** 	*rok = *ptr++;
 884               		.loc 1 173 2 is_stmt 1 view .LVU235
 885               	.LVL94:
 886               		.loc 1 173 9 is_stmt 0 view .LVU236
 887 0286 9081      		ld r25,Z
 174:pdu.c         **** 	*rok = 10 * (*rok & 0x0f) + ((*rok & 0xf0) >> 4);
 888               		.loc 1 174 2 is_stmt 1 view .LVU237
 889               		.loc 1 174 28 is_stmt 0 view .LVU238
 890 0288 A92F      		mov r26,r25
 891 028a AF70      		andi r26,lo8(15)
 892 028c 8AE0      		ldi r24,lo8(10)
 893               	.LVL95:
 894               		.loc 1 174 45 view .LVU239
 895 028e 9295      		swap r25
 896 0290 9F70      		andi r25,lo8(15)
 897               		.loc 1 174 28 view .LVU240
 898 0292 A89F      		mul r26,r24
 899 0294 900D      		add r25,r0
 900 0296 1124      		clr __zero_reg__
 901               		.loc 1 174 7 view .LVU241
 902 0298 DB01      		movw r26,r22
 903 029a 9C93      		st X,r25
 175:pdu.c         **** 	*miesiac = *ptr++;
 904               		.loc 1 175 2 is_stmt 1 view .LVU242
 905               	.LVL96:
 906               		.loc 1 175 13 is_stmt 0 view .LVU243
 907 029c 9181      		ldd r25,Z+1
 176:pdu.c         **** 	*miesiac = 10 * (*miesiac & 0x0f) + ((*miesiac & 0xf0) >> 4);
 908               		.loc 1 176 2 is_stmt 1 view .LVU244
 909               		.loc 1 176 36 is_stmt 0 view .LVU245
 910 029e 692F      		mov r22,r25
 911               	.LVL97:
 912               		.loc 1 176 36 view .LVU246
 913 02a0 6F70      		andi r22,lo8(15)
 914               		.loc 1 176 57 view .LVU247
 915 02a2 9295      		swap r25
 916 02a4 9F70      		andi r25,lo8(15)
 917               		.loc 1 176 36 view .LVU248
 918 02a6 689F      		mul r22,r24
 919 02a8 900D      		add r25,r0
 920 02aa 1124      		clr __zero_reg__
 921               		.loc 1 176 11 view .LVU249
 922 02ac DA01      		movw r26,r20
 923               	.LVL98:
 924               		.loc 1 176 11 view .LVU250
 925 02ae 9C93      		st X,r25
 177:pdu.c         **** 	*dzien = *ptr++;
 926               		.loc 1 177 2 is_stmt 1 view .LVU251
 927               	.LVL99:
 928               		.loc 1 177 11 is_stmt 0 view .LVU252
 929 02b0 9281      		ldd r25,Z+2
 178:pdu.c         **** 	*dzien = 10 * (*dzien & 0x0f) + ((*dzien & 0xf0) >> 4);
 930               		.loc 1 178 2 is_stmt 1 view .LVU253
 931               		.loc 1 178 32 is_stmt 0 view .LVU254
 932 02b2 492F      		mov r20,r25
 933               	.LVL100:
 934               		.loc 1 178 32 view .LVU255
 935 02b4 4F70      		andi r20,lo8(15)
 936               		.loc 1 178 51 view .LVU256
 937 02b6 9295      		swap r25
 938 02b8 9F70      		andi r25,lo8(15)
 939               		.loc 1 178 32 view .LVU257
 940 02ba 489F      		mul r20,r24
 941 02bc 900D      		add r25,r0
 942 02be 1124      		clr __zero_reg__
 943               		.loc 1 178 9 view .LVU258
 944 02c0 D901      		movw r26,r18
 945               	.LVL101:
 946               		.loc 1 178 9 view .LVU259
 947 02c2 9C93      		st X,r25
 179:pdu.c         **** 	return ptr;
 948               		.loc 1 179 2 is_stmt 1 view .LVU260
 180:pdu.c         **** }
 949               		.loc 1 180 1 is_stmt 0 view .LVU261
 950 02c4 CF01      		movw r24,r30
 951 02c6 0396      		adiw r24,3
 952               	.LVL102:
 953               	/* epilogue start */
 954               		.loc 1 180 1 view .LVU262
 955 02c8 0895      		ret
 956               		.cfi_endproc
 957               	.LFE5:
 959               	.global	pobierz_czas_z_PDU
 961               	pobierz_czas_z_PDU:
 962               	.LVL103:
 963               	.LFB6:
 181:pdu.c         **** 
 182:pdu.c         **** const uchar* pobierz_czas_z_PDU(const uchar* ptr, uchar* godzina, uchar* minuta, uchar* sekunda)
 183:pdu.c         **** {
 964               		.loc 1 183 1 is_stmt 1 view -0
 965               		.cfi_startproc
 966               	/* prologue: function */
 967               	/* frame size = 0 */
 968               	/* stack size = 0 */
 969               	.L__stack_usage = 0
 970               		.loc 1 183 1 is_stmt 0 view .LVU264
 971 02ca FC01      		movw r30,r24
 184:pdu.c         **** 	*godzina = *ptr++;
 972               		.loc 1 184 2 is_stmt 1 view .LVU265
 973               	.LVL104:
 974               		.loc 1 184 13 is_stmt 0 view .LVU266
 975 02cc 9081      		ld r25,Z
 185:pdu.c         **** 	*godzina = 10 * (*godzina & 0x0f) + ((*godzina & 0xf0) >> 4);
 976               		.loc 1 185 2 is_stmt 1 view .LVU267
 977               		.loc 1 185 36 is_stmt 0 view .LVU268
 978 02ce A92F      		mov r26,r25
 979 02d0 AF70      		andi r26,lo8(15)
 980 02d2 8AE0      		ldi r24,lo8(10)
 981               	.LVL105:
 982               		.loc 1 185 57 view .LVU269
 983 02d4 9295      		swap r25
 984 02d6 9F70      		andi r25,lo8(15)
 985               		.loc 1 185 36 view .LVU270
 986 02d8 A89F      		mul r26,r24
 987 02da 900D      		add r25,r0
 988 02dc 1124      		clr __zero_reg__
 989               		.loc 1 185 11 view .LVU271
 990 02de DB01      		movw r26,r22
 991 02e0 9C93      		st X,r25
 186:pdu.c         **** 	*minuta = *ptr++;
 992               		.loc 1 186 2 is_stmt 1 view .LVU272
 993               	.LVL106:
 994               		.loc 1 186 12 is_stmt 0 view .LVU273
 995 02e2 9181      		ldd r25,Z+1
 187:pdu.c         **** 	*minuta = 10 * (*minuta & 0x0f) + ((*minuta & 0xf0) >> 4);
 996               		.loc 1 187 2 is_stmt 1 view .LVU274
 997               		.loc 1 187 34 is_stmt 0 view .LVU275
 998 02e4 692F      		mov r22,r25
 999               	.LVL107:
 1000               		.loc 1 187 34 view .LVU276
 1001 02e6 6F70      		andi r22,lo8(15)
 1002               		.loc 1 187 54 view .LVU277
 1003 02e8 9295      		swap r25
 1004 02ea 9F70      		andi r25,lo8(15)
 1005               		.loc 1 187 34 view .LVU278
 1006 02ec 689F      		mul r22,r24
 1007 02ee 900D      		add r25,r0
 1008 02f0 1124      		clr __zero_reg__
 1009               		.loc 1 187 10 view .LVU279
 1010 02f2 DA01      		movw r26,r20
 1011               	.LVL108:
 1012               		.loc 1 187 10 view .LVU280
 1013 02f4 9C93      		st X,r25
 188:pdu.c         ****         *sekunda = *ptr++;
 1014               		.loc 1 188 9 is_stmt 1 view .LVU281
 1015               	.LVL109:
 1016               		.loc 1 188 20 is_stmt 0 view .LVU282
 1017 02f6 9281      		ldd r25,Z+2
 189:pdu.c         ****         *sekunda = 10 * (*sekunda & 0x0f) + ((*sekunda & 0xf0) >> 4);
 1018               		.loc 1 189 9 is_stmt 1 view .LVU283
 1019               		.loc 1 189 43 is_stmt 0 view .LVU284
 1020 02f8 492F      		mov r20,r25
 1021               	.LVL110:
 1022               		.loc 1 189 43 view .LVU285
 1023 02fa 4F70      		andi r20,lo8(15)
 1024               		.loc 1 189 64 view .LVU286
 1025 02fc 9295      		swap r25
 1026 02fe 9F70      		andi r25,lo8(15)
 1027               		.loc 1 189 43 view .LVU287
 1028 0300 489F      		mul r20,r24
 1029 0302 900D      		add r25,r0
 1030 0304 1124      		clr __zero_reg__
 1031               		.loc 1 189 18 view .LVU288
 1032 0306 D901      		movw r26,r18
 1033               	.LVL111:
 1034               		.loc 1 189 18 view .LVU289
 1035 0308 9C93      		st X,r25
 190:pdu.c         **** 	return ptr + 1; // Pomin timezone
 1036               		.loc 1 190 2 is_stmt 1 view .LVU290
 191:pdu.c         **** }
 1037               		.loc 1 191 1 is_stmt 0 view .LVU291
 1038 030a CF01      		movw r24,r30
 1039 030c 0496      		adiw r24,4
 1040               	/* epilogue start */
 1041 030e 0895      		ret
 1042               		.cfi_endproc
 1043               	.LFE6:
 1045               	.global	wpisz_telefon_w_formacie_sms
 1047               	wpisz_telefon_w_formacie_sms:
 1048               	.LVL112:
 1049               	.LFB7:
 192:pdu.c         **** 
 193:pdu.c         **** uchar* wpisz_telefon_w_formacie_sms(uchar* ptr, const uchar* telefon)
 194:pdu.c         **** {
 1050               		.loc 1 194 1 is_stmt 1 view -0
 1051               		.cfi_startproc
 1052               		.loc 1 194 1 is_stmt 0 view .LVU293
 1053 0310 CF93      		push r28
 1054               	.LCFI18:
 1055               		.cfi_def_cfa_offset 3
 1056               		.cfi_offset 28, -2
 1057 0312 DF93      		push r29
 1058               	.LCFI19:
 1059               		.cfi_def_cfa_offset 4
 1060               		.cfi_offset 29, -3
 1061               	/* prologue: function */
 1062               	/* frame size = 0 */
 1063               	/* stack size = 2 */
 1064               	.L__stack_usage = 2
 1065 0314 DB01      		movw r26,r22
 195:pdu.c         **** 	uchar typ_telefonu;
 1066               		.loc 1 195 2 is_stmt 1 view .LVU294
 196:pdu.c         **** 	if ( *telefon == '+' )
 1067               		.loc 1 196 2 view .LVU295
 1068               		.loc 1 196 5 is_stmt 0 view .LVU296
 1069 0316 2C91      		ld r18,X
 197:pdu.c         **** 	{
 198:pdu.c         **** 		++telefon;
 199:pdu.c         **** 		typ_telefonu = 145;
 200:pdu.c         **** 	}
 201:pdu.c         **** 	else
 202:pdu.c         **** 		typ_telefonu = 129;
 1070               		.loc 1 202 16 view .LVU297
 1071 0318 61E8      		ldi r22,lo8(-127)
 1072               	.LVL113:
 196:pdu.c         **** 	if ( *telefon == '+' )
 1073               		.loc 1 196 5 view .LVU298
 1074 031a 2B32      		cpi r18,lo8(43)
 1075 031c 01F4      		brne .L51
 198:pdu.c         **** 		typ_telefonu = 145;
 1076               		.loc 1 198 3 is_stmt 1 view .LVU299
 1077 031e 1196      		adiw r26,1
 1078               	.LVL114:
 199:pdu.c         **** 	}
 1079               		.loc 1 199 3 view .LVU300
 199:pdu.c         **** 	}
 1080               		.loc 1 199 16 is_stmt 0 view .LVU301
 1081 0320 61E9      		ldi r22,lo8(-111)
 1082               	.LVL115:
 1083               	.L51:
 203:pdu.c         **** 	const uchar liczba_cyfr_telefonu = strlen(telefon);
 1084               		.loc 1 203 2 is_stmt 1 view .LVU302
 1085               		.loc 1 203 37 is_stmt 0 view .LVU303
 1086 0322 FD01      		movw r30,r26
 1087               		0:
 1088 0324 0190      		ld __tmp_reg__,Z+
 1089 0326 0020      		tst __tmp_reg__
 1090 0328 01F4      		brne 0b
 1091 032a 3197      		sbiw r30,1
 1092 032c EA1B      		sub r30,r26
 1093 032e FB0B      		sbc r31,r27
 1094               	.LVL116:
 204:pdu.c         **** 	if ( liczba_cyfr_telefonu == 0 )
 1095               		.loc 1 204 2 is_stmt 1 view .LVU304
 205:pdu.c         **** 	{
 206:pdu.c         **** 		*ptr++ = liczba_cyfr_telefonu;
 1096               		.loc 1 206 10 is_stmt 0 view .LVU305
 1097 0330 EC01      		movw r28,r24
 204:pdu.c         **** 	if ( liczba_cyfr_telefonu == 0 )
 1098               		.loc 1 204 5 view .LVU306
 1099 0332 E111      		cpse r30,__zero_reg__
 1100 0334 00C0      		rjmp .L52
 1101               		.loc 1 206 3 is_stmt 1 view .LVU307
 1102               	.LVL117:
 1103               		.loc 1 206 10 is_stmt 0 view .LVU308
 1104 0336 1992      		st Y+,__zero_reg__
 1105 0338 CE01      		movw r24,r28
 207:pdu.c         **** 		return ptr;
 1106               		.loc 1 207 3 is_stmt 1 view .LVU309
 1107               	.LVL118:
 1108               	.L50:
 1109               	/* epilogue start */
 208:pdu.c         **** 	}
 209:pdu.c         **** 	*ptr++ = liczba_cyfr_telefonu;
 210:pdu.c         **** 	*ptr++ = typ_telefonu;
 211:pdu.c         **** 	const uchar k = (liczba_cyfr_telefonu + 1) / 2;
 212:pdu.c         **** 	for (uchar i = 0; i < k; ++i)
 213:pdu.c         **** 	{
 214:pdu.c         **** 		uchar ch = (*telefon++ - '0');
 215:pdu.c         **** 		if ( *telefon != '\0' )
 216:pdu.c         **** 			ch |= (*telefon++ - '0') << 4;
 217:pdu.c         **** 		else
 218:pdu.c         **** 			ch |= 0xf0;
 219:pdu.c         **** 		*ptr++ = ch;
 220:pdu.c         **** 	}
 221:pdu.c         **** 	return ptr;
 222:pdu.c         **** }
 1110               		.loc 1 222 1 is_stmt 0 view .LVU310
 1111 033a DF91      		pop r29
 1112 033c CF91      		pop r28
 1113 033e 0895      		ret
 1114               	.LVL119:
 1115               	.L52:
 209:pdu.c         **** 	*ptr++ = typ_telefonu;
 1116               		.loc 1 209 2 is_stmt 1 view .LVU311
 209:pdu.c         **** 	*ptr++ = typ_telefonu;
 1117               		.loc 1 209 9 is_stmt 0 view .LVU312
 1118 0340 E883      		st Y,r30
 210:pdu.c         **** 	const uchar k = (liczba_cyfr_telefonu + 1) / 2;
 1119               		.loc 1 210 2 is_stmt 1 view .LVU313
 210:pdu.c         **** 	const uchar k = (liczba_cyfr_telefonu + 1) / 2;
 1120               		.loc 1 210 6 is_stmt 0 view .LVU314
 1121 0342 AC01      		movw r20,r24
 1122 0344 4E5F      		subi r20,-2
 1123 0346 5F4F      		sbci r21,-1
 1124               	.LVL120:
 210:pdu.c         **** 	const uchar k = (liczba_cyfr_telefonu + 1) / 2;
 1125               		.loc 1 210 9 view .LVU315
 1126 0348 6983      		std Y+1,r22
 211:pdu.c         **** 	for (uchar i = 0; i < k; ++i)
 1127               		.loc 1 211 2 is_stmt 1 view .LVU316
 211:pdu.c         **** 	for (uchar i = 0; i < k; ++i)
 1128               		.loc 1 211 40 is_stmt 0 view .LVU317
 1129 034a CF01      		movw r24,r30
 1130 034c 9927      		clr r25
 1131 034e 0196      		adiw r24,1
 211:pdu.c         **** 	for (uchar i = 0; i < k; ++i)
 1132               		.loc 1 211 45 view .LVU318
 1133 0350 9595      		asr r25
 1134 0352 8795      		ror r24
 211:pdu.c         **** 	for (uchar i = 0; i < k; ++i)
 1135               		.loc 1 211 14 view .LVU319
 1136 0354 D82F      		mov r29,r24
 1137               	.LVL121:
 212:pdu.c         **** 	{
 1138               		.loc 1 212 2 is_stmt 1 view .LVU320
 1139               	.LBB21:
 212:pdu.c         **** 	{
 1140               		.loc 1 212 7 view .LVU321
 212:pdu.c         **** 	{
 1141               		.loc 1 212 7 is_stmt 0 view .LVU322
 1142               	.LBE21:
 210:pdu.c         **** 	const uchar k = (liczba_cyfr_telefonu + 1) / 2;
 1143               		.loc 1 210 6 view .LVU323
 1144 0356 742F      		mov r23,r20
 1145 0358 C52F      		mov r28,r21
 1146               	.LBB24:
 212:pdu.c         **** 	{
 1147               		.loc 1 212 13 view .LVU324
 1148 035a 60E0      		ldi r22,0
 1149               	.LVL122:
 1150               	.L54:
 212:pdu.c         **** 	{
 1151               		.loc 1 212 20 is_stmt 1 discriminator 1 view .LVU325
 212:pdu.c         **** 	{
 1152               		.loc 1 212 2 is_stmt 0 discriminator 1 view .LVU326
 1153 035c 6D13      		cpse r22,r29
 1154 035e 00C0      		rjmp .L57
 212:pdu.c         **** 	{
 1155               		.loc 1 212 2 discriminator 1 view .LVU327
 1156 0360 840F      		add r24,r20
 1157 0362 951F      		adc r25,r21
 1158               	.LVL123:
 212:pdu.c         **** 	{
 1159               		.loc 1 212 2 discriminator 1 view .LVU328
 1160 0364 00C0      		rjmp .L50
 1161               	.LVL124:
 1162               	.L57:
 1163               	.LBB22:
 214:pdu.c         **** 		if ( *telefon != '\0' )
 1164               		.loc 1 214 3 is_stmt 1 view .LVU329
 214:pdu.c         **** 		if ( *telefon != '\0' )
 1165               		.loc 1 214 9 is_stmt 0 view .LVU330
 1166 0366 2C91      		ld r18,X
 1167 0368 2053      		subi r18,lo8(-(-48))
 1168               	.LVL125:
 215:pdu.c         **** 			ch |= (*telefon++ - '0') << 4;
 1169               		.loc 1 215 3 is_stmt 1 view .LVU331
 215:pdu.c         **** 			ch |= (*telefon++ - '0') << 4;
 1170               		.loc 1 215 8 is_stmt 0 view .LVU332
 1171 036a 1196      		adiw r26,1
 1172 036c 3C91      		ld r19,X
 1173 036e 1197      		sbiw r26,1
 215:pdu.c         **** 			ch |= (*telefon++ - '0') << 4;
 1174               		.loc 1 215 6 view .LVU333
 1175 0370 3323      		tst r19
 1176 0372 01F0      		breq .L55
 216:pdu.c         **** 		else
 1177               		.loc 1 216 4 is_stmt 1 view .LVU334
 216:pdu.c         **** 		else
 1178               		.loc 1 216 19 is_stmt 0 view .LVU335
 1179 0374 1296      		adiw r26,2
 1180               	.LVL126:
 216:pdu.c         **** 		else
 1181               		.loc 1 216 29 view .LVU336
 1182 0376 3295      		swap r19
 1183 0378 307F      		andi r19,lo8(-16)
 216:pdu.c         **** 		else
 1184               		.loc 1 216 7 view .LVU337
 1185 037a 232B      		or r18,r19
 1186               	.LVL127:
 1187               	.L56:
 219:pdu.c         **** 	}
 1188               		.loc 1 219 3 is_stmt 1 discriminator 2 view .LVU338
 219:pdu.c         **** 	}
 1189               		.loc 1 219 7 is_stmt 0 discriminator 2 view .LVU339
 1190 037c E72F      		mov r30,r23
 1191 037e FC2F      		mov r31,r28
 1192               	.LVL128:
 219:pdu.c         **** 	}
 1193               		.loc 1 219 10 discriminator 2 view .LVU340
 1194 0380 2193      		st Z+,r18
 1195               	.LVL129:
 219:pdu.c         **** 	}
 1196               		.loc 1 219 10 discriminator 2 view .LVU341
 1197               	.LBE22:
 212:pdu.c         **** 	{
 1198               		.loc 1 212 27 is_stmt 1 discriminator 2 view .LVU342
 1199 0382 6F5F      		subi r22,lo8(-(1))
 1200               	.LVL130:
 1201               	.LBB23:
 219:pdu.c         **** 	}
 1202               		.loc 1 219 7 is_stmt 0 discriminator 2 view .LVU343
 1203 0384 7E2F      		mov r23,r30
 1204 0386 CF2F      		mov r28,r31
 1205 0388 00C0      		rjmp .L54
 1206               	.LVL131:
 1207               	.L55:
 214:pdu.c         **** 		if ( *telefon != '\0' )
 1208               		.loc 1 214 23 view .LVU344
 1209 038a 1196      		adiw r26,1
 1210               	.LVL132:
 218:pdu.c         **** 		*ptr++ = ch;
 1211               		.loc 1 218 4 is_stmt 1 view .LVU345
 218:pdu.c         **** 		*ptr++ = ch;
 1212               		.loc 1 218 7 is_stmt 0 view .LVU346
 1213 038c 206F      		ori r18,lo8(-16)
 1214               	.LVL133:
 218:pdu.c         **** 		*ptr++ = ch;
 1215               		.loc 1 218 7 view .LVU347
 1216 038e 00C0      		rjmp .L56
 1217               	.LBE23:
 1218               	.LBE24:
 1219               		.cfi_endproc
 1220               	.LFE7:
 1222               	.global	wpisz_centrum_sms_w_formacie_sms
 1224               	wpisz_centrum_sms_w_formacie_sms:
 1225               	.LVL134:
 1226               	.LFB8:
 223:pdu.c         **** 
 224:pdu.c         **** uchar* wpisz_centrum_sms_w_formacie_sms(uchar* ptr, const uchar* telefon)
 225:pdu.c         **** {
 1227               		.loc 1 225 1 is_stmt 1 view -0
 1228               		.cfi_startproc
 1229               		.loc 1 225 1 is_stmt 0 view .LVU349
 1230 0390 CF93      		push r28
 1231               	.LCFI20:
 1232               		.cfi_def_cfa_offset 3
 1233               		.cfi_offset 28, -2
 1234 0392 DF93      		push r29
 1235               	.LCFI21:
 1236               		.cfi_def_cfa_offset 4
 1237               		.cfi_offset 29, -3
 1238               	/* prologue: function */
 1239               	/* frame size = 0 */
 1240               	/* stack size = 2 */
 1241               	.L__stack_usage = 2
 1242 0394 DB01      		movw r26,r22
 226:pdu.c         **** 	if ( *telefon == '\0' )
 1243               		.loc 1 226 2 is_stmt 1 view .LVU350
 1244               		.loc 1 226 7 is_stmt 0 view .LVU351
 1245 0396 2C91      		ld r18,X
 1246               		.loc 1 226 5 view .LVU352
 1247 0398 2111      		cpse r18,__zero_reg__
 1248 039a 00C0      		rjmp .L60
 227:pdu.c         **** 	{
 228:pdu.c         **** 		*ptr++ = 0x00;
 1249               		.loc 1 228 3 is_stmt 1 view .LVU353
 1250               		.loc 1 228 10 is_stmt 0 view .LVU354
 1251 039c FC01      		movw r30,r24
 1252 039e 1192      		st Z+,__zero_reg__
 1253 03a0 CF01      		movw r24,r30
 1254               	.LVL135:
 229:pdu.c         **** 		return ptr;
 1255               		.loc 1 229 3 is_stmt 1 view .LVU355
 1256               	.L59:
 1257               	/* epilogue start */
 230:pdu.c         **** 	}
 231:pdu.c         **** 	uchar typ_telefonu;
 232:pdu.c         **** 	if ( *telefon == '+' )
 233:pdu.c         **** 	{
 234:pdu.c         **** 		++telefon;
 235:pdu.c         **** 		typ_telefonu = 145;
 236:pdu.c         **** 	}
 237:pdu.c         **** 	else
 238:pdu.c         **** 		typ_telefonu = 129;
 239:pdu.c         **** 	const uchar liczba_cyfr_telefonu = strlen(telefon);
 240:pdu.c         **** 	*ptr++ = (liczba_cyfr_telefonu + 1) / 2 + 1;
 241:pdu.c         **** 	*ptr++ = typ_telefonu;
 242:pdu.c         **** 	const uchar k = (liczba_cyfr_telefonu + 1) / 2;
 243:pdu.c         **** 	for (uchar i = 0; i < k; ++i)
 244:pdu.c         **** 	{
 245:pdu.c         **** 		uchar ch = (*telefon++ - '0');
 246:pdu.c         **** 		if ( *telefon != '\0' )
 247:pdu.c         **** 			ch |= (*telefon++ - '0') << 4;
 248:pdu.c         **** 		else
 249:pdu.c         **** 			ch |= 0xf0;
 250:pdu.c         **** 		*ptr++ = ch;
 251:pdu.c         **** 	}
 252:pdu.c         **** 	return ptr;
 253:pdu.c         **** }
 1258               		.loc 1 253 1 is_stmt 0 view .LVU356
 1259 03a2 DF91      		pop r29
 1260 03a4 CF91      		pop r28
 1261 03a6 0895      		ret
 1262               	.LVL136:
 1263               	.L60:
 231:pdu.c         **** 	if ( *telefon == '+' )
 1264               		.loc 1 231 2 is_stmt 1 view .LVU357
 232:pdu.c         **** 	{
 1265               		.loc 1 232 2 view .LVU358
 238:pdu.c         **** 	const uchar liczba_cyfr_telefonu = strlen(telefon);
 1266               		.loc 1 238 16 is_stmt 0 view .LVU359
 1267 03a8 61E8      		ldi r22,lo8(-127)
 1268               	.LVL137:
 232:pdu.c         **** 	{
 1269               		.loc 1 232 5 view .LVU360
 1270 03aa 2B32      		cpi r18,lo8(43)
 1271 03ac 01F4      		brne .L62
 234:pdu.c         **** 		typ_telefonu = 145;
 1272               		.loc 1 234 3 is_stmt 1 view .LVU361
 1273 03ae 1196      		adiw r26,1
 1274               	.LVL138:
 235:pdu.c         **** 	}
 1275               		.loc 1 235 3 view .LVU362
 235:pdu.c         **** 	}
 1276               		.loc 1 235 16 is_stmt 0 view .LVU363
 1277 03b0 61E9      		ldi r22,lo8(-111)
 1278               	.LVL139:
 1279               	.L62:
 239:pdu.c         **** 	*ptr++ = (liczba_cyfr_telefonu + 1) / 2 + 1;
 1280               		.loc 1 239 2 is_stmt 1 view .LVU364
 239:pdu.c         **** 	*ptr++ = (liczba_cyfr_telefonu + 1) / 2 + 1;
 1281               		.loc 1 239 37 is_stmt 0 view .LVU365
 1282 03b2 FD01      		movw r30,r26
 1283               		0:
 1284 03b4 0190      		ld __tmp_reg__,Z+
 1285 03b6 0020      		tst __tmp_reg__
 1286 03b8 01F4      		brne 0b
 1287 03ba 3197      		sbiw r30,1
 1288 03bc 9F01      		movw r18,r30
 1289 03be 2A1B      		sub r18,r26
 1290 03c0 3B0B      		sbc r19,r27
 1291               	.LVL140:
 240:pdu.c         **** 	*ptr++ = typ_telefonu;
 1292               		.loc 1 240 2 is_stmt 1 view .LVU366
 240:pdu.c         **** 	*ptr++ = typ_telefonu;
 1293               		.loc 1 240 33 is_stmt 0 view .LVU367
 1294 03c2 3327      		clr r19
 1295               	.LVL141:
 240:pdu.c         **** 	*ptr++ = typ_telefonu;
 1296               		.loc 1 240 33 view .LVU368
 1297 03c4 2F5F      		subi r18,-1
 1298 03c6 3F4F      		sbci r19,-1
 240:pdu.c         **** 	*ptr++ = typ_telefonu;
 1299               		.loc 1 240 38 view .LVU369
 1300 03c8 3595      		asr r19
 1301 03ca 2795      		ror r18
 240:pdu.c         **** 	*ptr++ = typ_telefonu;
 1302               		.loc 1 240 42 view .LVU370
 1303 03cc D22F      		mov r29,r18
 1304               	.LVL142:
 240:pdu.c         **** 	*ptr++ = typ_telefonu;
 1305               		.loc 1 240 42 view .LVU371
 1306 03ce 41E0      		ldi r20,lo8(1)
 1307 03d0 420F      		add r20,r18
 240:pdu.c         **** 	*ptr++ = typ_telefonu;
 1308               		.loc 1 240 9 view .LVU372
 1309 03d2 FC01      		movw r30,r24
 1310               	.LVL143:
 240:pdu.c         **** 	*ptr++ = typ_telefonu;
 1311               		.loc 1 240 9 view .LVU373
 1312 03d4 4083      		st Z,r20
 241:pdu.c         **** 	const uchar k = (liczba_cyfr_telefonu + 1) / 2;
 1313               		.loc 1 241 2 is_stmt 1 view .LVU374
 241:pdu.c         **** 	const uchar k = (liczba_cyfr_telefonu + 1) / 2;
 1314               		.loc 1 241 6 is_stmt 0 view .LVU375
 1315 03d6 AC01      		movw r20,r24
 1316 03d8 4E5F      		subi r20,-2
 1317 03da 5F4F      		sbci r21,-1
 1318               	.LVL144:
 241:pdu.c         **** 	const uchar k = (liczba_cyfr_telefonu + 1) / 2;
 1319               		.loc 1 241 9 view .LVU376
 1320 03dc 6183      		std Z+1,r22
 242:pdu.c         **** 	for (uchar i = 0; i < k; ++i)
 1321               		.loc 1 242 2 is_stmt 1 view .LVU377
 1322               	.LVL145:
 243:pdu.c         **** 	{
 1323               		.loc 1 243 2 view .LVU378
 1324               	.LBB25:
 243:pdu.c         **** 	{
 1325               		.loc 1 243 7 view .LVU379
 243:pdu.c         **** 	{
 1326               		.loc 1 243 7 is_stmt 0 view .LVU380
 1327               	.LBE25:
 241:pdu.c         **** 	const uchar k = (liczba_cyfr_telefonu + 1) / 2;
 1328               		.loc 1 241 6 view .LVU381
 1329 03de 742F      		mov r23,r20
 1330 03e0 C52F      		mov r28,r21
 1331               	.LBB28:
 243:pdu.c         **** 	{
 1332               		.loc 1 243 13 view .LVU382
 1333 03e2 60E0      		ldi r22,0
 1334               	.LVL146:
 1335               	.L63:
 243:pdu.c         **** 	{
 1336               		.loc 1 243 20 is_stmt 1 discriminator 1 view .LVU383
 243:pdu.c         **** 	{
 1337               		.loc 1 243 2 is_stmt 0 discriminator 1 view .LVU384
 1338 03e4 D613      		cpse r29,r22
 1339 03e6 00C0      		rjmp .L66
 243:pdu.c         **** 	{
 1340               		.loc 1 243 2 discriminator 1 view .LVU385
 1341 03e8 CA01      		movw r24,r20
 1342 03ea 820F      		add r24,r18
 1343 03ec 931F      		adc r25,r19
 1344 03ee 00C0      		rjmp .L59
 1345               	.L66:
 1346               	.LBB26:
 245:pdu.c         **** 		if ( *telefon != '\0' )
 1347               		.loc 1 245 3 is_stmt 1 view .LVU386
 1348               	.LVL147:
 245:pdu.c         **** 		if ( *telefon != '\0' )
 1349               		.loc 1 245 9 is_stmt 0 view .LVU387
 1350 03f0 8C91      		ld r24,X
 1351 03f2 8053      		subi r24,lo8(-(-48))
 1352               	.LVL148:
 246:pdu.c         **** 			ch |= (*telefon++ - '0') << 4;
 1353               		.loc 1 246 3 is_stmt 1 view .LVU388
 246:pdu.c         **** 			ch |= (*telefon++ - '0') << 4;
 1354               		.loc 1 246 8 is_stmt 0 view .LVU389
 1355 03f4 1196      		adiw r26,1
 1356 03f6 9C91      		ld r25,X
 1357 03f8 1197      		sbiw r26,1
 246:pdu.c         **** 			ch |= (*telefon++ - '0') << 4;
 1358               		.loc 1 246 6 view .LVU390
 1359 03fa 9923      		tst r25
 1360 03fc 01F0      		breq .L64
 247:pdu.c         **** 		else
 1361               		.loc 1 247 4 is_stmt 1 view .LVU391
 247:pdu.c         **** 		else
 1362               		.loc 1 247 19 is_stmt 0 view .LVU392
 1363 03fe 1296      		adiw r26,2
 1364               	.LVL149:
 247:pdu.c         **** 		else
 1365               		.loc 1 247 29 view .LVU393
 1366 0400 9295      		swap r25
 1367 0402 907F      		andi r25,lo8(-16)
 247:pdu.c         **** 		else
 1368               		.loc 1 247 7 view .LVU394
 1369 0404 892B      		or r24,r25
 1370               	.LVL150:
 1371               	.L65:
 250:pdu.c         **** 	}
 1372               		.loc 1 250 3 is_stmt 1 discriminator 2 view .LVU395
 250:pdu.c         **** 	}
 1373               		.loc 1 250 7 is_stmt 0 discriminator 2 view .LVU396
 1374 0406 E72F      		mov r30,r23
 1375 0408 FC2F      		mov r31,r28
 1376               	.LVL151:
 250:pdu.c         **** 	}
 1377               		.loc 1 250 10 discriminator 2 view .LVU397
 1378 040a 8193      		st Z+,r24
 1379               	.LVL152:
 250:pdu.c         **** 	}
 1380               		.loc 1 250 10 discriminator 2 view .LVU398
 1381               	.LBE26:
 243:pdu.c         **** 	{
 1382               		.loc 1 243 27 is_stmt 1 discriminator 2 view .LVU399
 1383 040c 6F5F      		subi r22,lo8(-(1))
 1384               	.LVL153:
 1385               	.LBB27:
 250:pdu.c         **** 	}
 1386               		.loc 1 250 7 is_stmt 0 discriminator 2 view .LVU400
 1387 040e 7E2F      		mov r23,r30
 1388 0410 CF2F      		mov r28,r31
 1389 0412 00C0      		rjmp .L63
 1390               	.LVL154:
 1391               	.L64:
 245:pdu.c         **** 		if ( *telefon != '\0' )
 1392               		.loc 1 245 23 view .LVU401
 1393 0414 1196      		adiw r26,1
 1394               	.LVL155:
 249:pdu.c         **** 		*ptr++ = ch;
 1395               		.loc 1 249 4 is_stmt 1 view .LVU402
 249:pdu.c         **** 		*ptr++ = ch;
 1396               		.loc 1 249 7 is_stmt 0 view .LVU403
 1397 0416 806F      		ori r24,lo8(-16)
 1398               	.LVL156:
 249:pdu.c         **** 		*ptr++ = ch;
 1399               		.loc 1 249 7 view .LVU404
 1400 0418 00C0      		rjmp .L65
 1401               	.LBE27:
 1402               	.LBE28:
 1403               		.cfi_endproc
 1404               	.LFE8:
 1406               	.global	zapisz_naglowek_pdu
 1408               	zapisz_naglowek_pdu:
 1409               	.LVL157:
 1410               	.LFB9:
 254:pdu.c         **** 
 255:pdu.c         **** uchar* zapisz_naglowek_pdu(uchar* ptr, const uchar* telefon_odbiorcy, 
 256:pdu.c         **** 	const uchar* telefon_centrum_sms, const uchar TP_PID, const uchar TP_DCS)
 257:pdu.c         **** {
 1411               		.loc 1 257 1 is_stmt 1 view -0
 1412               		.cfi_startproc
 1413               		.loc 1 257 1 is_stmt 0 view .LVU406
 1414 041a EF92      		push r14
 1415               	.LCFI22:
 1416               		.cfi_def_cfa_offset 3
 1417               		.cfi_offset 14, -2
 1418 041c FF92      		push r15
 1419               	.LCFI23:
 1420               		.cfi_def_cfa_offset 4
 1421               		.cfi_offset 15, -3
 1422 041e 0F93      		push r16
 1423               	.LCFI24:
 1424               		.cfi_def_cfa_offset 5
 1425               		.cfi_offset 16, -4
 1426 0420 CF93      		push r28
 1427               	.LCFI25:
 1428               		.cfi_def_cfa_offset 6
 1429               		.cfi_offset 28, -5
 1430               	/* prologue: function */
 1431               	/* frame size = 0 */
 1432               	/* stack size = 4 */
 1433               	.L__stack_usage = 4
 1434 0422 7B01      		movw r14,r22
 1435 0424 C22F      		mov r28,r18
 258:pdu.c         **** 	ptr = wpisz_centrum_sms_w_formacie_sms(ptr, telefon_centrum_sms);
 1436               		.loc 1 258 2 is_stmt 1 view .LVU407
 1437               		.loc 1 258 8 is_stmt 0 view .LVU408
 1438 0426 BA01      		movw r22,r20
 1439               	.LVL158:
 1440               		.loc 1 258 8 view .LVU409
 1441 0428 0E94 0000 		call wpisz_centrum_sms_w_formacie_sms
 1442               	.LVL159:
 259:pdu.c         **** 	*ptr++ = 0x11;
 1443               		.loc 1 259 2 is_stmt 1 view .LVU410
 1444               		.loc 1 259 9 is_stmt 0 view .LVU411
 1445 042c 21E1      		ldi r18,lo8(17)
 1446 042e FC01      		movw r30,r24
 1447 0430 2083      		st Z,r18
 260:pdu.c         **** 	*ptr++ = 0x00;
 1448               		.loc 1 260 2 is_stmt 1 view .LVU412
 1449               	.LVL160:
 1450               		.loc 1 260 9 is_stmt 0 view .LVU413
 1451 0432 1182      		std Z+1,__zero_reg__
 261:pdu.c         **** 	ptr = wpisz_telefon_w_formacie_sms(ptr, telefon_odbiorcy);
 1452               		.loc 1 261 2 is_stmt 1 view .LVU414
 1453               		.loc 1 261 8 is_stmt 0 view .LVU415
 1454 0434 B701      		movw r22,r14
 1455 0436 0296      		adiw r24,2
 1456               	.LVL161:
 1457               		.loc 1 261 8 view .LVU416
 1458 0438 0E94 0000 		call wpisz_telefon_w_formacie_sms
 1459               	.LVL162:
 262:pdu.c         **** 	*ptr++ = TP_PID;	// TP-PID. Protocol identifier 
 1460               		.loc 1 262 2 is_stmt 1 view .LVU417
 1461               		.loc 1 262 9 is_stmt 0 view .LVU418
 1462 043c FC01      		movw r30,r24
 1463 043e C083      		st Z,r28
 263:pdu.c         **** 	*ptr++ = TP_DCS;	// TP-DCS. Data coding scheme (7-bit, 8-bit, UCS2)
 1464               		.loc 1 263 2 is_stmt 1 view .LVU419
 1465               	.LVL163:
 1466               		.loc 1 263 9 is_stmt 0 view .LVU420
 1467 0440 0183      		std Z+1,r16
 264:pdu.c         **** 	*ptr++ = 0xAA;	// TP-Validity-Period. "AA" means 4 days
 1468               		.loc 1 264 2 is_stmt 1 view .LVU421
 1469               	.LVL164:
 1470               		.loc 1 264 9 is_stmt 0 view .LVU422
 1471 0442 2AEA      		ldi r18,lo8(-86)
 1472 0444 2283      		std Z+2,r18
 265:pdu.c         **** 	return ptr;
 1473               		.loc 1 265 2 is_stmt 1 view .LVU423
 266:pdu.c         **** }
 1474               		.loc 1 266 1 is_stmt 0 view .LVU424
 1475 0446 0396      		adiw r24,3
 1476               	.LVL165:
 1477               	/* epilogue start */
 1478               		.loc 1 266 1 view .LVU425
 1479 0448 CF91      		pop r28
 1480               	.LVL166:
 1481               		.loc 1 266 1 view .LVU426
 1482 044a 0F91      		pop r16
 1483               	.LVL167:
 1484               		.loc 1 266 1 view .LVU427
 1485 044c FF90      		pop r15
 1486 044e EF90      		pop r14
 1487               	.LVL168:
 1488               		.loc 1 266 1 view .LVU428
 1489 0450 0895      		ret
 1490               		.cfi_endproc
 1491               	.LFE9:
 1493               	.global	konwertuj_pdu_na_blok_wysylany
 1495               	konwertuj_pdu_na_blok_wysylany:
 1496               	.LVL169:
 1497               	.LFB10:
 267:pdu.c         **** 
 268:pdu.c         **** void konwertuj_pdu_na_blok_wysylany(uchar* buf, const uchar* pdu_ptr, 
 269:pdu.c         **** 	const uchar dlugosc_pdu)
 270:pdu.c         **** {
 1498               		.loc 1 270 1 is_stmt 1 view -0
 1499               		.cfi_startproc
 1500               		.loc 1 270 1 is_stmt 0 view .LVU430
 1501 0452 CF93      		push r28
 1502               	.LCFI26:
 1503               		.cfi_def_cfa_offset 3
 1504               		.cfi_offset 28, -2
 1505 0454 DF93      		push r29
 1506               	.LCFI27:
 1507               		.cfi_def_cfa_offset 4
 1508               		.cfi_offset 29, -3
 1509 0456 0F92      		push __tmp_reg__
 1510               	.LCFI28:
 1511               		.cfi_def_cfa_offset 5
 1512 0458 CDB7      		in r28,__SP_L__
 1513 045a DEB7      		in r29,__SP_H__
 1514               	.LCFI29:
 1515               		.cfi_def_cfa_register 28
 1516               	/* prologue: function */
 1517               	/* frame size = 1 */
 1518               	/* stack size = 3 */
 1519               	.L__stack_usage = 3
 271:pdu.c         **** 	static const char znak_wartosc_heksadecymalna[] PROGMEM = "0123456789ABCDEF";
 1520               		.loc 1 271 2 is_stmt 1 view .LVU431
 272:pdu.c         **** 	for (uchar i = 0; i < dlugosc_pdu; ++i)
 1521               		.loc 1 272 2 view .LVU432
 1522               	.LBB29:
 1523               		.loc 1 272 7 view .LVU433
 1524               	.LVL170:
 1525               		.loc 1 272 7 is_stmt 0 view .LVU434
 1526 045c 9C01      		movw r18,r24
 1527               		.loc 1 272 2 view .LVU435
 1528 045e CB01      		movw r24,r22
 1529               	.LVL171:
 1530               	.L70:
 1531               		.loc 1 272 20 is_stmt 1 discriminator 1 view .LVU436
 1532               		.loc 1 272 2 is_stmt 0 discriminator 1 view .LVU437
 1533 0460 582F      		mov r21,r24
 1534 0462 561B      		sub r21,r22
 1535               	.LVL172:
 1536               		.loc 1 272 2 discriminator 1 view .LVU438
 1537 0464 5417      		cp r21,r20
 1538 0466 00F0      		brlo .L71
 1539               	/* epilogue start */
 1540               		.loc 1 272 2 discriminator 1 view .LVU439
 1541               	.LBE29:
 273:pdu.c         **** 	{
 274:pdu.c         **** 		uchar znak = *pdu_ptr++;
 275:pdu.c         **** 		volatile uchar pom = znak & 0xf0;	// bardzo wane jst sowo volatile, bo kompilator le generuje 
 276:pdu.c         **** 		SWAP(pom);
 277:pdu.c         **** 		*buf++ = pgm_read_byte(znak_wartosc_heksadecymalna + pom);
 278:pdu.c         **** 		*buf++ = pgm_read_byte(znak_wartosc_heksadecymalna + (znak & 0x0f));
 279:pdu.c         **** 	}
 280:pdu.c         **** }
 1542               		.loc 1 280 1 view .LVU440
 1543 0468 0F90      		pop __tmp_reg__
 1544 046a DF91      		pop r29
 1545 046c CF91      		pop r28
 1546 046e 0895      		ret
 1547               	.L71:
 1548               	.LBB34:
 1549               	.LBB30:
 274:pdu.c         **** 		volatile uchar pom = znak & 0xf0;	// bardzo wane jst sowo volatile, bo kompilator le generuje 
 1550               		.loc 1 274 3 is_stmt 1 discriminator 3 view .LVU441
 274:pdu.c         **** 		volatile uchar pom = znak & 0xf0;	// bardzo wane jst sowo volatile, bo kompilator le generuje 
 1551               		.loc 1 274 24 is_stmt 0 discriminator 3 view .LVU442
 1552 0470 DC01      		movw r26,r24
 1553               	.LVL173:
 274:pdu.c         **** 		volatile uchar pom = znak & 0xf0;	// bardzo wane jst sowo volatile, bo kompilator le generuje 
 1554               		.loc 1 274 9 discriminator 3 view .LVU443
 1555 0472 9D91      		ld r25,X+
 1556               	.LVL174:
 275:pdu.c         **** 		SWAP(pom);
 1557               		.loc 1 275 3 is_stmt 1 discriminator 3 view .LVU444
 275:pdu.c         **** 		SWAP(pom);
 1558               		.loc 1 275 29 is_stmt 0 discriminator 3 view .LVU445
 1559 0474 892F      		mov r24,r25
 1560               	.LVL175:
 275:pdu.c         **** 		SWAP(pom);
 1561               		.loc 1 275 29 discriminator 3 view .LVU446
 1562 0476 807F      		andi r24,lo8(-16)
 275:pdu.c         **** 		SWAP(pom);
 1563               		.loc 1 275 18 discriminator 3 view .LVU447
 1564 0478 8983      		std Y+1,r24
 276:pdu.c         **** 		*buf++ = pgm_read_byte(znak_wartosc_heksadecymalna + pom);
 1565               		.loc 1 276 3 is_stmt 1 discriminator 3 view .LVU448
 1566               	/* #APP */
 1567               	 ;  276 "pdu.c" 1
 1568 047a 8295      		swap r24
 1569               		
 1570               	 ;  0 "" 2
 1571               	/* #NOAPP */
 1572 047c 8983      		std Y+1,r24
 277:pdu.c         **** 		*buf++ = pgm_read_byte(znak_wartosc_heksadecymalna + (znak & 0x0f));
 1573               		.loc 1 277 3 discriminator 3 view .LVU449
 1574               	.LBB31:
 277:pdu.c         **** 		*buf++ = pgm_read_byte(znak_wartosc_heksadecymalna + (znak & 0x0f));
 1575               		.loc 1 277 12 discriminator 3 view .LVU450
 1576 047e E981      		ldd r30,Y+1
 1577               	.LVL176:
 277:pdu.c         **** 		*buf++ = pgm_read_byte(znak_wartosc_heksadecymalna + (znak & 0x0f));
 1578               		.loc 1 277 12 discriminator 3 view .LVU451
 277:pdu.c         **** 		*buf++ = pgm_read_byte(znak_wartosc_heksadecymalna + (znak & 0x0f));
 1579               		.loc 1 277 12 discriminator 3 view .LVU452
 1580 0480 F0E0      		ldi r31,0
 1581 0482 E050      		subi r30,lo8(-(znak_wartosc_heksadecymalna.2088))
 1582 0484 F040      		sbci r31,hi8(-(znak_wartosc_heksadecymalna.2088))
 1583               	.LVL177:
 277:pdu.c         **** 		*buf++ = pgm_read_byte(znak_wartosc_heksadecymalna + (znak & 0x0f));
 1584               		.loc 1 277 12 is_stmt 0 discriminator 3 view .LVU453
 1585               	/* #APP */
 1586               	 ;  277 "pdu.c" 1
 1587 0486 8491      		lpm r24, Z
 1588               		
 1589               	 ;  0 "" 2
 1590               	.LVL178:
 277:pdu.c         **** 		*buf++ = pgm_read_byte(znak_wartosc_heksadecymalna + (znak & 0x0f));
 1591               		.loc 1 277 12 is_stmt 1 discriminator 3 view .LVU454
 277:pdu.c         **** 		*buf++ = pgm_read_byte(znak_wartosc_heksadecymalna + (znak & 0x0f));
 1592               		.loc 1 277 12 is_stmt 0 discriminator 3 view .LVU455
 1593               	/* #NOAPP */
 1594               	.LBE31:
 277:pdu.c         **** 		*buf++ = pgm_read_byte(znak_wartosc_heksadecymalna + (znak & 0x0f));
 1595               		.loc 1 277 10 discriminator 3 view .LVU456
 1596 0488 F901      		movw r30,r18
 1597 048a 8083      		st Z,r24
 278:pdu.c         **** 	}
 1598               		.loc 1 278 3 is_stmt 1 discriminator 3 view .LVU457
 1599               	.LBB32:
 278:pdu.c         **** 	}
 1600               		.loc 1 278 12 discriminator 3 view .LVU458
 1601               	.LVL179:
 278:pdu.c         **** 	}
 1602               		.loc 1 278 12 discriminator 3 view .LVU459
 278:pdu.c         **** 	}
 1603               		.loc 1 278 12 discriminator 3 view .LVU460
 1604 048c 9F70      		andi r25,lo8(15)
 1605               	.LVL180:
 278:pdu.c         **** 	}
 1606               		.loc 1 278 12 is_stmt 0 discriminator 3 view .LVU461
 1607 048e E92F      		mov r30,r25
 1608 0490 F0E0      		ldi r31,0
 1609 0492 E050      		subi r30,lo8(-(znak_wartosc_heksadecymalna.2088))
 1610 0494 F040      		sbci r31,hi8(-(znak_wartosc_heksadecymalna.2088))
 1611               	/* #APP */
 1612               	 ;  278 "pdu.c" 1
 1613 0496 8491      		lpm r24, Z
 1614               		
 1615               	 ;  0 "" 2
 1616               	.LVL181:
 278:pdu.c         **** 	}
 1617               		.loc 1 278 12 is_stmt 1 discriminator 3 view .LVU462
 278:pdu.c         **** 	}
 1618               		.loc 1 278 12 is_stmt 0 discriminator 3 view .LVU463
 1619               	/* #NOAPP */
 1620               	.LBE32:
 278:pdu.c         **** 	}
 1621               		.loc 1 278 10 discriminator 3 view .LVU464
 1622 0498 F901      		movw r30,r18
 1623 049a 8183      		std Z+1,r24
 1624               	.LBE30:
 272:pdu.c         **** 	{
 1625               		.loc 1 272 37 is_stmt 1 discriminator 3 view .LVU465
 1626               	.LVL182:
 272:pdu.c         **** 	{
 1627               		.loc 1 272 37 is_stmt 0 discriminator 3 view .LVU466
 1628 049c 2E5F      		subi r18,-2
 1629 049e 3F4F      		sbci r19,-1
 1630               	.LVL183:
 1631               	.LBB33:
 274:pdu.c         **** 		volatile uchar pom = znak & 0xf0;	// bardzo wane jst sowo volatile, bo kompilator le generuje 
 1632               		.loc 1 274 24 discriminator 3 view .LVU467
 1633 04a0 CD01      		movw r24,r26
 1634               	.LVL184:
 274:pdu.c         **** 		volatile uchar pom = znak & 0xf0;	// bardzo wane jst sowo volatile, bo kompilator le generuje 
 1635               		.loc 1 274 24 discriminator 3 view .LVU468
 1636 04a2 00C0      		rjmp .L70
 1637               	.LBE33:
 1638               	.LBE34:
 1639               		.cfi_endproc
 1640               	.LFE10:
 1642               		.section	.progmem.data,"a",@progbits
 1645               	znak_wartosc_heksadecymalna.2088:
 1646 0000 3031 3233 		.string	"0123456789ABCDEF"
 1646      3435 3637 
 1646      3839 4142 
 1646      4344 4546 
 1646      00
 1649               	GSM_Default_DeAlphabet:
 1650 0011 3F        		.byte	63
 1651 0012 3F        		.byte	63
 1652 0013 3F        		.byte	63
 1653 0014 3F        		.byte	63
 1654 0015 3F        		.byte	63
 1655 0016 3F        		.byte	63
 1656 0017 3F        		.byte	63
 1657 0018 3F        		.byte	63
 1658 0019 3F        		.byte	63
 1659 001a 3F        		.byte	63
 1660 001b 0A        		.byte	10
 1661 001c 3F        		.byte	63
 1662 001d 3F        		.byte	63
 1663 001e 0D        		.byte	13
 1664 001f 3F        		.byte	63
 1665 0020 3F        		.byte	63
 1666 0021 3F        		.byte	63
 1667 0022 3F        		.byte	63
 1668 0023 3F        		.byte	63
 1669 0024 3F        		.byte	63
 1670 0025 3F        		.byte	63
 1671 0026 3F        		.byte	63
 1672 0027 3F        		.byte	63
 1673 0028 3F        		.byte	63
 1674 0029 3F        		.byte	63
 1675 002a 3F        		.byte	63
 1676 002b 3F        		.byte	63
 1677 002c 3F        		.byte	63
 1678 002d 3F        		.byte	63
 1679 002e 3F        		.byte	63
 1680 002f 3F        		.byte	63
 1681 0030 3F        		.byte	63
 1682 0031 20        		.byte	32
 1683 0032 21        		.byte	33
 1684 0033 22        		.byte	34
 1685 0034 23        		.byte	35
 1686 0035 02        		.byte	2
 1687 0036 25        		.byte	37
 1688 0037 26        		.byte	38
 1689 0038 27        		.byte	39
 1690 0039 28        		.byte	40
 1691 003a 29        		.byte	41
 1692 003b 2A        		.byte	42
 1693 003c 2B        		.byte	43
 1694 003d 2C        		.byte	44
 1695 003e 2D        		.byte	45
 1696 003f 2E        		.byte	46
 1697 0040 2F        		.byte	47
 1698 0041 30        		.byte	48
 1699 0042 31        		.byte	49
 1700 0043 32        		.byte	50
 1701 0044 33        		.byte	51
 1702 0045 34        		.byte	52
 1703 0046 35        		.byte	53
 1704 0047 36        		.byte	54
 1705 0048 37        		.byte	55
 1706 0049 38        		.byte	56
 1707 004a 39        		.byte	57
 1708 004b 3A        		.byte	58
 1709 004c 3B        		.byte	59
 1710 004d 3C        		.byte	60
 1711 004e 3D        		.byte	61
 1712 004f 3E        		.byte	62
 1713 0050 3F        		.byte	63
 1714 0051 00        		.byte	0
 1715 0052 41        		.byte	65
 1716 0053 42        		.byte	66
 1717 0054 43        		.byte	67
 1718 0055 44        		.byte	68
 1719 0056 45        		.byte	69
 1720 0057 46        		.byte	70
 1721 0058 47        		.byte	71
 1722 0059 48        		.byte	72
 1723 005a 49        		.byte	73
 1724 005b 4A        		.byte	74
 1725 005c 4B        		.byte	75
 1726 005d 4C        		.byte	76
 1727 005e 4D        		.byte	77
 1728 005f 4E        		.byte	78
 1729 0060 4F        		.byte	79
 1730 0061 50        		.byte	80
 1731 0062 51        		.byte	81
 1732 0063 52        		.byte	82
 1733 0064 53        		.byte	83
 1734 0065 54        		.byte	84
 1735 0066 55        		.byte	85
 1736 0067 56        		.byte	86
 1737 0068 57        		.byte	87
 1738 0069 58        		.byte	88
 1739 006a 59        		.byte	89
 1740 006b 5A        		.byte	90
 1741 006c 3F        		.byte	63
 1742 006d 3F        		.byte	63
 1743 006e 3F        		.byte	63
 1744 006f 3F        		.byte	63
 1745 0070 11        		.byte	17
 1746 0071 3F        		.byte	63
 1747 0072 61        		.byte	97
 1748 0073 62        		.byte	98
 1749 0074 63        		.byte	99
 1750 0075 64        		.byte	100
 1751 0076 65        		.byte	101
 1752 0077 66        		.byte	102
 1753 0078 67        		.byte	103
 1754 0079 68        		.byte	104
 1755 007a 69        		.byte	105
 1756 007b 6A        		.byte	106
 1757 007c 6B        		.byte	107
 1758 007d 6C        		.byte	108
 1759 007e 6D        		.byte	109
 1760 007f 6E        		.byte	110
 1761 0080 6F        		.byte	111
 1762 0081 70        		.byte	112
 1763 0082 71        		.byte	113
 1764 0083 72        		.byte	114
 1765 0084 73        		.byte	115
 1766 0085 74        		.byte	116
 1767 0086 75        		.byte	117
 1768 0087 76        		.byte	118
 1769 0088 77        		.byte	119
 1770 0089 78        		.byte	120
 1771 008a 79        		.byte	121
 1772 008b 7A        		.byte	122
 1773 008c 3F        		.byte	63
 1774 008d 3F        		.byte	63
 1775 008e 3F        		.byte	63
 1776 008f 3F        		.byte	63
 1777 0090 3F        		.byte	63
 1778 0091 3F        		.byte	63
 1779 0092 3F        		.byte	63
 1780 0093 3F        		.byte	63
 1781 0094 3F        		.byte	63
 1782 0095 3F        		.byte	63
 1783 0096 3F        		.byte	63
 1784 0097 3F        		.byte	63
 1785 0098 3F        		.byte	63
 1786 0099 3F        		.byte	63
 1787 009a 3F        		.byte	63
 1788 009b 3F        		.byte	63
 1789 009c 3F        		.byte	63
 1790 009d 3F        		.byte	63
 1791 009e 3F        		.byte	63
 1792 009f 3F        		.byte	63
 1793 00a0 3F        		.byte	63
 1794 00a1 3F        		.byte	63
 1795 00a2 3F        		.byte	63
 1796 00a3 3F        		.byte	63
 1797 00a4 3F        		.byte	63
 1798 00a5 3F        		.byte	63
 1799 00a6 3F        		.byte	63
 1800 00a7 3F        		.byte	63
 1801 00a8 3F        		.byte	63
 1802 00a9 3F        		.byte	63
 1803 00aa 3F        		.byte	63
 1804 00ab 3F        		.byte	63
 1805 00ac 3F        		.byte	63
 1806 00ad 3F        		.byte	63
 1807 00ae 3F        		.byte	63
 1808 00af 3F        		.byte	63
 1809 00b0 3F        		.byte	63
 1810 00b1 3F        		.byte	63
 1811 00b2 40        		.byte	64
 1812 00b3 3F        		.byte	63
 1813 00b4 01        		.byte	1
 1814 00b5 24        		.byte	36
 1815 00b6 03        		.byte	3
 1816 00b7 3F        		.byte	63
 1817 00b8 5F        		.byte	95
 1818 00b9 3F        		.byte	63
 1819 00ba 3F        		.byte	63
 1820 00bb 3F        		.byte	63
 1821 00bc 3F        		.byte	63
 1822 00bd 3F        		.byte	63
 1823 00be 3F        		.byte	63
 1824 00bf 3F        		.byte	63
 1825 00c0 3F        		.byte	63
 1826 00c1 3F        		.byte	63
 1827 00c2 3F        		.byte	63
 1828 00c3 3F        		.byte	63
 1829 00c4 3F        		.byte	63
 1830 00c5 3F        		.byte	63
 1831 00c6 3F        		.byte	63
 1832 00c7 3F        		.byte	63
 1833 00c8 3F        		.byte	63
 1834 00c9 3F        		.byte	63
 1835 00ca 3F        		.byte	63
 1836 00cb 3F        		.byte	63
 1837 00cc 3F        		.byte	63
 1838 00cd 3F        		.byte	63
 1839 00ce 3F        		.byte	63
 1840 00cf 3F        		.byte	63
 1841 00d0 60        		.byte	96
 1842 00d1 3F        		.byte	63
 1843 00d2 3F        		.byte	63
 1844 00d3 3F        		.byte	63
 1845 00d4 3F        		.byte	63
 1846 00d5 5B        		.byte	91
 1847 00d6 0E        		.byte	14
 1848 00d7 1C        		.byte	28
 1849 00d8 09        		.byte	9
 1850 00d9 3F        		.byte	63
 1851 00da 1F        		.byte	31
 1852 00db 3F        		.byte	63
 1853 00dc 3F        		.byte	63
 1854 00dd 3F        		.byte	63
 1855 00de 3F        		.byte	63
 1856 00df 3F        		.byte	63
 1857 00e0 3F        		.byte	63
 1858 00e1 3F        		.byte	63
 1859 00e2 5D        		.byte	93
 1860 00e3 3F        		.byte	63
 1861 00e4 3F        		.byte	63
 1862 00e5 3F        		.byte	63
 1863 00e6 3F        		.byte	63
 1864 00e7 5C        		.byte	92
 1865 00e8 3F        		.byte	63
 1866 00e9 0B        		.byte	11
 1867 00ea 3F        		.byte	63
 1868 00eb 3F        		.byte	63
 1869 00ec 3F        		.byte	63
 1870 00ed 5E        		.byte	94
 1871 00ee 3F        		.byte	63
 1872 00ef 3F        		.byte	63
 1873 00f0 1E        		.byte	30
 1874 00f1 7F        		.byte	127
 1875 00f2 3F        		.byte	63
 1876 00f3 3F        		.byte	63
 1877 00f4 3F        		.byte	63
 1878 00f5 7B        		.byte	123
 1879 00f6 0F        		.byte	15
 1880 00f7 1D        		.byte	29
 1881 00f8 3F        		.byte	63
 1882 00f9 04        		.byte	4
 1883 00fa 05        		.byte	5
 1884 00fb 3F        		.byte	63
 1885 00fc 3F        		.byte	63
 1886 00fd 07        		.byte	7
 1887 00fe 3F        		.byte	63
 1888 00ff 3F        		.byte	63
 1889 0100 3F        		.byte	63
 1890 0101 3F        		.byte	63
 1891 0102 7D        		.byte	125
 1892 0103 08        		.byte	8
 1893 0104 3F        		.byte	63
 1894 0105 3F        		.byte	63
 1895 0106 3F        		.byte	63
 1896 0107 7C        		.byte	124
 1897 0108 3F        		.byte	63
 1898 0109 0C        		.byte	12
 1899 010a 06        		.byte	6
 1900 010b 3F        		.byte	63
 1901 010c 3F        		.byte	63
 1902 010d 7E        		.byte	126
 1903 010e 3F        		.byte	63
 1904 010f 3F        		.byte	63
 1905 0110 3F        		.byte	63
 1908               	GSM_Default_Alphabet:
 1909 0111 40        		.byte	64
 1910 0112 A3        		.byte	-93
 1911 0113 24        		.byte	36
 1912 0114 A5        		.byte	-91
 1913 0115 E8        		.byte	-24
 1914 0116 E9        		.byte	-23
 1915 0117 F9        		.byte	-7
 1916 0118 EC        		.byte	-20
 1917 0119 F2        		.byte	-14
 1918 011a C7        		.byte	-57
 1919 011b 0A        		.byte	10
 1920 011c D8        		.byte	-40
 1921 011d F8        		.byte	-8
 1922 011e 0D        		.byte	13
 1923 011f C5        		.byte	-59
 1924 0120 E5        		.byte	-27
 1925 0121 3F        		.byte	63
 1926 0122 5F        		.byte	95
 1927 0123 3F        		.byte	63
 1928 0124 3F        		.byte	63
 1929 0125 3F        		.byte	63
 1930 0126 3F        		.byte	63
 1931 0127 3F        		.byte	63
 1932 0128 3F        		.byte	63
 1933 0129 3F        		.byte	63
 1934 012a 3F        		.byte	63
 1935 012b 3F        		.byte	63
 1936 012c 3F        		.byte	63
 1937 012d C6        		.byte	-58
 1938 012e E6        		.byte	-26
 1939 012f DF        		.byte	-33
 1940 0130 C9        		.byte	-55
 1941 0131 20        		.byte	32
 1942 0132 21        		.byte	33
 1943 0133 22        		.byte	34
 1944 0134 23        		.byte	35
 1945 0135 A4        		.byte	-92
 1946 0136 25        		.byte	37
 1947 0137 26        		.byte	38
 1948 0138 27        		.byte	39
 1949 0139 28        		.byte	40
 1950 013a 29        		.byte	41
 1951 013b 2A        		.byte	42
 1952 013c 2B        		.byte	43
 1953 013d 2C        		.byte	44
 1954 013e 2D        		.byte	45
 1955 013f 2E        		.byte	46
 1956 0140 2F        		.byte	47
 1957 0141 30        		.byte	48
 1958 0142 31        		.byte	49
 1959 0143 32        		.byte	50
 1960 0144 33        		.byte	51
 1961 0145 34        		.byte	52
 1962 0146 35        		.byte	53
 1963 0147 36        		.byte	54
 1964 0148 37        		.byte	55
 1965 0149 38        		.byte	56
 1966 014a 39        		.byte	57
 1967 014b 3A        		.byte	58
 1968 014c 3B        		.byte	59
 1969 014d 3C        		.byte	60
 1970 014e 3D        		.byte	61
 1971 014f 3E        		.byte	62
 1972 0150 3F        		.byte	63
 1973 0151 A1        		.byte	-95
 1974 0152 41        		.byte	65
 1975 0153 42        		.byte	66
 1976 0154 43        		.byte	67
 1977 0155 44        		.byte	68
 1978 0156 45        		.byte	69
 1979 0157 46        		.byte	70
 1980 0158 47        		.byte	71
 1981 0159 48        		.byte	72
 1982 015a 49        		.byte	73
 1983 015b 4A        		.byte	74
 1984 015c 4B        		.byte	75
 1985 015d 4C        		.byte	76
 1986 015e 4D        		.byte	77
 1987 015f 4E        		.byte	78
 1988 0160 4F        		.byte	79
 1989 0161 50        		.byte	80
 1990 0162 51        		.byte	81
 1991 0163 52        		.byte	82
 1992 0164 53        		.byte	83
 1993 0165 54        		.byte	84
 1994 0166 55        		.byte	85
 1995 0167 56        		.byte	86
 1996 0168 57        		.byte	87
 1997 0169 58        		.byte	88
 1998 016a 59        		.byte	89
 1999 016b 5A        		.byte	90
 2000 016c C4        		.byte	-60
 2001 016d D6        		.byte	-42
 2002 016e D1        		.byte	-47
 2003 016f DC        		.byte	-36
 2004 0170 A7        		.byte	-89
 2005 0171 BF        		.byte	-65
 2006 0172 61        		.byte	97
 2007 0173 62        		.byte	98
 2008 0174 63        		.byte	99
 2009 0175 64        		.byte	100
 2010 0176 65        		.byte	101
 2011 0177 66        		.byte	102
 2012 0178 67        		.byte	103
 2013 0179 68        		.byte	104
 2014 017a 69        		.byte	105
 2015 017b 6A        		.byte	106
 2016 017c 6B        		.byte	107
 2017 017d 6C        		.byte	108
 2018 017e 6D        		.byte	109
 2019 017f 6E        		.byte	110
 2020 0180 6F        		.byte	111
 2021 0181 70        		.byte	112
 2022 0182 71        		.byte	113
 2023 0183 72        		.byte	114
 2024 0184 73        		.byte	115
 2025 0185 74        		.byte	116
 2026 0186 75        		.byte	117
 2027 0187 76        		.byte	118
 2028 0188 77        		.byte	119
 2029 0189 78        		.byte	120
 2030 018a 79        		.byte	121
 2031 018b 7A        		.byte	122
 2032 018c E4        		.byte	-28
 2033 018d F6        		.byte	-10
 2034 018e F1        		.byte	-15
 2035 018f FC        		.byte	-4
 2036 0190 E0        		.byte	-32
 2037               		.text
 2038               	.Letext0:
 2039               		.file 2 "narzedzia.h"
 2040               		.file 3 "/opt/homebrew/Cellar/avr-gcc@8/8.5.0_3/avr/include/stdint.h"