   1               		.file	"konfiguracja.c"
   2               	__SP_H__ = 0x3e
   3               	__SP_L__ = 0x3d
   4               	__SREG__ = 0x3f
   5               	__tmp_reg__ = 0
   6               	__zero_reg__ = 1
   7               		.text
   8               	.Ltext0:
   9               		.cfi_sections	.debug_frame
  10               	.global	konwersja_znaku_telefonu
  12               	konwersja_znaku_telefonu:
  13               	.LVL0:
  14               	.LFB5:
  15               		.file 1 "konfiguracja.c"
   1:konfiguracja.c **** 
   2:konfiguracja.c **** #include "konfiguracja.h"
   3:konfiguracja.c **** #include <avr/io.h>
   4:konfiguracja.c **** #include <avr/pgmspace.h>
   5:konfiguracja.c **** #include <string.h>
   6:konfiguracja.c **** #include "zapiseeprom.h"
   7:konfiguracja.c **** 
   8:konfiguracja.c **** uchar konwersja_znaku_telefonu(const uchar znak)
   9:konfiguracja.c **** {
  16               		.loc 1 9 1 view -0
  17               		.cfi_startproc
  18               	/* prologue: function */
  19               	/* frame size = 0 */
  20               	/* stack size = 0 */
  21               	.L__stack_usage = 0
  10:konfiguracja.c **** 	switch ( znak )
  22               		.loc 1 10 2 view .LVU1
  23 0000 8B32      		cpi r24,lo8(43)
  24 0002 01F0      		breq .L4
  25 0004 00F4      		brsh .L3
  26 0006 8332      		cpi r24,lo8(35)
  27 0008 01F0      		breq .L5
  28 000a 8A32      		cpi r24,lo8(42)
  29 000c 01F0      		breq .L6
  30               	.LVL1:
  31               	.L7:
  11:konfiguracja.c **** 	{
  12:konfiguracja.c **** 	case '0': case '1': case '2': case '3': case '4': 
  13:konfiguracja.c **** 	case '5': case '6': case '7': case '8': case '9':
  14:konfiguracja.c **** 		return znak - '0';
  15:konfiguracja.c **** 	case '+': return ZNAK_NUMERU_TELEFONU_PLUS;
  16:konfiguracja.c **** 	case '*': return ZNAK_NUMERU_TELEFONU_GWIAZDKA;
  17:konfiguracja.c **** 	case '#': return ZNAK_NUMERU_TELEFONU_KRZYZ;
  18:konfiguracja.c **** 	default: return ZNAK_NUMERU_TELEFONU_NIEZNANY;
  32               		.loc 1 18 18 is_stmt 0 view .LVU2
  33 000e 8DE0      		ldi r24,lo8(13)
  34               	/* epilogue start */
  19:konfiguracja.c **** 	}
  20:konfiguracja.c **** }
  35               		.loc 1 20 1 view .LVU3
  36 0010 0895      		ret
  37               	.LVL2:
  38               	.L3:
  10:konfiguracja.c **** 	{
  39               		.loc 1 10 2 view .LVU4
  40 0012 8053      		subi r24,lo8(-(-48))
  41               	.LVL3:
  10:konfiguracja.c **** 	{
  42               		.loc 1 10 2 view .LVU5
  43 0014 8A30      		cpi r24,lo8(10)
  44 0016 00F4      		brsh .L7
  14:konfiguracja.c **** 	case '+': return ZNAK_NUMERU_TELEFONU_PLUS;
  45               		.loc 1 14 3 is_stmt 1 view .LVU6
  14:konfiguracja.c **** 	case '+': return ZNAK_NUMERU_TELEFONU_PLUS;
  46               		.loc 1 14 15 is_stmt 0 view .LVU7
  47 0018 0895      		ret
  48               	.LVL4:
  49               	.L4:
  15:konfiguracja.c **** 	case '*': return ZNAK_NUMERU_TELEFONU_GWIAZDKA;
  50               		.loc 1 15 19 view .LVU8
  51 001a 8AE0      		ldi r24,lo8(10)
  52               	.LVL5:
  15:konfiguracja.c **** 	case '*': return ZNAK_NUMERU_TELEFONU_GWIAZDKA;
  53               		.loc 1 15 19 view .LVU9
  54 001c 0895      		ret
  55               	.LVL6:
  56               	.L5:
  17:konfiguracja.c **** 	default: return ZNAK_NUMERU_TELEFONU_NIEZNANY;
  57               		.loc 1 17 19 view .LVU10
  58 001e 8CE0      		ldi r24,lo8(12)
  59               	.LVL7:
  17:konfiguracja.c **** 	default: return ZNAK_NUMERU_TELEFONU_NIEZNANY;
  60               		.loc 1 17 19 view .LVU11
  61 0020 0895      		ret
  62               	.LVL8:
  63               	.L6:
  16:konfiguracja.c **** 	case '#': return ZNAK_NUMERU_TELEFONU_KRZYZ;
  64               		.loc 1 16 19 view .LVU12
  65 0022 8BE0      		ldi r24,lo8(11)
  66               	.LVL9:
  16:konfiguracja.c **** 	case '#': return ZNAK_NUMERU_TELEFONU_KRZYZ;
  67               		.loc 1 16 19 view .LVU13
  68 0024 0895      		ret
  69               		.cfi_endproc
  70               	.LFE5:
  72               	.global	konwertuj_telefon_na_blok_eeprom
  74               	konwertuj_telefon_na_blok_eeprom:
  75               	.LVL10:
  76               	.LFB6:
  21:konfiguracja.c **** 
  22:konfiguracja.c **** void konwertuj_telefon_na_blok_eeprom(const uchar* telefon_ptr_begin,
  23:konfiguracja.c **** 	const uchar* telefon_ptr_end, uchar* blok_ptr)
  24:konfiguracja.c **** {
  77               		.loc 1 24 1 is_stmt 1 view -0
  78               		.cfi_startproc
  79               		.loc 1 24 1 is_stmt 0 view .LVU15
  80 0026 AF92      		push r10
  81               	.LCFI0:
  82               		.cfi_def_cfa_offset 3
  83               		.cfi_offset 10, -2
  84 0028 BF92      		push r11
  85               	.LCFI1:
  86               		.cfi_def_cfa_offset 4
  87               		.cfi_offset 11, -3
  88 002a CF92      		push r12
  89               	.LCFI2:
  90               		.cfi_def_cfa_offset 5
  91               		.cfi_offset 12, -4
  92 002c DF92      		push r13
  93               	.LCFI3:
  94               		.cfi_def_cfa_offset 6
  95               		.cfi_offset 13, -5
  96 002e FF92      		push r15
  97               	.LCFI4:
  98               		.cfi_def_cfa_offset 7
  99               		.cfi_offset 15, -6
 100 0030 0F93      		push r16
 101               	.LCFI5:
 102               		.cfi_def_cfa_offset 8
 103               		.cfi_offset 16, -7
 104 0032 1F93      		push r17
 105               	.LCFI6:
 106               		.cfi_def_cfa_offset 9
 107               		.cfi_offset 17, -8
 108 0034 CF93      		push r28
 109               	.LCFI7:
 110               		.cfi_def_cfa_offset 10
 111               		.cfi_offset 28, -9
 112 0036 DF93      		push r29
 113               	.LCFI8:
 114               		.cfi_def_cfa_offset 11
 115               		.cfi_offset 29, -10
 116               	/* prologue: function */
 117               	/* frame size = 0 */
 118               	/* stack size = 9 */
 119               	.L__stack_usage = 9
 120 0038 182F      		mov r17,r24
 121 003a EB01      		movw r28,r22
 122 003c 6A01      		movw r12,r20
  25:konfiguracja.c **** 	memset(blok_ptr, 0xff, LICZBA_BAJTOW_NUMERU_TELEFONU_W_EEPROM);
 123               		.loc 1 25 2 is_stmt 1 view .LVU16
 124 003e 45E0      		ldi r20,lo8(5)
 125 0040 50E0      		ldi r21,0
 126               	.LVL11:
 127               		.loc 1 25 2 is_stmt 0 view .LVU17
 128 0042 6FEF      		ldi r22,lo8(-1)
 129 0044 70E0      		ldi r23,0
 130               	.LVL12:
 131               		.loc 1 25 2 view .LVU18
 132 0046 C601      		movw r24,r12
 133               	.LVL13:
 134               		.loc 1 25 2 view .LVU19
 135 0048 0E94 0000 		call memset
 136               	.LVL14:
  26:konfiguracja.c **** 	uchar l = telefon_ptr_end - telefon_ptr_begin;
 137               		.loc 1 26 2 is_stmt 1 view .LVU20
 138               		.loc 1 26 8 is_stmt 0 view .LVU21
 139 004c 8C2F      		mov r24,r28
 140 004e 811B      		sub r24,r17
 141 0050 182F      		mov r17,r24
 142               	.LVL15:
  27:konfiguracja.c **** 	if ( l < 2 )
 143               		.loc 1 27 2 is_stmt 1 view .LVU22
  28:konfiguracja.c **** 		return;
  29:konfiguracja.c **** 	uchar pos_buf = 0;
  30:konfiguracja.c **** 	telefon_ptr_end--;
 144               		.loc 1 30 17 is_stmt 0 view .LVU23
 145 0052 2197      		sbiw r28,1
 146               	.LVL16:
  31:konfiguracja.c **** 	while ( l-- )
 147               		.loc 1 31 2 is_stmt 1 view .LVU24
 148               		.loc 1 31 8 view .LVU25
  29:konfiguracja.c **** 	telefon_ptr_end--;
 149               		.loc 1 29 8 is_stmt 0 view .LVU26
 150 0054 00E0      		ldi r16,0
  27:konfiguracja.c **** 		return;
 151               		.loc 1 27 5 view .LVU27
 152 0056 8230      		cpi r24,lo8(2)
 153 0058 00F4      		brsh .L12
 154               	.LVL17:
 155               	.L8:
 156               	/* epilogue start */
  32:konfiguracja.c **** 	{
  33:konfiguracja.c **** 		uchar s1 = konwersja_znaku_telefonu(*telefon_ptr_end--);
  34:konfiguracja.c **** 		s1 <<= 4;
  35:konfiguracja.c **** 		s1 |= konwersja_znaku_telefonu(*telefon_ptr_end);
  36:konfiguracja.c **** 		if ( l == 0 )
  37:konfiguracja.c **** 			s1 |= 0x0f;
  38:konfiguracja.c **** 		else
  39:konfiguracja.c **** 			--telefon_ptr_end, --l;
  40:konfiguracja.c **** 		blok_ptr[pos_buf++] = s1;
  41:konfiguracja.c **** 	}
  42:konfiguracja.c **** }
 157               		.loc 1 42 1 view .LVU28
 158 005a DF91      		pop r29
 159 005c CF91      		pop r28
 160               	.LVL18:
 161               		.loc 1 42 1 view .LVU29
 162 005e 1F91      		pop r17
 163 0060 0F91      		pop r16
 164 0062 FF90      		pop r15
 165 0064 DF90      		pop r13
 166 0066 CF90      		pop r12
 167               	.LVL19:
 168               		.loc 1 42 1 view .LVU30
 169 0068 BF90      		pop r11
 170 006a AF90      		pop r10
 171 006c 0895      		ret
 172               	.LVL20:
 173               	.L13:
 174               	.LBB12:
  40:konfiguracja.c **** 	}
 175               		.loc 1 40 19 view .LVU31
 176 006e 092F      		mov r16,r25
 177               	.LVL21:
 178               	.L12:
  33:konfiguracja.c **** 		s1 <<= 4;
 179               		.loc 1 33 3 is_stmt 1 view .LVU32
  33:konfiguracja.c **** 		s1 <<= 4;
 180               		.loc 1 33 14 is_stmt 0 view .LVU33
 181 0070 8881      		ld r24,Y
 182 0072 0E94 0000 		call konwersja_znaku_telefonu
 183               	.LVL22:
  34:konfiguracja.c **** 		s1 |= konwersja_znaku_telefonu(*telefon_ptr_end);
 184               		.loc 1 34 3 is_stmt 1 view .LVU34
  34:konfiguracja.c **** 		s1 |= konwersja_znaku_telefonu(*telefon_ptr_end);
 185               		.loc 1 34 6 is_stmt 0 view .LVU35
 186 0076 F82E      		mov r15,r24
 187 0078 F294      		swap r15
 188 007a 80EF      		ldi r24,lo8(-16)
 189               	.LVL23:
  34:konfiguracja.c **** 		s1 |= konwersja_znaku_telefonu(*telefon_ptr_end);
 190               		.loc 1 34 6 view .LVU36
 191 007c F822      		and r15,r24
 192               	.LVL24:
  35:konfiguracja.c **** 		if ( l == 0 )
 193               		.loc 1 35 3 is_stmt 1 view .LVU37
  35:konfiguracja.c **** 		if ( l == 0 )
 194               		.loc 1 35 9 is_stmt 0 view .LVU38
 195 007e FE01      		movw r30,r28
 196 0080 8291      		ld r24,-Z
 197               	.LVL25:
  35:konfiguracja.c **** 		if ( l == 0 )
 198               		.loc 1 35 9 view .LVU39
 199 0082 5F01      		movw r10,r30
 200 0084 0E94 0000 		call konwersja_znaku_telefonu
 201               	.LVL26:
  35:konfiguracja.c **** 		if ( l == 0 )
 202               		.loc 1 35 6 view .LVU40
 203 0088 8F29      		or r24,r15
 204               	.LVL27:
  36:konfiguracja.c **** 			s1 |= 0x0f;
 205               		.loc 1 36 3 is_stmt 1 view .LVU41
  36:konfiguracja.c **** 			s1 |= 0x0f;
 206               		.loc 1 36 6 is_stmt 0 view .LVU42
 207 008a 1130      		cpi r17,lo8(1)
 208 008c 01F4      		brne .L10
  33:konfiguracja.c **** 		s1 <<= 4;
 209               		.loc 1 33 55 view .LVU43
 210 008e E501      		movw r28,r10
  37:konfiguracja.c **** 		else
 211               		.loc 1 37 4 is_stmt 1 view .LVU44
  37:konfiguracja.c **** 		else
 212               		.loc 1 37 7 is_stmt 0 view .LVU45
 213 0090 8F60      		ori r24,lo8(15)
 214               	.LVL28:
  37:konfiguracja.c **** 		else
 215               		.loc 1 37 7 view .LVU46
 216               	.LBE12:
  31:konfiguracja.c **** 	{
 217               		.loc 1 31 11 view .LVU47
 218 0092 10E0      		ldi r17,0
 219               	.LVL29:
 220               	.L11:
 221               	.LBB13:
  40:konfiguracja.c **** 	}
 222               		.loc 1 40 3 is_stmt 1 view .LVU48
  40:konfiguracja.c **** 	}
 223               		.loc 1 40 19 is_stmt 0 view .LVU49
 224 0094 91E0      		ldi r25,lo8(1)
 225 0096 900F      		add r25,r16
 226               	.LVL30:
  40:konfiguracja.c **** 	}
 227               		.loc 1 40 23 view .LVU50
 228 0098 F601      		movw r30,r12
 229 009a E00F      		add r30,r16
 230 009c F11D      		adc r31,__zero_reg__
 231 009e 8083      		st Z,r24
  40:konfiguracja.c **** 	}
 232               		.loc 1 40 23 view .LVU51
 233               	.LBE13:
  31:konfiguracja.c **** 	{
 234               		.loc 1 31 8 is_stmt 1 view .LVU52
 235               	.LVL31:
  31:konfiguracja.c **** 	{
 236               		.loc 1 31 8 is_stmt 0 view .LVU53
 237 00a0 1111      		cpse r17,__zero_reg__
 238 00a2 00C0      		rjmp .L13
  31:konfiguracja.c **** 	{
 239               		.loc 1 31 8 view .LVU54
 240 00a4 00C0      		rjmp .L8
 241               	.LVL32:
 242               	.L10:
 243               	.LBB14:
  39:konfiguracja.c **** 		blok_ptr[pos_buf++] = s1;
 244               		.loc 1 39 4 is_stmt 1 view .LVU55
 245 00a6 2297      		sbiw r28,2
 246               	.LVL33:
  39:konfiguracja.c **** 		blok_ptr[pos_buf++] = s1;
 247               		.loc 1 39 23 is_stmt 0 view .LVU56
 248 00a8 1250      		subi r17,lo8(-(-2))
 249               	.LVL34:
  39:konfiguracja.c **** 		blok_ptr[pos_buf++] = s1;
 250               		.loc 1 39 23 view .LVU57
 251 00aa 00C0      		rjmp .L11
 252               	.LBE14:
 253               		.cfi_endproc
 254               	.LFE6:
 256               	.global	konwersja_znaku_telefonu_eeprom
 258               	konwersja_znaku_telefonu_eeprom:
 259               	.LVL35:
 260               	.LFB7:
  43:konfiguracja.c **** 
  44:konfiguracja.c **** uchar konwersja_znaku_telefonu_eeprom(const uchar wartosc)
  45:konfiguracja.c **** {
 261               		.loc 1 45 1 is_stmt 1 view -0
 262               		.cfi_startproc
 263               	/* prologue: function */
 264               	/* frame size = 0 */
 265               	/* stack size = 0 */
 266               	.L__stack_usage = 0
  46:konfiguracja.c **** 	static const uchar znaki[16] PROGMEM = 
 267               		.loc 1 46 2 view .LVU59
  47:konfiguracja.c **** 	{ '0', '1', '2', '3', '4', '5', '6', '7', '8', '9', '+', '*', '#', '!', '!', '\0' };
  48:konfiguracja.c **** 	return pgm_read_byte(znaki + wartosc);
 268               		.loc 1 48 2 view .LVU60
 269               	.LBB15:
 270               		.loc 1 48 9 view .LVU61
 271               		.loc 1 48 9 view .LVU62
 272               		.loc 1 48 9 view .LVU63
 273 00ac E82F      		mov r30,r24
 274 00ae F0E0      		ldi r31,0
 275 00b0 E050      		subi r30,lo8(-(znaki.2169))
 276 00b2 F040      		sbci r31,hi8(-(znaki.2169))
 277               	/* #APP */
 278               	 ;  48 "konfiguracja.c" 1
 279 00b4 8491      		lpm r24, Z
 280               		
 281               	 ;  0 "" 2
 282               	.LVL36:
 283               		.loc 1 48 9 view .LVU64
 284               	/* #NOAPP */
 285               	/* epilogue start */
 286               	.LBE15:
  49:konfiguracja.c **** }
 287               		.loc 1 49 1 is_stmt 0 view .LVU65
 288 00b6 0895      		ret
 289               		.cfi_endproc
 290               	.LFE7:
 292               	.global	konwertuj_blok_eeprom_na_telefon
 294               	konwertuj_blok_eeprom_na_telefon:
 295               	.LVL37:
 296               	.LFB8:
  50:konfiguracja.c **** 
  51:konfiguracja.c **** uchar konwertuj_blok_eeprom_na_telefon(const uchar* blok_ptr, uchar* telefon_ptr,
  52:konfiguracja.c **** 	const uchar max_liczba_znakow)	// nie dzia³a dobrze dla nieparzystych max_liczba_znakow
  53:konfiguracja.c **** {
 297               		.loc 1 53 1 is_stmt 1 view -0
 298               		.cfi_startproc
 299               		.loc 1 53 1 is_stmt 0 view .LVU67
 300 00b8 CF93      		push r28
 301               	.LCFI9:
 302               		.cfi_def_cfa_offset 3
 303               		.cfi_offset 28, -2
 304 00ba DF93      		push r29
 305               	.LCFI10:
 306               		.cfi_def_cfa_offset 4
 307               		.cfi_offset 29, -3
 308               	/* prologue: function */
 309               	/* frame size = 0 */
 310               	/* stack size = 2 */
 311               	.L__stack_usage = 2
 312 00bc 9C01      		movw r18,r24
 313 00be EB01      		movw r28,r22
  54:konfiguracja.c **** 	*telefon_ptr = '\0';
 314               		.loc 1 54 2 is_stmt 1 view .LVU68
 315               		.loc 1 54 15 is_stmt 0 view .LVU69
 316 00c0 1882      		st Y,__zero_reg__
  55:konfiguracja.c **** 	const uchar* ptr = blok_ptr;
 317               		.loc 1 55 2 is_stmt 1 view .LVU70
 318               	.LVL38:
  56:konfiguracja.c **** 	uchar i = 0;
 319               		.loc 1 56 2 view .LVU71
  57:konfiguracja.c **** 	while ( *ptr != 0xff && i < LICZBA_BAJTOW_NUMERU_TELEFONU_W_EEPROM )
 320               		.loc 1 57 2 view .LVU72
 321 00c2 BC01      		movw r22,r24
 322               	.LVL39:
  56:konfiguracja.c **** 	uchar i = 0;
 323               		.loc 1 56 8 is_stmt 0 view .LVU73
 324 00c4 80E0      		ldi r24,0
 325               	.LVL40:
 326               	.L16:
  56:konfiguracja.c **** 	uchar i = 0;
 327               		.loc 1 56 8 view .LVU74
 328 00c6 DB01      		movw r26,r22
 329               	.LVL41:
 330               		.loc 1 57 8 is_stmt 1 view .LVU75
 331 00c8 6F5F      		subi r22,-1
 332 00ca 7F4F      		sbci r23,-1
 333 00cc 9C91      		ld r25,X
 334 00ce 9F3F      		cpi r25,lo8(-1)
 335 00d0 01F0      		breq .L17
 336               		.loc 1 57 23 is_stmt 0 discriminator 1 view .LVU76
 337 00d2 8530      		cpi r24,lo8(5)
 338 00d4 01F0      		breq .+2
 339 00d6 00C0      		rjmp .L18
 340               	.L17:
  58:konfiguracja.c **** 		++ptr, ++i;
  59:konfiguracja.c **** 	if ( ptr == blok_ptr )
 341               		.loc 1 59 2 is_stmt 1 view .LVU77
 342               		.loc 1 59 5 is_stmt 0 view .LVU78
 343 00d8 A217      		cp r26,r18
 344 00da B307      		cpc r27,r19
 345 00dc 01F4      		brne .+2
 346 00de 00C0      		rjmp .L27
  60:konfiguracja.c **** 		return 0;
  61:konfiguracja.c **** 	--ptr;
 347               		.loc 1 61 2 is_stmt 1 view .LVU79
 348               	.LVL42:
  62:konfiguracja.c **** 	if ( i * 2 > max_liczba_znakow )
 349               		.loc 1 62 2 view .LVU80
 350               		.loc 1 62 13 is_stmt 0 view .LVU81
 351 00e0 642F      		mov r22,r20
 352 00e2 70E0      		ldi r23,0
 353               		.loc 1 62 9 view .LVU82
 354 00e4 90E0      		ldi r25,0
 355 00e6 880F      		lsl r24
 356 00e8 991F      		rol r25
 357               	.LVL43:
  61:konfiguracja.c **** 	if ( i * 2 > max_liczba_znakow )
 358               		.loc 1 61 2 view .LVU83
 359 00ea 1197      		sbiw r26,1
 360               	.LVL44:
 361               		.loc 1 62 5 view .LVU84
 362 00ec 6817      		cp r22,r24
 363 00ee 7907      		cpc r23,r25
 364 00f0 04F4      		brge .L21
  63:konfiguracja.c **** 		ptr = blok_ptr + (max_liczba_znakow - 1) / 2;
 365               		.loc 1 63 3 is_stmt 1 view .LVU85
 366               		.loc 1 63 44 is_stmt 0 view .LVU86
 367 00f2 DB01      		movw r26,r22
 368               	.LVL45:
 369               		.loc 1 63 44 view .LVU87
 370 00f4 1197      		sbiw r26,1
 371 00f6 B7FD      		sbrc r27,7
 372 00f8 DB01      		movw r26,r22
 373               	.L22:
 374 00fa B595      		asr r27
 375 00fc A795      		ror r26
 376               		.loc 1 63 7 view .LVU88
 377 00fe A20F      		add r26,r18
 378 0100 B31F      		adc r27,r19
 379               	.LVL46:
 380               	.L21:
  64:konfiguracja.c **** 	i = 0;
 381               		.loc 1 64 2 is_stmt 1 view .LVU89
  65:konfiguracja.c **** 	if ( /*(max_liczba_znakow & 0x01) != 0 */ (*ptr & 0x0f) == 0x0f &&
 382               		.loc 1 65 2 view .LVU90
 383               		.loc 1 65 45 is_stmt 0 view .LVU91
 384 0102 EC91      		ld r30,X
 385               		.loc 1 65 5 view .LVU92
 386 0104 8E2F      		mov r24,r30
 387 0106 8F70      		andi r24,lo8(15)
 388 0108 8F30      		cpi r24,lo8(15)
 389 010a 01F4      		brne .L28
 390               	.LVL47:
 391               	.LBB16:
 392               	.LBI16:
  44:konfiguracja.c **** {
 393               		.loc 1 44 7 is_stmt 1 discriminator 1 view .LVU93
 394               	.LBB17:
  46:konfiguracja.c **** 	{ '0', '1', '2', '3', '4', '5', '6', '7', '8', '9', '+', '*', '#', '!', '!', '\0' };
 395               		.loc 1 46 2 discriminator 1 view .LVU94
  48:konfiguracja.c **** }
 396               		.loc 1 48 2 discriminator 1 view .LVU95
 397               	.LBB18:
  48:konfiguracja.c **** }
 398               		.loc 1 48 9 discriminator 1 view .LVU96
  48:konfiguracja.c **** }
 399               		.loc 1 48 9 discriminator 1 view .LVU97
  48:konfiguracja.c **** }
 400               		.loc 1 48 9 discriminator 1 view .LVU98
 401               	.LBE18:
 402               	.LBE17:
 403               	.LBE16:
  66:konfiguracja.c **** 		(*telefon_ptr = konwersja_znaku_telefonu_eeprom((*ptr & 0xf0) >> 4)) != '\0' )
 404               		.loc 1 66 19 is_stmt 0 discriminator 1 view .LVU99
 405 010c E295      		swap r30
 406               	.LVL48:
 407               		.loc 1 66 19 discriminator 1 view .LVU100
 408 010e EF70      		andi r30,lo8(15)
 409               	.LBB21:
 410               	.LBB20:
 411               	.LBB19:
  48:konfiguracja.c **** }
 412               		.loc 1 48 9 discriminator 1 view .LVU101
 413 0110 F0E0      		ldi r31,0
 414 0112 E050      		subi r30,lo8(-(znaki.2169))
 415 0114 F040      		sbci r31,hi8(-(znaki.2169))
 416               	/* #APP */
 417               	 ;  48 "konfiguracja.c" 1
 418 0116 8491      		lpm r24, Z
 419               		
 420               	 ;  0 "" 2
 421               	.LVL49:
  48:konfiguracja.c **** }
 422               		.loc 1 48 9 is_stmt 1 discriminator 1 view .LVU102
  48:konfiguracja.c **** }
 423               		.loc 1 48 9 is_stmt 0 discriminator 1 view .LVU103
 424               	/* #NOAPP */
 425               	.LBE19:
 426               	.LBE20:
 427               	.LBE21:
 428               		.loc 1 66 17 discriminator 1 view .LVU104
 429 0118 8883      		st Y,r24
  65:konfiguracja.c **** 		(*telefon_ptr = konwersja_znaku_telefonu_eeprom((*ptr & 0xf0) >> 4)) != '\0' )
 430               		.loc 1 65 66 discriminator 1 view .LVU105
 431 011a 8823      		tst r24
 432 011c 01F0      		breq .L23
  67:konfiguracja.c **** 		telefon_ptr++, ++i, --ptr;
 433               		.loc 1 67 3 is_stmt 1 view .LVU106
 434               		.loc 1 67 14 is_stmt 0 view .LVU107
 435 011e 2196      		adiw r28,1
 436               	.LVL50:
 437               		.loc 1 67 23 view .LVU108
 438 0120 1197      		sbiw r26,1
 439               	.LVL51:
 440               		.loc 1 67 18 view .LVU109
 441 0122 81E0      		ldi r24,lo8(1)
 442               	.LVL52:
 443               	.L23:
 444               		.loc 1 67 18 view .LVU110
 445 0124 1196      		adiw r26,1
 446               	.LVL53:
 447               	.L26:
  68:konfiguracja.c **** 	do
 448               		.loc 1 68 2 is_stmt 1 view .LVU111
  69:konfiguracja.c **** 	{
  70:konfiguracja.c **** 		if ( ptr < blok_ptr )
 449               		.loc 1 70 3 view .LVU112
 450               		.loc 1 70 6 is_stmt 0 view .LVU113
 451 0126 1197      		sbiw r26,1
 452               	.LVL54:
 453               		.loc 1 70 6 view .LVU114
 454 0128 A217      		cp r26,r18
 455 012a B307      		cpc r27,r19
 456 012c 00F0      		brlo .L24
  71:konfiguracja.c **** 			break;
  72:konfiguracja.c **** 		if ( (*telefon_ptr = konwersja_znaku_telefonu_eeprom((*ptr & 0x0f))) != '\0' )
 457               		.loc 1 72 3 is_stmt 1 view .LVU115
 458               	.LVL55:
 459               	.LBB22:
 460               	.LBI22:
  44:konfiguracja.c **** {
 461               		.loc 1 44 7 view .LVU116
 462               	.LBB23:
  46:konfiguracja.c **** 	{ '0', '1', '2', '3', '4', '5', '6', '7', '8', '9', '+', '*', '#', '!', '!', '\0' };
 463               		.loc 1 46 2 view .LVU117
  48:konfiguracja.c **** }
 464               		.loc 1 48 2 view .LVU118
 465               	.LBB24:
  48:konfiguracja.c **** }
 466               		.loc 1 48 9 view .LVU119
  48:konfiguracja.c **** }
 467               		.loc 1 48 9 view .LVU120
  48:konfiguracja.c **** }
 468               		.loc 1 48 9 view .LVU121
 469               	.LBE24:
 470               	.LBE23:
 471               	.LBE22:
 472               		.loc 1 72 24 is_stmt 0 view .LVU122
 473 012e EC91      		ld r30,X
 474 0130 EF70      		andi r30,lo8(15)
 475               	.LBB27:
 476               	.LBB26:
 477               	.LBB25:
  48:konfiguracja.c **** }
 478               		.loc 1 48 9 view .LVU123
 479 0132 F0E0      		ldi r31,0
 480 0134 E050      		subi r30,lo8(-(znaki.2169))
 481 0136 F040      		sbci r31,hi8(-(znaki.2169))
 482               	/* #APP */
 483               	 ;  48 "konfiguracja.c" 1
 484 0138 E491      		lpm r30, Z
 485               		
 486               	 ;  0 "" 2
 487               	.LVL56:
  48:konfiguracja.c **** }
 488               		.loc 1 48 9 is_stmt 1 view .LVU124
  48:konfiguracja.c **** }
 489               		.loc 1 48 9 is_stmt 0 view .LVU125
 490               	/* #NOAPP */
 491               	.LBE25:
 492               	.LBE26:
 493               	.LBE27:
 494               		.loc 1 72 22 view .LVU126
 495 013a E883      		st Y,r30
 496               		.loc 1 72 6 view .LVU127
 497 013c EE23      		tst r30
 498 013e 01F0      		breq .L25
  73:konfiguracja.c **** 			++telefon_ptr, ++i;
 499               		.loc 1 73 4 is_stmt 1 view .LVU128
 500 0140 2196      		adiw r28,1
 501               	.LVL57:
 502               		.loc 1 73 19 is_stmt 0 view .LVU129
 503 0142 8F5F      		subi r24,lo8(-(1))
 504               	.LVL58:
 505               	.L25:
  74:konfiguracja.c **** 		if ( i == max_liczba_znakow )
 506               		.loc 1 74 3 is_stmt 1 view .LVU130
 507               		.loc 1 74 6 is_stmt 0 view .LVU131
 508 0144 8417      		cp r24,r20
 509 0146 01F0      		breq .L24
  75:konfiguracja.c **** 			break;
  76:konfiguracja.c **** 		*telefon_ptr++ = konwersja_znaku_telefonu_eeprom((*ptr & 0xf0) >> 4);
 510               		.loc 1 76 3 is_stmt 1 view .LVU132
 511               	.LVL59:
 512               	.LBB28:
 513               	.LBI28:
  44:konfiguracja.c **** {
 514               		.loc 1 44 7 view .LVU133
 515               	.LBB29:
  46:konfiguracja.c **** 	{ '0', '1', '2', '3', '4', '5', '6', '7', '8', '9', '+', '*', '#', '!', '!', '\0' };
 516               		.loc 1 46 2 view .LVU134
  48:konfiguracja.c **** }
 517               		.loc 1 48 2 view .LVU135
 518               	.LBB30:
  48:konfiguracja.c **** }
 519               		.loc 1 48 9 view .LVU136
  48:konfiguracja.c **** }
 520               		.loc 1 48 9 view .LVU137
  48:konfiguracja.c **** }
 521               		.loc 1 48 9 view .LVU138
 522               	.LBE30:
 523               	.LBE29:
 524               	.LBE28:
 525               		.loc 1 76 20 is_stmt 0 view .LVU139
 526 0148 EC91      		ld r30,X
 527 014a E295      		swap r30
 528 014c EF70      		andi r30,lo8(15)
 529               	.LBB33:
 530               	.LBB32:
 531               	.LBB31:
  48:konfiguracja.c **** }
 532               		.loc 1 48 9 view .LVU140
 533 014e F0E0      		ldi r31,0
 534 0150 E050      		subi r30,lo8(-(znaki.2169))
 535 0152 F040      		sbci r31,hi8(-(znaki.2169))
 536               	/* #APP */
 537               	 ;  48 "konfiguracja.c" 1
 538 0154 E491      		lpm r30, Z
 539               		
 540               	 ;  0 "" 2
 541               	.LVL60:
  48:konfiguracja.c **** }
 542               		.loc 1 48 9 is_stmt 1 view .LVU141
  48:konfiguracja.c **** }
 543               		.loc 1 48 9 is_stmt 0 view .LVU142
 544               	/* #NOAPP */
 545               	.LBE31:
 546               	.LBE32:
 547               	.LBE33:
 548               		.loc 1 76 18 view .LVU143
 549 0156 E993      		st Y+,r30
 550               	.LVL61:
  77:konfiguracja.c **** 		if ( ++i == max_liczba_znakow )
 551               		.loc 1 77 3 is_stmt 1 view .LVU144
 552               		.loc 1 77 6 is_stmt 0 view .LVU145
 553 0158 8F5F      		subi r24,lo8(-(1))
 554               	.LVL62:
 555               		.loc 1 77 6 view .LVU146
 556 015a 4817      		cp r20,r24
 557 015c 01F0      		breq .L24
  78:konfiguracja.c **** 			break;
  79:konfiguracja.c **** 	} while ( ptr-- != blok_ptr );
 558               		.loc 1 79 10 is_stmt 1 view .LVU147
 559               		.loc 1 79 2 is_stmt 0 view .LVU148
 560 015e 2A17      		cp r18,r26
 561 0160 3B07      		cpc r19,r27
 562 0162 01F4      		brne .L26
 563               	.LVL63:
 564               	.L24:
  80:konfiguracja.c **** 	*telefon_ptr = '\0';
 565               		.loc 1 80 2 is_stmt 1 view .LVU149
 566               		.loc 1 80 15 is_stmt 0 view .LVU150
 567 0164 1882      		st Y,__zero_reg__
  81:konfiguracja.c **** 	return i;
 568               		.loc 1 81 2 is_stmt 1 view .LVU151
 569               	.LVL64:
 570               	.L15:
 571               	/* epilogue start */
  82:konfiguracja.c **** }
 572               		.loc 1 82 1 is_stmt 0 view .LVU152
 573 0166 DF91      		pop r29
 574 0168 CF91      		pop r28
 575               	.LVL65:
 576               		.loc 1 82 1 view .LVU153
 577 016a 0895      		ret
 578               	.LVL66:
 579               	.L18:
  58:konfiguracja.c **** 	if ( ptr == blok_ptr )
 580               		.loc 1 58 3 is_stmt 1 view .LVU154
  58:konfiguracja.c **** 	if ( ptr == blok_ptr )
 581               		.loc 1 58 10 is_stmt 0 view .LVU155
 582 016c 8F5F      		subi r24,lo8(-(1))
 583               	.LVL67:
  58:konfiguracja.c **** 	if ( ptr == blok_ptr )
 584               		.loc 1 58 10 view .LVU156
 585 016e 00C0      		rjmp .L16
 586               	.LVL68:
 587               	.L28:
  64:konfiguracja.c **** 	if ( /*(max_liczba_znakow & 0x01) != 0 */ (*ptr & 0x0f) == 0x0f &&
 588               		.loc 1 64 4 view .LVU157
 589 0170 80E0      		ldi r24,0
 590 0172 00C0      		rjmp .L23
 591               	.LVL69:
 592               	.L27:
  60:konfiguracja.c **** 	--ptr;
 593               		.loc 1 60 10 view .LVU158
 594 0174 80E0      		ldi r24,0
 595               	.LVL70:
  60:konfiguracja.c **** 	--ptr;
 596               		.loc 1 60 10 view .LVU159
 597 0176 00C0      		rjmp .L15
 598               		.cfi_endproc
 599               	.LFE8:
 601               	.global	kopiuj_blok_eeprom_na_telefon
 603               	kopiuj_blok_eeprom_na_telefon:
 604               	.LVL71:
 605               	.LFB9:
  83:konfiguracja.c **** 
  84:konfiguracja.c **** uchar kopiuj_blok_eeprom_na_telefon(const void* eeprom_ptr, uchar* telefon_ptr,
  85:konfiguracja.c **** 	const uchar max_liczba_znakow)	// nie dzia³a dobrze dla nieparzystych max_liczba_znakow
  86:konfiguracja.c **** {
 606               		.loc 1 86 1 is_stmt 1 view -0
 607               		.cfi_startproc
 608               		.loc 1 86 1 is_stmt 0 view .LVU161
 609 0178 FF92      		push r15
 610               	.LCFI11:
 611               		.cfi_def_cfa_offset 3
 612               		.cfi_offset 15, -2
 613 017a 0F93      		push r16
 614               	.LCFI12:
 615               		.cfi_def_cfa_offset 4
 616               		.cfi_offset 16, -3
 617 017c 1F93      		push r17
 618               	.LCFI13:
 619               		.cfi_def_cfa_offset 5
 620               		.cfi_offset 17, -4
 621 017e CF93      		push r28
 622               	.LCFI14:
 623               		.cfi_def_cfa_offset 6
 624               		.cfi_offset 28, -5
 625 0180 DF93      		push r29
 626               	.LCFI15:
 627               		.cfi_def_cfa_offset 7
 628               		.cfi_offset 29, -6
 629 0182 00D0      		rcall .
 630 0184 00D0      		rcall .
 631 0186 0F92      		push __tmp_reg__
 632               	.LCFI16:
 633               		.cfi_def_cfa_offset 12
 634 0188 CDB7      		in r28,__SP_L__
 635 018a DEB7      		in r29,__SP_H__
 636               	.LCFI17:
 637               		.cfi_def_cfa_register 28
 638               	/* prologue: function */
 639               	/* frame size = 5 */
 640               	/* stack size = 10 */
 641               	.L__stack_usage = 10
 642 018c 8B01      		movw r16,r22
 643 018e F42E      		mov r15,r20
  87:konfiguracja.c **** 	uchar buf[LICZBA_BAJTOW_NUMERU_TELEFONU_W_EEPROM];
 644               		.loc 1 87 2 is_stmt 1 view .LVU162
  88:konfiguracja.c **** 	memcpy_E(buf, eeprom_ptr, LICZBA_BAJTOW_NUMERU_TELEFONU_W_EEPROM);
 645               		.loc 1 88 2 view .LVU163
 646 0190 45E0      		ldi r20,lo8(5)
 647 0192 50E0      		ldi r21,0
 648               	.LVL72:
 649               		.loc 1 88 2 is_stmt 0 view .LVU164
 650 0194 BC01      		movw r22,r24
 651               	.LVL73:
 652               		.loc 1 88 2 view .LVU165
 653 0196 CE01      		movw r24,r28
 654               	.LVL74:
 655               		.loc 1 88 2 view .LVU166
 656 0198 0196      		adiw r24,1
 657 019a 0E94 0000 		call eeprom_read_block
 658               	.LVL75:
  89:konfiguracja.c **** 	return konwertuj_blok_eeprom_na_telefon(buf, telefon_ptr, max_liczba_znakow);
 659               		.loc 1 89 2 is_stmt 1 view .LVU167
 660               		.loc 1 89 9 is_stmt 0 view .LVU168
 661 019e 4F2D      		mov r20,r15
 662 01a0 B801      		movw r22,r16
 663 01a2 CE01      		movw r24,r28
 664 01a4 0196      		adiw r24,1
 665 01a6 0E94 0000 		call konwertuj_blok_eeprom_na_telefon
 666               	.LVL76:
 667               	/* epilogue start */
  90:konfiguracja.c **** }
 668               		.loc 1 90 1 view .LVU169
 669 01aa 0F90      		pop __tmp_reg__
 670 01ac 0F90      		pop __tmp_reg__
 671 01ae 0F90      		pop __tmp_reg__
 672 01b0 0F90      		pop __tmp_reg__
 673 01b2 0F90      		pop __tmp_reg__
 674 01b4 DF91      		pop r29
 675 01b6 CF91      		pop r28
 676 01b8 1F91      		pop r17
 677 01ba 0F91      		pop r16
 678               	.LVL77:
 679               		.loc 1 90 1 view .LVU170
 680 01bc FF90      		pop r15
 681               	.LVL78:
 682               		.loc 1 90 1 view .LVU171
 683 01be 0895      		ret
 684               		.cfi_endproc
 685               	.LFE9:
 687               	.global	porownaj_numer_telefonu_blok
 689               	porownaj_numer_telefonu_blok:
 690               	.LVL79:
 691               	.LFB10:
  91:konfiguracja.c **** 
  92:konfiguracja.c **** uchar porownaj_numer_telefonu_blok(const uchar* telefon_blok_ptr, const void* eeprom_ptr)
  93:konfiguracja.c **** {
 692               		.loc 1 93 1 is_stmt 1 view -0
 693               		.cfi_startproc
 694               		.loc 1 93 1 is_stmt 0 view .LVU173
 695 01c0 0F93      		push r16
 696               	.LCFI18:
 697               		.cfi_def_cfa_offset 3
 698               		.cfi_offset 16, -2
 699 01c2 1F93      		push r17
 700               	.LCFI19:
 701               		.cfi_def_cfa_offset 4
 702               		.cfi_offset 17, -3
 703 01c4 CF93      		push r28
 704               	.LCFI20:
 705               		.cfi_def_cfa_offset 5
 706               		.cfi_offset 28, -4
 707 01c6 DF93      		push r29
 708               	.LCFI21:
 709               		.cfi_def_cfa_offset 6
 710               		.cfi_offset 29, -5
 711               	/* prologue: function */
 712               	/* frame size = 0 */
 713               	/* stack size = 4 */
 714               	.L__stack_usage = 4
 715 01c8 EC01      		movw r28,r24
 716 01ca 8B01      		movw r16,r22
  94:konfiguracja.c **** 	if ( telefon_blok_ptr[0] == 0xff || eeprom_read_byte(eeprom_ptr) == 0xff )
 717               		.loc 1 94 2 is_stmt 1 view .LVU174
 718               		.loc 1 94 5 is_stmt 0 view .LVU175
 719 01cc 8881      		ld r24,Y
 720               	.LVL80:
 721               		.loc 1 94 5 view .LVU176
 722 01ce 8F3F      		cpi r24,lo8(-1)
 723 01d0 01F0      		breq .L63
 724               		.loc 1 94 38 discriminator 1 view .LVU177
 725 01d2 CB01      		movw r24,r22
 726 01d4 0E94 0000 		call eeprom_read_byte
 727               	.LVL81:
 728               		.loc 1 94 35 discriminator 1 view .LVU178
 729 01d8 8F3F      		cpi r24,lo8(-1)
 730 01da 01F0      		breq .L63
 731               	.LVL82:
 732               	.L46:
  95:konfiguracja.c **** 		return FALSE;
  96:konfiguracja.c **** 	while ( 1 )
 733               		.loc 1 96 2 is_stmt 1 view .LVU179
 734               	.LBB37:
 735               	.LBB38:
  97:konfiguracja.c **** 	{
  98:konfiguracja.c **** 		const uchar b = eeprom_read_byte(eeprom_ptr);
 736               		.loc 1 98 3 view .LVU180
 737               		.loc 1 98 19 is_stmt 0 view .LVU181
 738 01dc C801      		movw r24,r16
 739 01de 0E94 0000 		call eeprom_read_byte
 740               	.LVL83:
  99:konfiguracja.c **** 		uchar a = 0xf0;
 741               		.loc 1 99 3 is_stmt 1 view .LVU182
 100:konfiguracja.c **** 		uchar c = b & a;
 742               		.loc 1 100 3 view .LVU183
 743               		.loc 1 100 9 is_stmt 0 view .LVU184
 744 01e2 382F      		mov r19,r24
 745 01e4 307F      		andi r19,lo8(-16)
 746               	.LVL84:
 101:konfiguracja.c **** 		uchar d = *telefon_blok_ptr & a;
 747               		.loc 1 101 3 is_stmt 1 view .LVU185
 748               		.loc 1 101 13 is_stmt 0 view .LVU186
 749 01e6 9991      		ld r25,Y+
 750               		.loc 1 101 9 view .LVU187
 751 01e8 292F      		mov r18,r25
 752 01ea 207F      		andi r18,lo8(-16)
 753               	.LVL85:
 102:konfiguracja.c **** 		if ( c == a || d == a )
 754               		.loc 1 102 3 is_stmt 1 view .LVU188
 755               		.loc 1 102 6 is_stmt 0 view .LVU189
 756 01ec 303F      		cpi r19,lo8(-16)
 757 01ee 01F0      		breq .L41
 758               		.loc 1 102 15 view .LVU190
 759 01f0 203F      		cpi r18,lo8(-16)
 760 01f2 01F4      		brne .L42
 761               	.LVL86:
 762               	.L63:
 103:konfiguracja.c **** 			return (c == a && d == a);
 104:konfiguracja.c **** 		if ( c != d )
 105:konfiguracja.c **** 			return FALSE;
 106:konfiguracja.c **** 		a = 0x0f;
 107:konfiguracja.c **** 		c = b & a;
 108:konfiguracja.c **** 		d = *telefon_blok_ptr & a;
 109:konfiguracja.c **** 		if ( c == a || d == a )
 110:konfiguracja.c **** 			return (c == a && d == a);
 763               		.loc 1 110 19 view .LVU191
 764 01f4 80E0      		ldi r24,0
 765 01f6 00C0      		rjmp .L39
 766               	.LVL87:
 767               	.L42:
 104:konfiguracja.c **** 			return FALSE;
 768               		.loc 1 104 3 is_stmt 1 view .LVU192
 104:konfiguracja.c **** 			return FALSE;
 769               		.loc 1 104 6 is_stmt 0 view .LVU193
 770 01f8 3213      		cpse r19,r18
 771 01fa 00C0      		rjmp .L63
 106:konfiguracja.c **** 		c = b & a;
 772               		.loc 1 106 3 is_stmt 1 view .LVU194
 773               	.LVL88:
 107:konfiguracja.c **** 		d = *telefon_blok_ptr & a;
 774               		.loc 1 107 3 view .LVU195
 107:konfiguracja.c **** 		d = *telefon_blok_ptr & a;
 775               		.loc 1 107 5 is_stmt 0 view .LVU196
 776 01fc 8F70      		andi r24,lo8(15)
 777               	.LVL89:
 108:konfiguracja.c **** 		if ( c == a || d == a )
 778               		.loc 1 108 3 is_stmt 1 view .LVU197
 108:konfiguracja.c **** 		if ( c == a || d == a )
 779               		.loc 1 108 5 is_stmt 0 view .LVU198
 780 01fe 9F70      		andi r25,lo8(15)
 781               	.LVL90:
 109:konfiguracja.c **** 			return (c == a && d == a);
 782               		.loc 1 109 3 is_stmt 1 view .LVU199
 109:konfiguracja.c **** 			return (c == a && d == a);
 783               		.loc 1 109 6 is_stmt 0 view .LVU200
 784 0200 8F30      		cpi r24,lo8(15)
 785 0202 01F0      		breq .L44
 109:konfiguracja.c **** 			return (c == a && d == a);
 786               		.loc 1 109 15 view .LVU201
 787 0204 9F30      		cpi r25,lo8(15)
 788 0206 01F0      		breq .L63
 111:konfiguracja.c **** 		if ( c != d )
 789               		.loc 1 111 3 is_stmt 1 view .LVU202
 790               		.loc 1 111 6 is_stmt 0 view .LVU203
 791 0208 8913      		cpse r24,r25
 792 020a 00C0      		rjmp .L63
 112:konfiguracja.c **** 			return FALSE;
 113:konfiguracja.c **** 		++eeprom_ptr;
 793               		.loc 1 113 3 is_stmt 1 view .LVU204
 794 020c 0F5F      		subi r16,-1
 795 020e 1F4F      		sbci r17,-1
 796               	.LVL91:
 114:konfiguracja.c **** 		++telefon_blok_ptr;
 797               		.loc 1 114 3 view .LVU205
 798               		.loc 1 114 3 is_stmt 0 view .LVU206
 799               	.LBE38:
 800               	.LBE37:
  96:konfiguracja.c **** 	{
 801               		.loc 1 96 8 is_stmt 1 view .LVU207
 802 0210 00C0      		rjmp .L46
 803               	.LVL92:
 804               	.L41:
 805               	.LBB41:
 806               	.LBB39:
 103:konfiguracja.c **** 		if ( c != d )
 807               		.loc 1 103 4 view .LVU208
 103:konfiguracja.c **** 		if ( c != d )
 808               		.loc 1 103 19 is_stmt 0 view .LVU209
 809 0212 81E0      		ldi r24,lo8(1)
 810               	.LVL93:
 103:konfiguracja.c **** 		if ( c != d )
 811               		.loc 1 103 19 view .LVU210
 812 0214 203F      		cpi r18,lo8(-16)
 813 0216 01F4      		brne .L63
 814               	.LVL94:
 815               	.L39:
 816               	/* epilogue start */
 103:konfiguracja.c **** 		if ( c != d )
 817               		.loc 1 103 19 view .LVU211
 818               	.LBE39:
 819               	.LBE41:
 115:konfiguracja.c **** 	}
 116:konfiguracja.c **** }
 820               		.loc 1 116 1 view .LVU212
 821 0218 DF91      		pop r29
 822 021a CF91      		pop r28
 823 021c 1F91      		pop r17
 824 021e 0F91      		pop r16
 825 0220 0895      		ret
 826               	.LVL95:
 827               	.L44:
 828               	.LBB42:
 829               	.LBB40:
 110:konfiguracja.c **** 		if ( c != d )
 830               		.loc 1 110 4 is_stmt 1 view .LVU213
 110:konfiguracja.c **** 		if ( c != d )
 831               		.loc 1 110 19 is_stmt 0 view .LVU214
 832 0222 81E0      		ldi r24,lo8(1)
 833               	.LVL96:
 110:konfiguracja.c **** 		if ( c != d )
 834               		.loc 1 110 19 view .LVU215
 835 0224 9F30      		cpi r25,lo8(15)
 836 0226 01F4      		brne .L63
 837 0228 00C0      		rjmp .L39
 838               	.LBE40:
 839               	.LBE42:
 840               		.cfi_endproc
 841               	.LFE10:
 843               	.global	porownaj_numer_telefonu
 845               	porownaj_numer_telefonu:
 846               	.LVL97:
 847               	.LFB11:
 117:konfiguracja.c **** 
 118:konfiguracja.c **** uchar porownaj_numer_telefonu(const uchar* telefon_ptr, const void* eeprom_ptr)
 119:konfiguracja.c **** {
 848               		.loc 1 119 1 is_stmt 1 view -0
 849               		.cfi_startproc
 850               		.loc 1 119 1 is_stmt 0 view .LVU217
 851 022a 0F93      		push r16
 852               	.LCFI22:
 853               		.cfi_def_cfa_offset 3
 854               		.cfi_offset 16, -2
 855 022c 1F93      		push r17
 856               	.LCFI23:
 857               		.cfi_def_cfa_offset 4
 858               		.cfi_offset 17, -3
 859 022e CF93      		push r28
 860               	.LCFI24:
 861               		.cfi_def_cfa_offset 5
 862               		.cfi_offset 28, -4
 863 0230 DF93      		push r29
 864               	.LCFI25:
 865               		.cfi_def_cfa_offset 6
 866               		.cfi_offset 29, -5
 867 0232 00D0      		rcall .
 868 0234 00D0      		rcall .
 869 0236 0F92      		push __tmp_reg__
 870               	.LCFI26:
 871               		.cfi_def_cfa_offset 11
 872 0238 CDB7      		in r28,__SP_L__
 873 023a DEB7      		in r29,__SP_H__
 874               	.LCFI27:
 875               		.cfi_def_cfa_register 28
 876               	/* prologue: function */
 877               	/* frame size = 5 */
 878               	/* stack size = 9 */
 879               	.L__stack_usage = 9
 880 023c 8B01      		movw r16,r22
 120:konfiguracja.c **** 	uchar buf[LICZBA_BAJTOW_NUMERU_TELEFONU_W_EEPROM];
 881               		.loc 1 120 2 is_stmt 1 view .LVU218
 121:konfiguracja.c **** 	uchar l = strlen(telefon_ptr);
 882               		.loc 1 121 2 view .LVU219
 883               		.loc 1 121 12 is_stmt 0 view .LVU220
 884 023e FC01      		movw r30,r24
 885               		0:
 886 0240 0190      		ld __tmp_reg__,Z+
 887 0242 0020      		tst __tmp_reg__
 888 0244 01F4      		brne 0b
 889 0246 3197      		sbiw r30,1
 890 0248 BF01      		movw r22,r30
 891               	.LVL98:
 892               		.loc 1 121 12 view .LVU221
 893 024a 681B      		sub r22,r24
 894 024c 790B      		sbc r23,r25
 895               	.LVL99:
 122:konfiguracja.c **** 	konwertuj_telefon_na_blok_eeprom(telefon_ptr, telefon_ptr + l, buf);
 896               		.loc 1 122 2 is_stmt 1 view .LVU222
 897 024e 680F      		add r22,r24
 898 0250 792F      		mov r23,r25
 899 0252 711D      		adc r23,__zero_reg__
 900               	.LVL100:
 901               		.loc 1 122 2 is_stmt 0 view .LVU223
 902 0254 AE01      		movw r20,r28
 903 0256 4F5F      		subi r20,-1
 904 0258 5F4F      		sbci r21,-1
 905 025a 0E94 0000 		call konwertuj_telefon_na_blok_eeprom
 906               	.LVL101:
 123:konfiguracja.c **** 	return porownaj_numer_telefonu_blok(buf, eeprom_ptr);
 907               		.loc 1 123 2 is_stmt 1 view .LVU224
 908               		.loc 1 123 9 is_stmt 0 view .LVU225
 909 025e B801      		movw r22,r16
 910 0260 CE01      		movw r24,r28
 911 0262 0196      		adiw r24,1
 912 0264 0E94 0000 		call porownaj_numer_telefonu_blok
 913               	.LVL102:
 914               	/* epilogue start */
 124:konfiguracja.c **** }
 915               		.loc 1 124 1 view .LVU226
 916 0268 0F90      		pop __tmp_reg__
 917 026a 0F90      		pop __tmp_reg__
 918 026c 0F90      		pop __tmp_reg__
 919 026e 0F90      		pop __tmp_reg__
 920 0270 0F90      		pop __tmp_reg__
 921 0272 DF91      		pop r29
 922 0274 CF91      		pop r28
 923 0276 1F91      		pop r17
 924 0278 0F91      		pop r16
 925               	.LVL103:
 926               		.loc 1 124 1 view .LVU227
 927 027a 0895      		ret
 928               		.cfi_endproc
 929               	.LFE11:
 931               		.section	.progmem.data,"a",@progbits
 934               	znaki.2169:
 935 0000 30        		.byte	48
 936 0001 31        		.byte	49
 937 0002 32        		.byte	50
 938 0003 33        		.byte	51
 939 0004 34        		.byte	52
 940 0005 35        		.byte	53
 941 0006 36        		.byte	54
 942 0007 37        		.byte	55
 943 0008 38        		.byte	56
 944 0009 39        		.byte	57
 945 000a 2B        		.byte	43
 946 000b 2A        		.byte	42
 947 000c 23        		.byte	35
 948 000d 21        		.byte	33
 949 000e 21        		.byte	33
 950 000f 00        		.byte	0
 951               		.text
 952               	.Letext0:
 953               		.file 2 "narzedzia.h"
 954               		.file 3 "/opt/homebrew/Cellar/avr-gcc@8/8.5.0_3/lib/avr-gcc/8/gcc/avr/8.5.0/include/stddef.h"
 955               		.file 4 "/opt/homebrew/Cellar/avr-gcc@8/8.5.0_3/avr/include/stdint.h"
 956               		.file 5 "/opt/homebrew/Cellar/avr-gcc@8/8.5.0_3/avr/include/stdlib.h"
 957               		.file 6 "zapiseeprom.h"
 958               		.file 7 "eeprom_ext.h"
 959               		.file 8 "/opt/homebrew/Cellar/avr-gcc@8/8.5.0_3/avr/include/string.h"