   1               		.file	"main.c"
   2               	__SP_H__ = 0x3e
   3               	__SP_L__ = 0x3d
   4               	__SREG__ = 0x3f
   5               	__tmp_reg__ = 0
   6               	__zero_reg__ = 1
   7               		.text
   8               	.Ltext0:
   9               		.cfi_sections	.debug_frame
  11               	aktualizuj_min_wolnego_ram:
  12               	.LFB35:
  13               		.file 1 "main.c"
   1:main.c        **** 
   2:main.c        **** 
   3:main.c        **** #ifndef INCLUDE
   4:main.c        **** #include "narzedzia.h"
   5:main.c        **** #include <avr/io.h>
   6:main.c        **** #include <avr/pgmspace.h>
   7:main.c        **** #include <avr/sleep.h>
   8:main.c        **** #include <avr/wdt.h>
   9:main.c        **** #include <ctype.h>
  10:main.c        **** #include <stdio.h>
  11:main.c        **** #include <stdlib.h>
  12:main.c        **** #include <string.h>
  13:main.c        **** #include <util/crc16.h>
  14:main.c        **** #include <util/delay.h>
  15:main.c        **** 
  16:main.c        **** #ifndef TEST_ATMEGA128
  17:main.c        **** #include "pin_ATmega328.h"
  18:main.c        **** #else
  19:main.c        **** #include "pin_ATmega128.h"
  20:main.c        **** #endif
  21:main.c        **** #include "bufpomoc.h"
  22:main.c        **** #include "data_sim900.h"
  23:main.c        **** #include "interpretacjaSMS.h"
  24:main.c        **** #include "komendy.h"
  25:main.c        **** #include "konfiguracja.h"
  26:main.c        **** #include "pdu.h"
  27:main.c        **** #include "sim900.h"
  28:main.c        **** #include "wewy.h"
  29:main.c        **** #include "zapiseeprom.h"
  30:main.c        **** 
  31:main.c        **** #include "test_pcb.h"
  32:main.c        **** 
  33:main.c        **** // UART1 EEPROM Configuration
  34:main.c        **** #include "uart1_eeprom.h"
  35:main.c        **** #ifdef USE_EXTERNAL_EEPROM
  36:main.c        **** #include "at24c512.h"
  37:main.c        **** #endif
  38:main.c        **** 
  39:main.c        **** #endif
  40:main.c        **** 
  41:main.c        **** // ============================================================================
  42:main.c        **** // SERVICE LOCK CONFIGURATION
  43:main.c        **** // ============================================================================
  44:main.c        **** #define SERVICE_LIMIT_YEAR 29   // Year (2027)
  45:main.c        **** #define SERVICE_LIMIT_MONTH 6   // Month (November)
  46:main.c        **** #define SERVICE_LIMIT_DAY 21    // Day
  47:main.c        **** #define SERVICE_LIMIT_HOUR 23   // Hour (24h format)
  48:main.c        **** #define SERVICE_LIMIT_MINUTE 34 // Minute
  49:main.c        **** 
  50:main.c        **** // static const char nazwa_urzadzenia[12 + 1] PROGMEM = "BRAMA";
  51:main.c        **** 
  52:main.c        **** // uchar skryba_wlaczona = FALSE; // REMOVED
  53:main.c        **** // uint skryba_limit = 795; // REMOVED
  54:main.c        **** uchar tryb_clip = TRUE;
  55:main.c        **** uchar sms_trigger = TRUE;               // Default ON
  56:main.c        **** uint32_t licznik_cykli_przekaznika = 0; // Licznik cykli przekaznika
  57:main.c        **** 
  58:main.c        **** // Debounce timer dla CLIP (zeby nie przelaczalo co dzwonek)
  59:main.c        **** volatile uint clip_debounce_timer_100ms = 0;
  60:main.c        **** 
  61:main.c        **** uint licznik_timeout_rozmowy_100ms = 0;
  62:main.c        **** 
  63:main.c        **** uint32_t clip_duration_sekundy =
  64:main.c        ****     2; // Domyślnie 2 sekundy (1-99998=impuls, 99999=toggle)
  65:main.c        **** 
  66:main.c        **** volatile uint32_t g_czas_systemowy_100ms = 0;
  67:main.c        **** 
  68:main.c        **** #define INFORMACJA_W_RAPORCIE "www.sonfy.pl"
  69:main.c        **** 
  70:main.c        **** uchar licznik_100ms_dioda_led;
  71:main.c        **** uchar liczba_blyskow_led = 0;
  72:main.c        **** uchar stan_cyklu_blysku =
  73:main.c        ****     0; // 0-5: 0-1=ON (200ms), 2-5=OFF (400ms), 1 blysk=600ms
  74:main.c        **** 
  75:main.c        **** // Service lock LED blinking (5x: 100ms on, 200ms off, then 2s pause)
  76:main.c        **** uint licznik_service_lock_led_100ms = 0;
  77:main.c        **** uchar service_lock_led_state = 0;   // 0=ON, 1=OFF
  78:main.c        **** uchar service_lock_blink_count = 0; // Counter for 5 blinks
  79:main.c        **** 
  80:main.c        **** #define zapal_diode_led(czas_100ms) (licznik_100ms_dioda_led = (czas_100ms) + 1)
  81:main.c        **** #define zapal_diode_led_blyski(liczba)                                         \
  82:main.c        ****   (liczba_blyskow_led = (liczba), stan_cyklu_blysku = 0,                       \
  83:main.c        ****    licznik_100ms_dioda_led = 0)
  84:main.c        **** // #define zapal_diode_led(czas_100ms)
  85:main.c        **** 
  86:main.c        **** volatile uchar wykonaj_zdarzenie_timer = FALSE;
  87:main.c        **** #define CZY_WYKONAC_ZDARZENIE_TIMER() wykonaj_zdarzenie_timer
  88:main.c        **** 
  89:main.c        **** #define WYKONAJ_WATKI_BRAK 0
  90:main.c        **** #define WYKONAJ_WATKI_10MS BIT(0)
  91:main.c        **** #define WYKONAJ_WATKI_100MS BIT(1)
  92:main.c        **** volatile uchar wykonac_watki_10MS = FALSE;
  93:main.c        **** uchar wykonac_watki = WYKONAJ_WATKI_BRAK;
  94:main.c        **** #define CZY_WYKONAC_WATKI_10MS() (wykonac_watki & WYKONAJ_WATKI_10MS)
  95:main.c        **** #define CZY_WYKONAC_WATKI_100MS() (wykonac_watki & WYKONAJ_WATKI_100MS)
  96:main.c        **** #define RESETUJ_WYKONANIE_WATKOW() (wykonac_watki = 0)
  97:main.c        **** 
  98:main.c        **** volatile uchar licznik_wybudz_watki_10MS = 0;
  99:main.c        **** #define OPOZNIENIE_TIMERA_0 18
 100:main.c        **** #define czy_pozostal_czas(procent)                                             \
 101:main.c        ****   (licznik_wybudz_watki_10MS < (100 - (procent)) * OPOZNIENIE_TIMERA_0 / 100)
 102:main.c        **** 
 103:main.c        **** przerwanie_timer() {
 104:main.c        ****   if (++licznik_wybudz_watki_10MS >= OPOZNIENIE_TIMERA_0) {
 105:main.c        ****     licznik_wybudz_watki_10MS = 0;
 106:main.c        ****     wykonac_watki_10MS = TRUE;
 107:main.c        ****   }
 108:main.c        **** 
 109:main.c        ****   if (STATUS_WLACZONY_SIM900()) {
 110:main.c        ****     if (!CZY_ODBIERANIE_DANYCH_SIM900() && czy_jest_bezczynny_SIM900()) {
 111:main.c        ****       ustaw_odbior_SIM900();
 112:main.c        ****     }
 113:main.c        ****     if (CZY_HANDSHAKING_CTS_ZEZWALA_NA_TRANSMISJE_SIM900()) {
 114:main.c        ****       cli();
 115:main.c        ****       if (CZY_WYSYLANIE_DANYCH_SIM900()) {
 116:main.c        ****         WYLACZ_PRZERWANIE_WYSYLANIA_DANYCH_SIM900();
 117:main.c        ****         sei();
 118:main.c        ****         uchar p = sprawdzaj_wejscie_CTS_SIM900;
 119:main.c        ****         if (p && (podlaczony_modul_gsm_SIM900 ||
 120:main.c        ****                   aktualnie_wysylane_polecenie_SIM900 ==
 121:main.c        ****                       KOMENDA_KOLEJKI_WYSLIJ_DO_SIM900_AT)) {
 122:main.c        ****           p = FALSE;
 123:main.c        ****           sprawdzaj_wejscie_CTS_SIM900 = p;
 124:main.c        ****           WSTAW_ZNAK_DO_BUFORA_SIM900();
 125:main.c        ****         }
 126:main.c        ****         cli();
 127:main.c        ****         WLACZ_PRZERWANIE_WYSYLANIA_DANYCH_SIM900();
 128:main.c        ****       }
 129:main.c        ****       sei();
 130:main.c        ****     }
 131:main.c        ****   } else {
 132:main.c        ****     zakoncz_przesylanie_SIM900();
 133:main.c        ****   }
 134:main.c        **** 
 135:main.c        ****   wykonaj_zdarzenie_timer =
 136:main.c        ****       TRUE; // uruchamia zdarzenie_timer, ktra korzysta z pozostaych zmiennych
 137:main.c        **** }
 138:main.c        **** 
 139:main.c        **** uchar modul_zalogowany_w_sieci = FALSE;
 140:main.c        **** 
 141:main.c        **** uchar licznik_reset_modulu_SIM900 = 0;
 142:main.c        **** #define START_LICZNIK_RESET_MODULU_SIM900 30
 143:main.c        **** 
 144:main.c        **** uchar licznik_reset_urzadzenia = 0;
 145:main.c        **** #define LICZNIK_RESET_URZADZENIA_RESET_SIM900 200
 146:main.c        **** #define START_LICZNIK_RESET_URZADZENIA 220
 147:main.c        **** 
 148:main.c        **** uint opoznienie_wysylania_clipow_100MS = 0;
 149:main.c        **** 
 150:main.c        **** // Auto-sync czasu po restarcie
 151:main.c        **** uchar autosync_czas_aktywny =
 152:main.c        ****     FALSE; // TRUE gdy oczekujemy na SMS do synchronizacji
 153:main.c        **** // uchar moj_numer_telefonu[MAX_LICZBA_ZNAKOW_TELEFON + 1]; // REMOVED
 154:main.c        **** 
 155:main.c        **** // Merged GSM and Time function - replaces independent Time and Network reports
 156:main.c        **** // to save space Format: "GSM: 12:34:56 99%\n"
 157:main.c        **** void generuj_raport_sieci(uchar **buf_sms) {
 158:main.c        ****   static const char tekst_header[] PROGMEM = "AC-2000-DTMF-F\n";
 159:main.c        ****   uchar *ptr = *buf_sms;
 160:main.c        **** 
 161:main.c        ****   // 1. Header
 162:main.c        ****   memcpy_R(ptr, tekst_header);
 163:main.c        ****   ptr += sizeof tekst_header - 1;
 164:main.c        **** 
 165:main.c        ****   // 2. GSM Prefix
 166:main.c        ****   // Removed asterisk as requested to save 1 char (159 total)
 167:main.c        ****   strcpy_P((char *)ptr, PSTR("Poziom GSM: "));
 168:main.c        ****   ptr += 12;
 169:main.c        **** 
 170:main.c        ****   // 3. Signal Strength
 171:main.c        ****   if (poziom_sieci_gsm <= 31 && modul_zalogowany_w_sieci) {
 172:main.c        ****     utoa(poziom_sieci_gsm * 100 / 31, ptr, 10);
 173:main.c        ****     ptr += strlen(ptr);
 174:main.c        ****     *ptr++ = '%';
 175:main.c        ****   } else {
 176:main.c        ****     *ptr++ = '-';
 177:main.c        ****     *ptr++ = '-';
 178:main.c        ****     *ptr++ = '-';
 179:main.c        ****   }
 180:main.c        **** 
 181:main.c        ****   *ptr = 0; // Null terminate
 182:main.c        ****   *buf_sms = ptr;
 183:main.c        **** }
 184:main.c        **** 
 185:main.c        **** void generuj_raport_stanu_urzadzenia(void); // Forward declaration
 186:main.c        **** 
 187:main.c        **** void generuj_raport_uzytkownikow_1(uchar **buf_sms) {
 188:main.c        ****   static const char tekst_gsm[] PROGMEM = "Uzytkownicy: ";
 189:main.c        ****   uchar *ptr = *buf_sms;
 190:main.c        **** 
 191:main.c        ****   // Użyj strcpy_P (zamiast memcpy_R), żeby linia raportu była zawsze poprawnie
 192:main.c        ****   // terminowana i widoczna w SMS.
 193:main.c        ****   strcpy_P((char *)ptr, tekst_gsm);
 194:main.c        ****   ptr += strlen((char *)ptr);
 195:main.c        ****   uint aktywne_numery = 0;
 196:main.c        ****   uint wolne_numery = 0;
 197:main.c        ****   for (uint nr_uzyt_clip = 0; nr_uzyt_clip < MAX_LICZBA_NUMEROW_TELEFONOW_BRAMA;
 198:main.c        ****        ++nr_uzyt_clip) {
 199:main.c        **** #ifdef USE_EXTERNAL_EEPROM
 200:main.c        ****     /* Długi ciąg odczytów I2C – odśwież watchdog co 25 slotów */
 201:main.c        ****     if ((nr_uzyt_clip & 31u) == 0 && nr_uzyt_clip != 0)
 202:main.c        ****       wdt_reset();
 203:main.c        **** #endif
 204:main.c        ****     if (czy_aktywny_numer_telefonu_brama(nr_uzyt_clip))
 205:main.c        ****       ++aktywne_numery;
 206:main.c        ****     else
 207:main.c        ****       ++wolne_numery;
 208:main.c        ****   }
 209:main.c        **** 
 210:main.c        ****   // Pierwsza liczba = zajęte, druga = wolne miejsca
 211:main.c        ****   utoa(aktywne_numery, ptr, 10);
 212:main.c        ****   ptr += strlen(ptr);
 213:main.c        ****   *ptr++ = '/';
 214:main.c        ****   utoa(wolne_numery, ptr, 10);
 215:main.c        ****   ptr += strlen(ptr);
 216:main.c        ****   *buf_sms = ptr;
 217:main.c        **** }
 218:main.c        **** 
 219:main.c        **** void generuj_raport_uzytkownikow(uchar **buf_sms) {
 220:main.c        ****   static const char tekst_gsm[] PROGMEM = "Uzytkownicy ";
 221:main.c        ****   uchar *ptr = *buf_sms;
 222:main.c        **** 
 223:main.c        ****   memcpy_R(ptr, tekst_gsm);
 224:main.c        ****   ptr += sizeof tekst_gsm - 1;
 225:main.c        ****   uchar aktywne_numery = 0;
 226:main.c        ****   uchar wolne_numery = 0;
 227:main.c        ****   for (uint nr_uzyt_clip = 0; nr_uzyt_clip < MAX_LICZBA_NUMEROW_TELEFONOW_BRAMA;
 228:main.c        ****        ++nr_uzyt_clip) {
 229:main.c        ****     if (czy_aktywny_numer_telefonu_brama(nr_uzyt_clip))
 230:main.c        ****       ++aktywne_numery;
 231:main.c        ****     else
 232:main.c        ****       ++wolne_numery;
 233:main.c        ****   }
 234:main.c        ****   utoa(aktywne_numery, ptr, 10);
 235:main.c        ****   ptr += strlen(ptr);
 236:main.c        ****   *ptr++ = '/';
 237:main.c        ****   utoa(wolne_numery, ptr, 10);
 238:main.c        ****   ptr += strlen(ptr);
 239:main.c        ****   *buf_sms = ptr;
 240:main.c        **** }
 241:main.c        **** 
 242:main.c        **** uchar blokada_systemu = FALSE; // Zmienna blokady (tylko Service Lock)
 243:main.c        **** uchar blokada_systemu_tymczasowo_odblokowana = FALSE; // Tryb serwisowy (1AB2)
 244:main.c        **** // uchar blokada_serwisowa_wylaczona_na_stale = FALSE; // REMOVED
 245:main.c        **** uchar tryb_pracy = 1; // 0=Prywatny, 1=Publiczny (domyślnie Publiczny)
 246:main.c        **** 
 247:main.c        **** // Szacowanie wolnego RAM (heap/stack gap) dla AVR.
 248:main.c        **** static int wolny_ram_bajty(void) {
 249:main.c        ****   extern char __bss_end;
 250:main.c        ****   char top;
 251:main.c        ****   // Firmware nie używa malloc/new, więc wystarczy odległość stack - koniec BSS.
 252:main.c        ****   return (int)(&top - &__bss_end);
 253:main.c        **** }
 254:main.c        **** 
 255:main.c        **** // Minimalny zaobserwowany zapas RAM od startu (high-water mark stosu).
 256:main.c        **** static uint min_wolny_ram_bajty = 0xFFFFu;
 257:main.c        **** 
 258:main.c        **** static inline void aktualizuj_min_wolnego_ram(void) {
  14               		.loc 1 258 53 view -0
  15               		.cfi_startproc
  16 0000 CF93      		push r28
  17               	.LCFI0:
  18               		.cfi_def_cfa_offset 3
  19               		.cfi_offset 28, -2
  20 0002 DF93      		push r29
  21               	.LCFI1:
  22               		.cfi_def_cfa_offset 4
  23               		.cfi_offset 29, -3
  24 0004 0F92      		push __tmp_reg__
  25               	.LCFI2:
  26               		.cfi_def_cfa_offset 5
  27 0006 CDB7      		in r28,__SP_L__
  28 0008 DEB7      		in r29,__SP_H__
  29               	.LCFI3:
  30               		.cfi_def_cfa_register 28
  31               	/* prologue: function */
  32               	/* frame size = 1 */
  33               	/* stack size = 3 */
  34               	.L__stack_usage = 3
 259:main.c        ****   const int teraz = wolny_ram_bajty();
  35               		.loc 1 259 3 view .LVU1
  36               	.LBB378:
  37               	.LBI378:
 248:main.c        ****   extern char __bss_end;
  38               		.loc 1 248 12 view .LVU2
  39               	.LBB379:
 249:main.c        ****   char top;
  40               		.loc 1 249 3 view .LVU3
 250:main.c        ****   // Firmware nie używa malloc/new, więc wystarczy odległość stack - koniec BSS.
  41               		.loc 1 250 3 view .LVU4
 252:main.c        **** }
  42               		.loc 1 252 3 view .LVU5
 252:main.c        **** }
  43               		.loc 1 252 10 is_stmt 0 view .LVU6
  44 000a CE01      		movw r24,r28
  45 000c 8050      		subi r24,lo8(__bss_end-1)
  46 000e 9040      		sbci r25,hi8(__bss_end-1)
  47               	.LVL0:
 252:main.c        **** }
  48               		.loc 1 252 10 view .LVU7
  49               	.LBE379:
  50               	.LBE378:
 260:main.c        ****   if (teraz >= 0 && (uint)teraz < min_wolny_ram_bajty)
  51               		.loc 1 260 3 is_stmt 1 view .LVU8
  52               		.loc 1 260 6 is_stmt 0 view .LVU9
  53 0010 97FD      		sbrc r25,7
  54 0012 00C0      		rjmp .L1
  55               		.loc 1 260 18 discriminator 1 view .LVU10
  56 0014 2091 0000 		lds r18,min_wolny_ram_bajty
  57 0018 3091 0000 		lds r19,min_wolny_ram_bajty+1
  58 001c 8217      		cp r24,r18
  59 001e 9307      		cpc r25,r19
  60 0020 00F4      		brsh .L1
 261:main.c        ****     min_wolny_ram_bajty = (uint)teraz;
  61               		.loc 1 261 5 is_stmt 1 view .LVU11
  62               		.loc 1 261 25 is_stmt 0 view .LVU12
  63 0022 9093 0000 		sts min_wolny_ram_bajty+1,r25
  64 0026 8093 0000 		sts min_wolny_ram_bajty,r24
  65               	.L1:
  66               	/* epilogue start */
 262:main.c        **** }
  67               		.loc 1 262 1 view .LVU13
  68 002a 0F90      		pop __tmp_reg__
  69 002c DF91      		pop r29
  70 002e CF91      		pop r28
  71 0030 0895      		ret
  72               		.cfi_endproc
  73               	.LFE35:
  76               	watchdog_sms_disarm:
  77               	.LFB41:
 263:main.c        **** 
 264:main.c        **** void generuj_raport_stanu_urzadzenia(void) {
 265:main.c        ****   wdt_reset(); /* przed długim generowaniem raportu statusu */
 266:main.c        ****   uchar *sms = (char *)tekst_wysylanego_smsa;
 267:main.c        **** 
 268:main.c        ****   // 1. Header + GSM (Returns ptr to the end of string)
 269:main.c        ****   generuj_raport_sieci(&sms);
 270:main.c        ****   *sms++ = '\n';
 271:main.c        ****   *sms = '\0';
 272:main.c        **** 
 273:main.c        ****   // 2. Uzytkownicy (Returns ptr to the end of string)
 274:main.c        ****   generuj_raport_uzytkownikow_1(&sms);
 275:main.c        ****   *sms++ = '\n';
 276:main.c        ****   *sms = '\0';
 277:main.c        **** 
 278:main.c        ****   // 4. Mode (Publiczny/Prywatny)
 279:main.c        ****   strcpy_P((char *)sms, PSTR("Tryb: "));
 280:main.c        ****   sms += 6;
 281:main.c        ****   if (tryb_pracy == 0)
 282:main.c        ****     strcpy_P((char *)sms, PSTR("Prywatny\n"));
 283:main.c        ****   else
 284:main.c        ****     strcpy_P((char *)sms, PSTR("Publiczny\n"));
 285:main.c        ****   sms += strlen((char *)sms);
 286:main.c        **** 
 287:main.c        ****   // 4b. Control Methods (CLIP/DTMF/SMS) - NEW LINE
 288:main.c        ****   strcpy_P((char *)sms, PSTR("Sterowanie: "));
 289:main.c        ****   sms += 12;
 290:main.c        **** 
 291:main.c        ****   if (tryb_clip) {
 292:main.c        ****     strcpy_P((char *)sms, PSTR(" CLIP"));
 293:main.c        ****     sms += strlen((char *)sms);
 294:main.c        ****     if (sms_trigger) {
 295:main.c        ****       strcpy_P((char *)sms, PSTR(" SMS"));
 296:main.c        ****       sms += strlen((char *)sms);
 297:main.c        ****     }
 298:main.c        ****   } else {
 299:main.c        ****     // tryb_clip is FALSE: Either DTMF (if sms_trigger is OFF) OR SMS Only (if
 300:main.c        ****     // sms_trigger is ON) Strict Exclusivity: CANNOT BE BOTH
 301:main.c        ****     if (sms_trigger) {
 302:main.c        ****       strcpy_P((char *)sms, PSTR(" SMS"));
 303:main.c        ****     } else {
 304:main.c        ****       strcpy_P((char *)sms, PSTR(" DTMF"));
 305:main.c        ****     }
 306:main.c        ****     sms += strlen((char *)sms);
 307:main.c        ****   }
 308:main.c        **** 
 309:main.c        ****   *sms++ = '\n';
 310:main.c        ****   *sms = '\0';
 311:main.c        ****   sms += strlen((char *)sms);
 312:main.c        **** 
 313:main.c        ****   // 5. Output Config - Czas OUT
 314:main.c        ****   if (clip_duration_sekundy == 99999) {
 315:main.c        ****     strcpy_P((char *)sms, PSTR("Czas OUT: "));
 316:main.c        ****     sms += 10;
 317:main.c        **** 
 318:main.c        ****     // Mode Toggle (Bistabilny)
 319:main.c        ****     if (stan_wyjscie[0]) {
 320:main.c        ****       strcpy_P((char *)sms, PSTR("Wlaczony (Bistabilny)\n"));
 321:main.c        ****     } else {
 322:main.c        ****       strcpy_P((char *)sms, PSTR("Wylaczony (Bistabilny)\n"));
 323:main.c        ****     }
 324:main.c        ****     sms += strlen((char *)sms);
 325:main.c        ****   } else {
 326:main.c        ****     // Mode Timer (Monostabilny)
 327:main.c        ****     uint32_t t_sek = (stan_wyjscie[0]) ? (licznik_przelacznik_wyjscia[0] / 10)
 328:main.c        ****                                        : clip_duration_sekundy;
 329:main.c        **** 
 330:main.c        ****     if (stan_wyjscie[0]) {
 331:main.c        ****       strcpy_P((char *)sms, PSTR("Wylaczy OUT za: "));
 332:main.c        ****     } else {
 333:main.c        ****       strcpy_P((char *)sms, PSTR("Wlaczy OUT na: "));
 334:main.c        ****     }
 335:main.c        ****     sms += strlen((char *)sms);
 336:main.c        **** 
 337:main.c        ****     // Oblicz GG:MM:SS
 338:main.c        ****     uint8_t hh = t_sek / 3600;
 339:main.c        ****     uint16_t rem = t_sek % 3600;
 340:main.c        ****     uint8_t mm = rem / 60;
 341:main.c        ****     uint8_t ss = rem % 60;
 342:main.c        **** 
 343:main.c        ****     // Format: HHh:MMm:SSs
 344:main.c        ****     utoa(hh / 10, (char *)sms, 10);
 345:main.c        ****     sms += strlen((char *)sms);
 346:main.c        ****     utoa(hh % 10, (char *)sms, 10);
 347:main.c        ****     sms += strlen((char *)sms);
 348:main.c        ****     *sms++ = 'h';
 349:main.c        ****     *sms++ = ':';
 350:main.c        **** 
 351:main.c        ****     utoa(mm / 10, (char *)sms, 10);
 352:main.c        ****     sms += strlen((char *)sms);
 353:main.c        ****     utoa(mm % 10, (char *)sms, 10);
 354:main.c        ****     sms += strlen((char *)sms);
 355:main.c        ****     *sms++ = 'm';
 356:main.c        ****     *sms++ = ':';
 357:main.c        **** 
 358:main.c        ****     utoa(ss / 10, (char *)sms, 10);
 359:main.c        ****     sms += strlen((char *)sms);
 360:main.c        ****     utoa(ss % 10, (char *)sms, 10);
 361:main.c        ****     sms += strlen((char *)sms);
 362:main.c        ****     *sms++ = 's';
 363:main.c        ****     *sms++ = '\n';
 364:main.c        ****     *sms = '\0';
 365:main.c        ****   }
 366:main.c        **** 
 367:main.c        ****   // 6. Promo Footer (Final line)
 368:main.c        ****   strcpy_P((char *)sms, PSTR(INFORMACJA_W_RAPORCIE));
 369:main.c        **** }
 370:main.c        **** 
 371:main.c        **** // generuj_raport_sys removed (merged into generuj_raport_stanu_urzadzenia)
 372:main.c        **** 
 373:main.c        **** // Bezpiecznik: Wymuszone wylaczenie wyjscia (np. przy zmianie konfiguracji)
 374:main.c        **** void wymus_wylaczenie_wyjscia(void) {
 375:main.c        ****   stan_wyjscie[0] = FALSE;
 376:main.c        ****   licznik_przelacznik_wyjscia[0] = 0;
 377:main.c        ****   WYLACZ_OUT0();
 378:main.c        **** }
 379:main.c        **** 
 380:main.c        **** // --- Funkcja sterująca przekaźnikiem (CLIP) ---
 381:main.c        **** void ustaw_wyjscie_clip(void) {
 382:main.c        ****   // ⚠️ Debounce check: Jeli timer jest aktywny, ignoruj kolejne dzwonki (TOGLE)
 383:main.c        ****   if (clip_debounce_timer_100ms > 0) {
 384:main.c        ****     return;
 385:main.c        ****   }
 386:main.c        **** 
 387:main.c        ****   // Ustaw timer debounce na 1 sekundę (blokada kolejnych przełączeń w tej samej
 388:main.c        ****   // rozmowie)
 389:main.c        ****   clip_debounce_timer_100ms = 10;
 390:main.c        **** 
 391:main.c        ****   if (clip_duration_sekundy == 99999) {
 392:main.c        ****     // Tryb Toggle (bi-stabilny) - 99999 = specjalna wartość
 393:main.c        ****     // Jeden dzwonek włącza, drugi wyłącza
 394:main.c        ****     stan_wyjscie[0] = !stan_wyjscie[0];
 395:main.c        ****     licznik_przelacznik_wyjscia[0] = 0; // 0 = brak auto-wyłączenia
 396:main.c        ****   } else {
 397:main.c        ****     // Tryb Czasowy (mono-stabilny)
 398:main.c        ****     stan_wyjscie[0] = TRUE;
 399:main.c        ****     licznik_przelacznik_wyjscia[0] = clip_duration_sekundy * 10ul;
 400:main.c        ****   }
 401:main.c        **** }
 402:main.c        **** 
 403:main.c        **** uchar kod_modulu[LICZBA_BAJTOW_KODU_DOSTEPU];
 404:main.c        **** 
 405:main.c        **** uchar nie_wysylaj_echa_z_powodu_nietypowego_smsa;
 406:main.c        **** 
 407:main.c        **** uint numer_skopiowanego_telefonu_do_raportu_uzytkownikow_brama;
 408:main.c        **** // uchar numer_telefonu_skryba[20]; // REMOVED
 409:main.c        **** 
 410:main.c        **** // Funkcja sprawdzająca czy minęła data serwisowa
 411:main.c        **** // Na czas testów blokada serwisowa jest WYŁĄCZONA – funkcja nic nie robi.
 412:main.c        **** void sprawdz_blokade_serwisowa(void) { return; }
 413:main.c        **** 
 414:main.c        **** // Blokada komend REPORT/USER - maksymalnie 8 w ciągu 30 sekund
 415:main.c        **** static uchar licznik_report_user = 0;
 416:main.c        **** static uint timer_report_user_100ms = 0;
 417:main.c        **** static uchar oczekujace_powiadomienie_con =
 418:main.c        ****     FALSE; // Flaga dla powiadomien w trakcie rozmowy
 419:main.c        **** #define MAX_LICZBA_KOMEND_REPORT_USER_W_OKNIE 12
 420:main.c        **** #define OKNO_CZASOWE_REPORT_USER_100MS (45 * 10) // 45 sekund
 421:main.c        **** 
 422:main.c        **** // Mechanizm wykrywania zablokowanej kolejki i czyszczenia
 423:main.c        **** static komenda_typ ostatnia_pierwsza_komenda = KOMENDA_KOLEJKI_BRAK_KOMENDY;
 424:main.c        **** static uint licznik_kolejka_stoi_100ms = 0;
 425:main.c        **** #define MAX_CZAS_KOLEJKA_STOI_100MS                                            \
 426:main.c        ****   (15 * 10) // 15 sekund - jesli kolejka stoi tyle czasu, wyczysc
 427:main.c        **** 
 428:main.c        **** static uint licznik_usunietych_sms_przez_limit = 0;
 429:main.c        **** static uint licznik_awaryjnych_resetow_kolejki = 0;
 430:main.c        **** 
 431:main.c        **** #define WATCHDOG_WYSYLANIA_SMS_100MS (30 * 10) // 30 sekund
 432:main.c        **** static uint licznik_watchdog_wysylanie_smsa_100ms = 0;
 433:main.c        **** static uchar liczba_kolejnych_watchdogow_wysylania = 0;
 434:main.c        **** #define WATCHDOG_SMS_TIMEOUT_100MS (10 * 10) // 10 sekund
 435:main.c        **** #define WATCHDOG_SMS_SAFE_MODE_100MS                                           \
 436:main.c        ****   (5 * 10) // 5 sekund po resecie - nie przyjmuj SMS
 437:main.c        **** 
 438:main.c        **** static inline void watchdog_sms_arm(void) {
 439:main.c        ****   watchdog_sms_aktywny = TRUE;
 440:main.c        ****   watchdog_sms_licznik_100ms = 0;
 441:main.c        **** }
 442:main.c        **** 
 443:main.c        **** static inline void watchdog_sms_disarm(void) {
  78               		.loc 1 443 46 is_stmt 1 view -0
  79               		.cfi_startproc
  80               	/* prologue: function */
  81               	/* frame size = 0 */
  82               	/* stack size = 0 */
  83               	.L__stack_usage = 0
 444:main.c        ****   watchdog_sms_aktywny = FALSE;
  84               		.loc 1 444 3 view .LVU15
  85               		.loc 1 444 24 is_stmt 0 view .LVU16
  86 0032 1092 0000 		sts watchdog_sms_aktywny,__zero_reg__
 445:main.c        ****   watchdog_sms_licznik_100ms = 0;
  87               		.loc 1 445 3 is_stmt 1 view .LVU17
  88               		.loc 1 445 30 is_stmt 0 view .LVU18
  89 0036 1092 0000 		sts watchdog_sms_licznik_100ms+1,__zero_reg__
  90 003a 1092 0000 		sts watchdog_sms_licznik_100ms,__zero_reg__
  91               	/* epilogue start */
 446:main.c        **** }
  92               		.loc 1 446 1 view .LVU19
  93 003e 0895      		ret
  94               		.cfi_endproc
  95               	.LFE41:
  98               	normalizuj_numer_9:
  99               	.LVL1:
 100               	.LFB65:
 447:main.c        **** 
 448:main.c        **** static inline void sygnalizuj_pelny_system(void) {
 449:main.c        ****   // 10 szybkich blyskow informuje, ze kolejka/limit SMS jest zapelniony
 450:main.c        ****   zapal_diode_led_blyski(10);
 451:main.c        **** }
 452:main.c        **** 
 453:main.c        **** static void normalizuj_numer_9(const uchar *src, uchar *dst);
 454:main.c        **** 
 455:main.c        **** // Pełne czyszczenie zewnętrznej pamięci EEPROM (AT24C512).
 456:main.c        **** // Czyścimy tylko obszar używany przez konfigurację i numery (ok. 11 kB),
 457:main.c        **** // zgodnie z mapą w adresyeeprom.h, aby skrócić czas wykonania C3D4.
 458:main.c        **** static void wyczysc_zewnetrzny_eeprom(void) {
 459:main.c        **** #ifdef USE_EXTERNAL_EEPROM
 460:main.c        ****   // Zakres 0 .. ADRES_EEPROM_USTAWIENIA_KONIEC (numery + konfiguracja +
 461:main.c        ****   // ustawienia)
 462:main.c        ****   for (uint16_t addr = 0; addr <= (uint16_t)ADRES_EEPROM_USTAWIENIA_KONIEC;
 463:main.c        ****        ++addr) {
 464:main.c        ****     // 0xFF traktujemy jako „pusty”/skasowany bajt (zgodnie z resztą kodu)
 465:main.c        ****     at24c512_write_byte(addr, 0xFF);
 466:main.c        ****     while (!at24c512_is_ready())
 467:main.c        ****       ;
 468:main.c        ****     // WDT 120 ms – podkarm co ~16 bajtów (~80 ms), żeby C3D4 nie resetował uC
 469:main.c        ****     if ((addr & 0x0Fu) == 0)
 470:main.c        ****       wdt_reset();
 471:main.c        ****   }
 472:main.c        **** #else
 473:main.c        ****   // W wariancie bez USE_EXTERNAL_EEPROM nie ma co czyścić.
 474:main.c        ****   (void)0;
 475:main.c        **** #endif
 476:main.c        **** }
 477:main.c        **** 
 478:main.c        **** // Funkcja usuwania zablokowanego SMS z modulu SIM900
 479:main.c        **** static void usun_zablokowany_sms(void) {
 480:main.c        ****   // Usun SMS z modulu SIM900 (numer jest w aktualnie_wysylane_polecenie_SIM900)
 481:main.c        ****   // Sprawdzamy czy to byla komenda odczytu SMS
 482:main.c        ****   if (aktualnie_wysylane_polecenie_SIM900 >= KOMENDA_KOLEJKI_ODCZYTAJ_SMSA_1 &&
 483:main.c        ****       aktualnie_wysylane_polecenie_SIM900 <= KOMENDA_KOLEJKI_ODCZYTAJ_SMSA_20) {
 484:main.c        ****     const uchar nr_smsa =
 485:main.c        ****         aktualnie_wysylane_polecenie_SIM900 - KOMENDA_KOLEJKI_ODCZYTAJ_SMSA_1;
 486:main.c        ****     // Uzywamy filtruj_i_dodaj_komende zamiast dodaj_komende
 487:main.c        ****     filtruj_i_dodaj_komende(KOMENDA_KOLEJKI_USUN_SMSA_1 + nr_smsa);
 488:main.c        ****   } else {
 489:main.c        ****     // Fallback: Usun wszystkie
 490:main.c        ****     filtruj_i_dodaj_komende(KOMENDA_KOLEJKI_USUN_WSZYSTKIE_SMSY);
 491:main.c        ****   }
 492:main.c        **** }
 493:main.c        **** 
 494:main.c        **** static void zareaguj_na_usuniety_sms_z_powodu_limitu(void) {
 495:main.c        ****   if (licznik_usunietych_sms_przez_limit < 0xFFFF)
 496:main.c        ****     ++licznik_usunietych_sms_przez_limit;
 497:main.c        ****   sygnalizuj_pelny_system();
 498:main.c        ****   watchdog_sms_disarm();
 499:main.c        ****   // Uzywamy filtruj_i_dodaj
 500:main.c        ****   filtruj_i_dodaj_komende(KOMENDA_KOLEJKI_USUN_WSZYSTKIE_SMSY);
 501:main.c        **** }
 502:main.c        **** 
 503:main.c        **** // Funkcja zapisu znacznikow debugowania do EEPROM - USUNIĘTA
 504:main.c        **** // (Zaoszczędzono 14 bajtów EEPROM)
 505:main.c        **** 
 506:main.c        **** void wykonanie_polecenia_sms(void) {
 507:main.c        ****   aktualizuj_min_wolnego_ram();
 508:main.c        ****   tekst_odebranego_smsa[MAX_LICZBA_ZNAKOW_SMS_ODBIOR] = 0; // (1) dla pewnoci
 509:main.c        ****   wdt_reset(); /* przy każdej komendzie SMS – unikaj resetu podczas długiej
 510:main.c        ****                   obsługi */
 511:main.c        ****   watchdog_sms_arm();
 512:main.c        ****   const uchar komenda = interpretuj_wiadomosc_sms(tekst_odebranego_smsa);
 513:main.c        **** 
 514:main.c        ****   // Aktualizacja czasu z timestampu SMS (PRZED wykonaniem komendy!)
 515:main.c        ****   // KAŻDY SMS (nawet bez kodu ABCD) synchronizuje RTC, z wyłączeniem SET
 516:main.c        ****   extern uchar sms_timestamp_godzina;
 517:main.c        ****   extern uchar sms_timestamp_minuta;
 518:main.c        ****   extern uchar sms_timestamp_sekunda;
 519:main.c        ****   extern uchar sms_pomijaj_aktualizacje_czasu;
 520:main.c        **** 
 521:main.c        ****   if (!sms_pomijaj_aktualizacje_czasu) {
 522:main.c        ****     // Aktualizuj rtc_czas z timestampu SMS (z sekundami z PDU)
 523:main.c        ****     snprintf(rtc_czas, sizeof(rtc_czas), "%02u:%02u:%02u",
 524:main.c        ****              (unsigned)(sms_timestamp_godzina % 100),
 525:main.c        ****              (unsigned)(sms_timestamp_minuta % 100),
 526:main.c        ****              (unsigned)(sms_timestamp_sekunda % 100));
 527:main.c        **** 
 528:main.c        ****     // Zaktualizuj RTC w SIM900 (hardware)
 529:main.c        ****     extern char bufor_ustaw_czas[30];
 530:main.c        ****     snprintf(bufor_ustaw_czas, sizeof(bufor_ustaw_czas),
 531:main.c        ****              "+CCLK=\"24/01/01,%02u:%02u:%02u+04\"",
 532:main.c        ****              (unsigned)(sms_timestamp_godzina % 100),
 533:main.c        ****              (unsigned)(sms_timestamp_minuta % 100),
 534:main.c        ****              (unsigned)(sms_timestamp_sekunda % 100));
 535:main.c        ****     dodaj_komende(KOMENDA_KOLEJKI_USTAW_ZEGAR_SIM900);
 536:main.c        **** 
 537:main.c        ****     // Aktualizuj blokadę czasową - Logic removed
 538:main.c        ****     // blokada_sterowania_czasowa = FALSE; // REMOVED
 539:main.c        ****   }
 540:main.c        **** 
 541:main.c        ****   // Resetuj flagę pomijania dla następnego SMS
 542:main.c        ****   sms_pomijaj_aktualizacje_czasu = FALSE;
 543:main.c        **** 
 544:main.c        ****   // Sprawdź blokadę serwisową po aktualizacji czasu
 545:main.c        ****   sprawdz_blokade_serwisowa();
 546:main.c        **** 
 547:main.c        ****   // Auto-sync: Wyłącz po pierwszej synchronizacji czasu
 548:main.c        ****   if (autosync_czas_aktywny) {
 549:main.c        ****     autosync_czas_aktywny = FALSE;
 550:main.c        ****   }
 551:main.c        **** 
 552:main.c        ****   // --- BLOKADA SYSTEMU (START/STOP) - USUNIĘTA ---
 553:main.c        ****   // Kod sprawdzający blokadę został usunięty.
 554:main.c        **** 
 555:main.c        ****   // --- WARSTWA 1: Limit czasowy (Rate Limiting) - V7 style ---
 556:main.c        ****   if (komenda == INTERPRETACJA_SMS_RAPORT ||
 557:main.c        ****       komenda == INTERPRETACJA_SMS_USER) {
 558:main.c        ****     if (licznik_report_user >= MAX_LICZBA_KOMEND_REPORT_USER_W_OKNIE) {
 559:main.c        ****       // Debug: Limit czasowy (funkcja DEBUG usunięta)
 560:main.c        ****       usun_zablokowany_sms();
 561:main.c        ****       zareaguj_na_usuniety_sms_z_powodu_limitu();
 562:main.c        ****       watchdog_sms_disarm();
 563:main.c        ****       return;
 564:main.c        ****     }
 565:main.c        ****   }
 566:main.c        **** 
 567:main.c        ****   // --- WARSTWA 2: Sprawdzenie zajętości modemu (Busy Check) ---
 568:main.c        ****   if (flaga_wysylanie_smsa) {
 569:main.c        ****     if (komenda == INTERPRETACJA_SMS_DEBUG) {
 570:main.c        ****       // DEBUG ma pierwszeństwo diagnostyczne - nie odrzucaj z powodu "busy".
 571:main.c        ****       // Odpowiedź i tak trafi do kolejki SMS.
 572:main.c        ****     } else {
 573:main.c        ****       // Same number check
 574:main.c        ****       if (strcmp((char *)numer_telefonu_odebranego_smsa,
 575:main.c        ****                  (char *)numer_telefonu_wysylanego_smsa) == 0) {
 576:main.c        ****         // Debug: Same number (funkcja DEBUG usunięta)
 577:main.c        ****         usun_zablokowany_sms();
 578:main.c        ****         zareaguj_na_usuniety_sms_z_powodu_limitu();
 579:main.c        ****         watchdog_sms_disarm();
 580:main.c        ****         return;
 581:main.c        ****       }
 582:main.c        ****       // Different number but busy
 583:main.c        ****       // Debug: Busy (funkcja DEBUG usunięta)
 584:main.c        ****       usun_zablokowany_sms();
 585:main.c        ****       zareaguj_na_usuniety_sms_z_powodu_limitu();
 586:main.c        ****       watchdog_sms_disarm();
 587:main.c        ****       return;
 588:main.c        ****     }
 589:main.c        ****   }
 590:main.c        **** 
 591:main.c        ****   // --- WARSTWA 3 i 4: Ochrona kolejki ---
 592:main.c        ****   uchar liczba_sms_w_kolejce = 0;
 593:main.c        ****   uchar liczba_wszystkich_komend = 0;
 594:main.c        ****   for (uchar i = 0; i < LICZBA_KOMEND; ++i) {
 595:main.c        ****     if (komendy_kolejka[i] != KOMENDA_KOLEJKI_BRAK_KOMENDY) {
 596:main.c        ****       ++liczba_wszystkich_komend;
 597:main.c        ****       if (komendy_kolejka[i] >= KOMENDA_KOLEJKI_WYSLIJ_SMSA_TEXT &&
 598:main.c        ****           komendy_kolejka[i] <= KOMENDA_KOLEJKI_WYSLIJ_SMSA_PDU)
 599:main.c        ****         ++liczba_sms_w_kolejce;
 600:main.c        ****     }
 601:main.c        ****   }
 602:main.c        **** 
 603:main.c        ****   if (liczba_wszystkich_komend >= 35 && komenda != INTERPRETACJA_SMS_DEBUG) {
 604:main.c        ****     // Debug: Kolejka pełna (funkcja DEBUG usunięta)
 605:main.c        ****     usun_zablokowany_sms();
 606:main.c        ****     zareaguj_na_usuniety_sms_z_powodu_limitu();
 607:main.c        ****     watchdog_sms_disarm();
 608:main.c        ****     return;
 609:main.c        ****   }
 610:main.c        **** 
 611:main.c        ****   if (liczba_sms_w_kolejce >= 6 && komenda != INTERPRETACJA_SMS_DEBUG) {
 612:main.c        ****     // Debug: SMS w kolejce (funkcja DEBUG usunięta)
 613:main.c        ****     usun_zablokowany_sms();
 614:main.c        ****     zareaguj_na_usuniety_sms_z_powodu_limitu();
 615:main.c        ****     watchdog_sms_disarm();
 616:main.c        ****     return;
 617:main.c        ****   }
 618:main.c        **** 
 619:main.c        ****   switch (komenda) {
 620:main.c        ****   case INTERPRETACJA_SMS_POPRAWNY:
 621:main.c        ****     zapal_diode_led_blyski(2); // Odbior poprawnej komendy - 2 blyski
 622:main.c        ****     break;
 623:main.c        ****   case INTERPRETACJA_SMS_BRAK_KODU: {
 624:main.c        ****     // Logika SMS Trigger (jesli aktywna)
 625:main.c        ****     if (sms_trigger) {
 626:main.c        ****       uchar autoryzowany = FALSE;
 627:main.c        ****       if (tryb_pracy == 1) {
 628:main.c        ****         // Tryb Publiczny - kazdy SMS triggeruje
 629:main.c        ****         autoryzowany = TRUE;
 630:main.c        ****       } else {
 631:main.c        ****         // Tryb Prywatny - sprawdz autoryzacje
 632:main.c        ****         uchar temp_buf[LICZBA_BAJTOW_NUMERU_TELEFONU_W_EEPROM];
 633:main.c        ****         uchar numer_9[10];
 634:main.c        ****         normalizuj_numer_9(numer_telefonu_odebranego_smsa, numer_9);
 635:main.c        **** 
 636:main.c        ****         // Jesli numer pusty (np. same smieci), to brak autoryzacji
 637:main.c        ****         if (numer_9[0] == '\0') {
 638:main.c        ****           autoryzowany = FALSE;
 639:main.c        ****         } else {
 640:main.c        ****           konwertuj_telefon_na_blok_eeprom(
 641:main.c        ****               &numer_9[0], &numer_9[strlen((char *)numer_9)], temp_buf);
 642:main.c        **** 
 643:main.c        ****           for (uint nr_uzyt = 0; nr_uzyt < MAX_LICZBA_NUMEROW_TELEFONOW_BRAMA;
 644:main.c        ****                ++nr_uzyt) {
 645:main.c        ****             if ((nr_uzyt & 31u) == 0 && nr_uzyt != 0)
 646:main.c        ****               wdt_reset();
 647:main.c        ****             if (porownaj_numer_telefonu_blok(
 648:main.c        ****                     temp_buf, (void *)EEPROM_NUMER_TELEFONU_BRAMA(nr_uzyt))) {
 649:main.c        ****               autoryzowany = TRUE;
 650:main.c        ****               break;
 651:main.c        ****             }
 652:main.c        ****           }
 653:main.c        ****         }
 654:main.c        ****       }
 655:main.c        **** 
 656:main.c        ****       if (autoryzowany) {
 657:main.c        ****         if (!blokada_systemu) { // Check Lock
 658:main.c        ****           // Kopiuj numer nadawcy SMS do zmiennej
 659:main.c        ****           // "numer_telefonu_ktory_dzwoni" aby powiadomienie (CON) wiedziało
 660:main.c        ****           // KTO otworzył bramę.
 661:main.c        ****           strcpy((char *)numer_telefonu_ktory_dzwoni,
 662:main.c        ****                  (char *)numer_telefonu_odebranego_smsa);
 663:main.c        **** 
 664:main.c        ****           ustaw_wyjscie_clip();
 665:main.c        ****           zapal_diode_led_blyski(3); // 3 blyski = Trigger success
 666:main.c        ****         }
 667:main.c        ****       }
 668:main.c        **** 
 669:main.c        ****       zapal_diode_led_blyski(1); // Odbior zwyklego SMS (bez kodu) - 1 blysk
 670:main.c        ****       // Debug: Brak kodu (funkcja DEBUG usunięta)
 671:main.c        ****       break;
 672:main.c        ****     }
 673:main.c        ****     break; // Prevent fallthrough to REPORT when sms_trigger is OFF
 674:main.c        ****   }
 675:main.c        ****   case INTERPRETACJA_SMS_RAPORT: {
 676:main.c        ****     // Check service lock (unless temporarily unlocked by 1AB2)
 677:main.c        ****     // Check service lock (unless temporarily unlocked)
 678:main.c        ****     if (!blokada_systemu_tymczasowo_odblokowana) {
 679:main.c        ****       // Re-check just in case
 680:main.c        ****       sprawdz_blokade_serwisowa();
 681:main.c        **** 
 682:main.c        ****       if (blokada_systemu) {
 683:main.c        ****         // Prepare Error Message
 684:main.c        ****         strcpy_P((char *)tekst_wysylanego_smsa, PSTR("001AE Blad Pamieci"));
 685:main.c        **** 
 686:main.c        ****         // Send SMS
 687:main.c        ****         strcpy((char *)numer_telefonu_wysylanego_smsa,
 688:main.c        ****                (char *)numer_telefonu_odebranego_smsa);
 689:main.c        ****         dodaj_komende(KOMENDA_KOLEJKI_WYSLIJ_SMSA_TEXT);
 690:main.c        ****         zapal_diode_led_blyski(20);
 691:main.c        **** 
 692:main.c        ****         watchdog_sms_disarm();
 693:main.c        ****         return;
 694:main.c        ****       }
 695:main.c        ****     }
 696:main.c        **** 
 697:main.c        ****     ++licznik_report_user;
 698:main.c        ****     timer_report_user_100ms = OKNO_CZASOWE_REPORT_USER_100MS;
 699:main.c        **** 
 700:main.c        ****     strcpy((char *)numer_telefonu_wysylanego_smsa,
 701:main.c        ****            (char *)numer_telefonu_odebranego_smsa);
 702:main.c        **** #ifdef USE_EXTERNAL_EEPROM
 703:main.c        ****     wdt_reset(); /* Przed długim generowaniem raportu (wiele odczytów I2C) */
 704:main.c        **** #endif
 705:main.c        ****     generuj_raport_stanu_urzadzenia();
 706:main.c        ****     dodaj_komende(KOMENDA_KOLEJKI_WYSLIJ_SMSA_TEXT);
 707:main.c        ****     zapal_diode_led_blyski(2); // Komenda REPORT - 2 blyski
 708:main.c        ****     // Debug: REPORT OK (funkcja DEBUG usunięta)
 709:main.c        ****     break;
 710:main.c        ****   }
 711:main.c        ****   case INTERPRETACJA_SMS_DEBUG:
 712:main.c        ****     // DEBUG wyłączony.
 713:main.c        ****     break;
 714:main.c        ****   case INTERPRETACJA_SMS_USER: {
 715:main.c        ****     ++licznik_report_user;
 716:main.c        ****     timer_report_user_100ms = OKNO_CZASOWE_REPORT_USER_100MS;
 717:main.c        **** 
 718:main.c        ****     strcpy((char *)numer_telefonu_wysylanego_smsa,
 719:main.c        ****            (char *)numer_telefonu_odebranego_smsa);
 720:main.c        **** 
 721:main.c        ****     // Uzyj lokalnego bufora aby uniknac konfliktow z EEPROM
 722:main.c        ****     uchar temp_buf[LICZBA_BAJTOW_NUMERU_TELEFONU_W_EEPROM];
 723:main.c        **** 
 724:main.c        ****     // Konwertuj numer na format EEPROM
 725:main.c        ****     konwertuj_telefon_na_blok_eeprom(
 726:main.c        ****         &numer_telefonu_do_ktorego_dzwonic[0],
 727:main.c        ****         &numer_telefonu_do_ktorego_dzwonic[strlen(
 728:main.c        ****             (char *)numer_telefonu_do_ktorego_dzwonic)],
 729:main.c        ****         temp_buf);
 730:main.c        **** 
 731:main.c        ****     // Sprawdz czy numer jest na liscie
 732:main.c        ****     uchar znaleziono = FALSE;
 733:main.c        ****     for (uint nr_uzyt_clip = 0;
 734:main.c        ****          nr_uzyt_clip < MAX_LICZBA_NUMEROW_TELEFONOW_BRAMA; ++nr_uzyt_clip) {
 735:main.c        ****       if ((nr_uzyt_clip & 31u) == 0 && nr_uzyt_clip != 0)
 736:main.c        ****         wdt_reset();
 737:main.c        ****       if (porownaj_numer_telefonu_blok(
 738:main.c        ****               temp_buf, (void *)EEPROM_NUMER_TELEFONU_BRAMA(nr_uzyt_clip))) {
 739:main.c        ****         znaleziono = TRUE;
 740:main.c        ****         break;
 741:main.c        ****       }
 742:main.c        ****     }
 743:main.c        **** 
 744:main.c        ****     // Przygotuj odpowiedz - pokaz FAKTYCZNY numer z EEPROM (max 9 cyfr)
 745:main.c        ****     // zamiast numeru wpisanego w komendzie (ktory moze miec prefiks +48)
 746:main.c        ****     uchar numer_z_eeprom[MAX_LICZBA_ZNAKOW_TELEFON + 1];
 747:main.c        ****     konwertuj_blok_eeprom_na_telefon(temp_buf, numer_z_eeprom,
 748:main.c        ****                                      MAX_LICZBA_ZNAKOW_TELEFON + 1);
 749:main.c        **** 
 750:main.c        ****     strcpy((char *)tekst_wysylanego_smsa, (char *)numer_z_eeprom);
 751:main.c        ****     strcat((char *)tekst_wysylanego_smsa, ": ");
 752:main.c        ****     if (znaleziono) {
 753:main.c        ****       strcat((char *)tekst_wysylanego_smsa, "OK");
 754:main.c        ****     } else {
 755:main.c        ****       strcat((char *)tekst_wysylanego_smsa, "Brak takiego numeru w systemie");
 756:main.c        ****     }
 757:main.c        **** 
 758:main.c        ****     dodaj_komende(KOMENDA_KOLEJKI_WYSLIJ_SMSA_TEXT);
 759:main.c        **** 
 760:main.c        ****     zapal_diode_led_blyski(2); // Komenda USER - 2 blyski
 761:main.c        **** 
 762:main.c        ****     // Zapisz debug tylko na koncu (bezpiecznie)
 763:main.c        ****     // U1=1 (USER), U6=znaleziono
 764:main.c        ****     if (czy_wolny_eeprom()) {
 765:main.c        ****       // Czekamy na zakonczenie poprzedniego zapisu w tle
 766:main.c        ****       // Ale poniewaz zapisz_znak_w_eeprom uzywa przerwan, nie mozemy wolac go
 767:main.c        ****       // od razu drugi raz Mozemy zapisac skondensowana informacje lub uzyc
 768:main.c        ****       // bufora Dla bezpieczenstwa zapiszmy tylko jeden bajt statusu Bit 0:
 769:main.c        ****       // znaleziono, Bit 1: USER wykonany zapisz_znak_w_eeprom(znaleziono |
 770:main.c        ****       // 0x02, ADRES_EEPROM_DEBUG_USER_6);
 771:main.c        ****     }
 772:main.c        ****     // Debug: USER (funkcja DEBUG usunięta)
 773:main.c        ****     break;
 774:main.c        ****   }
 775:main.c        ****   case INTERPRETACJA_SMS_USER_BEZ_NUMERU: {
 776:main.c        ****     strcpy((char *)numer_telefonu_wysylanego_smsa,
 777:main.c        ****            (char *)numer_telefonu_odebranego_smsa);
 778:main.c        ****     strcpy((char *)tekst_wysylanego_smsa, "Wpisz np. KOD USER NUMER");
 779:main.c        ****     zapal_diode_led_blyski(2);
 780:main.c        ****     dodaj_komende(KOMENDA_KOLEJKI_WYSLIJ_SMSA_TEXT);
 781:main.c        ****     break;
 782:main.c        ****   }
 783:main.c        ****   case INTERPRETACJA_SMS_USER_LIST: {
 784:main.c        ****     strcpy((char *)numer_telefonu_wysylanego_smsa,
 785:main.c        ****            (char *)numer_telefonu_odebranego_smsa);
 786:main.c        ****     numer_skopiowanego_telefonu_do_raportu_uzytkownikow_brama = 0;
 787:main.c        ****     dodaj_komende(KOMENDA_KOLEJKI_WYSLIJ_RAPORT_UZYTKOWNIKOW);
 788:main.c        ****     zapal_diode_led_blyski(2);
 789:main.c        ****     break;
 790:main.c        ****   }
 791:main.c        ****   case INTERPRETACJA_SMS_RESET_WSZYSTKICH_USTAWIEN: {
 792:main.c        ****     if (not czy_sa_komendy_z_przedzialu(
 793:main.c        ****             KOMENDA_KOLEJKI_RESET_KOD_DOSTEPU,
 794:main.c        ****             KOMENDA_KOLEJKI_RESET_USTAWIEN_INICJALIZACJA)) {
 795:main.c        ****       zapal_diode_led_blyski(25);
 796:main.c        ****       // Dodatkowo: pełne wyczyszczenie zewnętrznego EEPROM (AT24C512),
 797:main.c        ****       // tak aby cały system startował z „czystej kartki”.
 798:main.c        ****       wyczysc_zewnetrzny_eeprom();
 799:main.c        ****       dodaj_komende(KOMENDA_KOLEJKI_RESET_USTAWIEN_0);
 800:main.c        ****     }
 801:main.c        ****     break;
 802:main.c        ****   }
 803:main.c        ****   case INTERPRETACJA_SMS_STAN: {
 804:main.c        ****     // Check sender authorization (Hardcoded Support Number)
 805:main.c        ****     if (strstr((char *)numer_telefonu_odebranego_smsa, SERVICE_PHONE_NUMBER)) {
 806:main.c        ****       // Prepare report: "Limit: 2029/06/21, Cykle: 1234/200000, Zostalo:
 807:main.c        ****       // 198766"
 808:main.c        ****       unsigned long remaining =
 809:main.c        ****           (unsigned long)SERVICE_LIMIT_CYCLES > licznik_cykli_przekaznika
 810:main.c        ****               ? ((unsigned long)SERVICE_LIMIT_CYCLES -
 811:main.c        ****                  licznik_cykli_przekaznika)
 812:main.c        ****               : 0;
 813:main.c        **** 
 814:main.c        ****       sprintf((char *)tekst_wysylanego_smsa,
 815:main.c        ****               "Limit: 20%02d/%02d/%02d, Cykle: %lu/%lu, Zostalo: %lu",
 816:main.c        ****               SERVICE_LIMIT_YEAR, SERVICE_LIMIT_MONTH, SERVICE_LIMIT_DAY,
 817:main.c        ****               licznik_cykli_przekaznika, (unsigned long)SERVICE_LIMIT_CYCLES,
 818:main.c        ****               remaining);
 819:main.c        **** 
 820:main.c        ****       strcpy((char *)numer_telefonu_wysylanego_smsa,
 821:main.c        ****              (char *)numer_telefonu_odebranego_smsa);
 822:main.c        ****       dodaj_komende(KOMENDA_KOLEJKI_WYSLIJ_SMSA_TEXT);
 823:main.c        ****       zapal_diode_led_blyski(2);
 824:main.c        ****     } else {
 825:main.c        ****       // Unauthorized - ignore
 826:main.c        ****       zapal_diode_led_blyski(5);
 827:main.c        ****     }
 828:main.c        ****     break;
 829:main.c        ****   }
 830:main.c        ****   case INTERPRETACJA_SMS_ON: {
 831:main.c        ****     // Komenda ON (1-99998=impuls, 99999=toggle) - 3 blyski LED
 832:main.c        ****     zapal_diode_led_blyski(3);
 833:main.c        ****     break;
 834:main.c        ****   }
 835:main.c        ****   default:
 836:main.c        ****     break;
 837:main.c        ****   }
 838:main.c        **** 
 839:main.c        ****   watchdog_sms_disarm();
 840:main.c        **** }
 841:main.c        **** 
 842:main.c        **** void steruj_wejsciem_reset_100ms(void) {
 843:main.c        ****   static uchar licznik_reset;
 844:main.c        ****   if (CZY_AKTUALNY_STAN_LOGICZNY_ON(0)) {
 845:main.c        ****     if (licznik_reset < 20 * 10)
 846:main.c        ****       ++licznik_reset;
 847:main.c        ****   } else {
 848:main.c        ****     if (licznik_reset >= 20 * 10) {
 849:main.c        ****       if (not czy_sa_komendy_z_przedzialu(
 850:main.c        ****               KOMENDA_KOLEJKI_RESET_KOD_DOSTEPU,
 851:main.c        ****               KOMENDA_KOLEJKI_RESET_USTAWIEN_INICJALIZACJA))
 852:main.c        ****         dodaj_komende(KOMENDA_KOLEJKI_RESET_USTAWIEN_0);
 853:main.c        ****     } else if (licznik_reset >= 5 * 10) {
 854:main.c        ****       if (not czy_sa_komendy_z_przedzialu(
 855:main.c        ****               KOMENDA_KOLEJKI_RESET_KOD_DOSTEPU,
 856:main.c        ****               KOMENDA_KOLEJKI_RESET_USTAWIEN_INICJALIZACJA))
 857:main.c        ****         dodaj_komende(KOMENDA_KOLEJKI_RESET_KOD_DOSTEPU);
 858:main.c        ****     }
 859:main.c        ****     licznik_reset = 0;
 860:main.c        ****   }
 861:main.c        **** }
 862:main.c        **** 
 863:main.c        **** uchar sprawdz_przychodzaca_rozmowe(void) // wysya TRUE, gdy naley odebra
 864:main.c        **** {
 865:main.c        ****   if (blokada_systemu && !blokada_systemu_tymczasowo_odblokowana) {
 866:main.c        ****     return FALSE; // Block everyone (even if on list) unless Tech unlocked
 867:main.c        ****   }
 868:main.c        **** 
 869:main.c        ****   // W trybie DTMF lub SMS Trigger Only:
 870:main.c        ****   if (!tryb_clip) {
 871:main.c        ****     // Jesli SMS Trigger aktywny (tryb OPEN SMS), to polaczenia sa ODRZUCANE
 872:main.c        ****     // (User requested: "clip jest odrzucany bez reakzji")
 873:main.c        ****     if (sms_trigger)
 874:main.c        ****       return FALSE;
 875:main.c        **** 
 876:main.c        ****     // Publiczny: odbierz wszystkie
 877:main.c        ****     if (tryb_pracy == 1)
 878:main.c        ****       return TRUE;
 879:main.c        **** 
 880:main.c        ****     // Bez poprawnego numeru nie autoryzuj.
 881:main.c        ****     if (numer_telefonu_ktory_dzwoni[0] == '\0')
 882:main.c        ****       return FALSE;
 883:main.c        **** 
 884:main.c        ****     // Prywatny: sprawdź autoryzację SYNCHRONICZNIE (ostatnie 9 cyfr).
 885:main.c        ****     uchar numer_9[10];
 886:main.c        ****     normalizuj_numer_9(numer_telefonu_ktory_dzwoni, numer_9);
 887:main.c        ****     if (numer_9[0] == '\0')
 888:main.c        ****       return FALSE;
 889:main.c        ****     konwertuj_telefon_na_blok_eeprom(
 890:main.c        ****         &numer_9[0], &numer_9[strlen((char *)numer_9)], &bufor_eeprom[0]);
 891:main.c        **** 
 892:main.c        ****     // Sprawdź listę autoryzowanych numerów
 893:main.c        ****     for (uint nr_uzyt = 0; nr_uzyt < MAX_LICZBA_NUMEROW_TELEFONOW_BRAMA;
 894:main.c        ****          ++nr_uzyt) {
 895:main.c        ****       if ((nr_uzyt & 31u) == 0 && nr_uzyt != 0)
 896:main.c        ****         wdt_reset(); // Zapobieganie resetom podczas dlugiego szukania
 897:main.c        ****       if (porownaj_numer_telefonu_blok(
 898:main.c        ****               &bufor_eeprom[0], (void *)EEPROM_NUMER_TELEFONU_BRAMA(nr_uzyt))) {
 899:main.c        ****         return TRUE; // Numer autoryzowany - odbierz
 900:main.c        ****       }
 901:main.c        ****     }
 902:main.c        ****     return FALSE; // Numer nieautoryzowany - odrzuć
 903:main.c        ****   }
 904:main.c        **** 
 905:main.c        ****   // W trybie CLIP:
 906:main.c        ****   // Publiczny: włącz wyjście dla wszystkich
 907:main.c        ****   if (tryb_pracy == 1)
 908:main.c        ****     return TRUE;
 909:main.c        **** 
 910:main.c        ****   // Prywatny: autoryzacja synchroniczna (bez odkładania ciężkiej komendy do
 911:main.c        ****   // kolejki).
 912:main.c        ****   if (numer_telefonu_ktory_dzwoni[0] == '\0')
 913:main.c        ****     return FALSE;
 914:main.c        **** 
 915:main.c        ****   uchar numer_9[10];
 916:main.c        ****   normalizuj_numer_9(numer_telefonu_ktory_dzwoni, numer_9);
 917:main.c        ****   if (numer_9[0] == '\0')
 918:main.c        ****     return FALSE;
 919:main.c        ****   konwertuj_telefon_na_blok_eeprom(
 920:main.c        ****       &numer_9[0], &numer_9[strlen((char *)numer_9)], &bufor_eeprom[0]);
 921:main.c        ****   for (uint nr_uzyt = 0; nr_uzyt < MAX_LICZBA_NUMEROW_TELEFONOW_BRAMA;
 922:main.c        ****        ++nr_uzyt) {
 923:main.c        ****     if ((nr_uzyt & 31u) == 0 && nr_uzyt != 0)
 924:main.c        ****       wdt_reset();
 925:main.c        ****     if (porownaj_numer_telefonu_blok(
 926:main.c        ****             &bufor_eeprom[0], (void *)EEPROM_NUMER_TELEFONU_BRAMA(nr_uzyt))) {
 927:main.c        ****       return TRUE;
 928:main.c        ****     }
 929:main.c        ****   }
 930:main.c        ****   return FALSE;
 931:main.c        **** }
 932:main.c        **** 
 933:main.c        **** // uchar wysylanie_echa_przez_pdu = FALSE; // REMOVED (unused)
 934:main.c        **** // uchar *ptr_start_pdu_z_wiadomoscia; // REMOVED (unused)
 935:main.c        **** 
 936:main.c        **** #define WYSYLANIE_SMSA_CLIPA_BRAK 0
 937:main.c        **** #define WYSYLANIE_SMSA_WYSYLANIE 1
 938:main.c        **** #define WYSYLANIE_SMSA_POWTARZANIE 2
 939:main.c        **** #define WYSYLANIE_CLIPA_WYSYLANIE 4
 940:main.c        **** #define WYSYLANIE_CLIPA_KONCZENIE 5
 941:main.c        **** 
 942:main.c        **** uchar wysylanie_smsa_clipa = WYSYLANIE_SMSA_CLIPA_BRAK;
 943:main.c        **** 
 944:main.c        **** enum PowodZakonczeniaRozmowyTelefonicznej {
 945:main.c        ****   powod_zakonczenia_rozmowy_odrzucenie,
 946:main.c        ****   powod_zakonczenia_rozmowy_zakonczenie,
 947:main.c        ****   powod_zakonczenia_rozmowy_przekroczony_czas,
 948:main.c        ****   powod_zakonczenia_rozmowy_otrzymana_wiadomosc
 949:main.c        **** };
 950:main.c        **** 
 951:main.c        **** void zakonczono_rozmowe_telefoniczna(
 952:main.c        ****     const enum PowodZakonczeniaRozmowyTelefonicznej powod) {
 953:main.c        ****   POMOC_DODAJ2('#', 'a');
 954:main.c        ****   opoznienie_SIM900_100MS = 60; // byo 60
 955:main.c        ****   licznik_bezpieczenstwa_wykonywana_rozmowa = 0;
 956:main.c        ****   ustaw_maksymalny_czas_dzwonienia = 0;
 957:main.c        ****   maksymalny_czas_dzwonienia = 0;
 958:main.c        ****   blokada_clip = FALSE;
 959:main.c        **** 
 960:main.c        ****   // Wyslij zalegle powiadomienie po zakonczeniu rozmowy
 961:main.c        ****   if (oczekujace_powiadomienie_con) {
 962:main.c        ****     extern uchar numer_powiadomien[];
 963:main.c        ****     if (numer_powiadomien[0] != '\0') {
 964:main.c        ****       strcpy((char *)numer_telefonu_wysylanego_smsa, (char *)numer_powiadomien);
 965:main.c        **** 
 966:main.c        ****       strcpy_P((char *)tekst_wysylanego_smsa, PSTR("Wykryto sterowanie z: "));
 967:main.c        ****       strcat((char *)tekst_wysylanego_smsa,
 968:main.c        ****              (char *)numer_telefonu_ktory_dzwoni);
 969:main.c        ****       strcat_P((char *)tekst_wysylanego_smsa, PSTR(" o: "));
 970:main.c        **** 
 971:main.c        ****       uchar len = strlen((char *)tekst_wysylanego_smsa);
 972:main.c        ****       tekst_wysylanego_smsa[len++] = rtc_czas[0];
 973:main.c        ****       tekst_wysylanego_smsa[len++] = rtc_czas[1];
 974:main.c        ****       tekst_wysylanego_smsa[len++] = ':';
 975:main.c        ****       tekst_wysylanego_smsa[len++] = rtc_czas[3];
 976:main.c        ****       tekst_wysylanego_smsa[len++] = rtc_czas[4];
 977:main.c        ****       tekst_wysylanego_smsa[len] = '\0';
 978:main.c        **** 
 979:main.c        ****       dodaj_komende(KOMENDA_KOLEJKI_WYSLIJ_SMSA_TEXT);
 980:main.c        ****     }
 981:main.c        ****     oczekujace_powiadomienie_con = FALSE;
 982:main.c        ****   }
 983:main.c        **** 
 984:main.c        ****   // Nie przenoś numeru między kolejnymi połączeniami.
 985:main.c        ****   numer_telefonu_ktory_dzwoni[0] = '\0';
 986:main.c        **** }
 987:main.c        **** 
 988:main.c        **** enum PowodZakonczeniaWysylaniaSMS {
 989:main.c        ****   zakonczenie_wysylania_sms_ok,
 990:main.c        ****   zakonczenie_wysylania_sms_blad_powtarzanie,
 991:main.c        ****   zakonczenie_wysylania_sms_blad_zakonczenie,
 992:main.c        ****   zakonczenie_wysylania_sms_blad_powtorz_sms,
 993:main.c        **** };
 994:main.c        **** 
 995:main.c        **** void zakonczono_wysylanie_smsa(const enum PowodZakonczeniaWysylaniaSMS powod) {
 996:main.c        ****   POMOC_DODAJ2('#', 'A');
 997:main.c        ****   opoznienie_SIM900_100MS = 60;
 998:main.c        **** 
 999:main.c        ****   wysylanie_smsa_clipa = WYSYLANIE_SMSA_CLIPA_BRAK;
1000:main.c        **** }
1001:main.c        **** 
1002:main.c        **** void problem_z_wyslaniem_powiadomienia(void) {
1003:main.c        ****   wykonywanie_rozmowy_telefonicznej = FALSE;
1004:main.c        ****   licznik_bezpieczenstwa_wykonywana_rozmowa = 0;
1005:main.c        ****   wysylane_polecenie_SIM900 = KOMENDA_KOLEJKI_BRAK_KOMENDY;
1006:main.c        ****   czekanie_na_odebranie_zachety = FALSE;
1007:main.c        ****   opoznienie_SIM900_100MS = 60;
1008:main.c        ****   flaga_wysylanie_smsa = 0;
1009:main.c        **** }
1010:main.c        **** 
1011:main.c        **** #define JESLI_SIM900_WYSYLA_DANE_WYKONAJ_POZNIEJ()                             \
1012:main.c        ****   if (!czy_mozna_wysylac_dane_do_SIM900) {                                     \
1013:main.c        ****     dodaj_komende(wykonywana_komenda);                                         \
1014:main.c        ****     break;                                                                     \
1015:main.c        ****   }                                                                            \
1016:main.c        ****   wysylane_polecenie_SIM900 = wykonywana_komenda;
1017:main.c        **** 
1018:main.c        **** #define POWTORZ_JESLI(WAR)                                                     \
1019:main.c        ****   {                                                                            \
1020:main.c        ****     if (WAR) {                                                                 \
1021:main.c        ****       dodaj_komende(wykonywana_komenda);                                       \
1022:main.c        ****       break;                                                                   \
1023:main.c        ****     }                                                                          \
1024:main.c        ****   }
1025:main.c        **** 
1026:main.c        **** #define JESLI_EEPROM_ZAJETY_WYKONAJ_POZNIEJ() POWTORZ_JESLI(!czy_wolny_eeprom())
1027:main.c        **** 
1028:main.c        **** #define JESLI_SIM900_ZAJETY_WYKONAJ_POZNIEJ() POWTORZ_JESLI(czy_gsm_zajety)
1029:main.c        **** 
1030:main.c        **** #include "main_sim900.h"
1031:main.c        **** 
1032:main.c        **** #define aktualnie_wykonywana_komenda wykonywana_komenda
1033:main.c        **** 
1034:main.c        **** void inicjalizuj_parametry_modulu(void);
1035:main.c        **** 
1036:main.c        **** #define MAX_LICZBA_KOMEND_DLA_ALARMOW (LICZBA_KOMEND / 4)
1037:main.c        **** 
1038:main.c        **** // Funkcja pomocnicza: Wyciąga ostatnie N cyfr z numeru telefonu
1039:main.c        **** // max_digits: maksimum cyfr (9)
1040:main.c        **** static void wyciagnij_ostatnie_cyfry(const uchar *numer_pelny,
1041:main.c        ****                                      uchar *numer_skrocony, uchar max_digits) {
1042:main.c        ****   uchar len = strlen((char *)numer_pelny);
1043:main.c        **** 
1044:main.c        ****   if (len > max_digits) {
1045:main.c        ****     // Take last max_digits
1046:main.c        ****     strcpy((char *)numer_skrocony, (char *)numer_pelny + (len - max_digits));
1047:main.c        ****   } else {
1048:main.c        ****     // Take all
1049:main.c        ****     strcpy((char *)numer_skrocony, (char *)numer_pelny);
1050:main.c        ****   }
1051:main.c        **** }
1052:main.c        **** 
1053:main.c        **** // Ujednolica numer do ostatnich 9 cyfr (zgodnie z ADD/DEL i listą).
1054:main.c        **** static void normalizuj_numer_9(const uchar *src, uchar *dst) {
 101               		.loc 1 1054 62 is_stmt 1 view -0
 102               		.cfi_startproc
 103               		.loc 1 1054 62 is_stmt 0 view .LVU21
 104 0040 CF93      		push r28
 105               	.LCFI4:
 106               		.cfi_def_cfa_offset 3
 107               		.cfi_offset 28, -2
 108 0042 DF93      		push r29
 109               	.LCFI5:
 110               		.cfi_def_cfa_offset 4
 111               		.cfi_offset 29, -3
 112 0044 CDB7      		in r28,__SP_L__
 113 0046 DEB7      		in r29,__SP_H__
 114               	.LCFI6:
 115               		.cfi_def_cfa_register 28
 116 0048 6497      		sbiw r28,20
 117               	.LCFI7:
 118               		.cfi_def_cfa_offset 24
 119 004a 0FB6      		in __tmp_reg__,__SREG__
 120 004c F894      		cli
 121 004e DEBF      		out __SP_H__,r29
 122 0050 0FBE      		out __SREG__,__tmp_reg__
 123 0052 CDBF      		out __SP_L__,r28
 124               	/* prologue: function */
 125               	/* frame size = 20 */
 126               	/* stack size = 22 */
 127               	.L__stack_usage = 22
1055:main.c        ****   uchar digits[20];
 128               		.loc 1 1055 3 is_stmt 1 view .LVU22
1056:main.c        ****   uchar n = 0;
 129               		.loc 1 1056 3 view .LVU23
 130               	.LVL2:
1057:main.c        ****   while (*src && n < sizeof(digits)) {
 131               		.loc 1 1057 3 view .LVU24
 132 0054 AC01      		movw r20,r24
1056:main.c        ****   uchar n = 0;
 133               		.loc 1 1056 9 is_stmt 0 view .LVU25
 134 0056 E0E0      		ldi r30,0
 135               	.LVL3:
 136               	.L5:
 137               		.loc 1 1057 9 is_stmt 1 view .LVU26
 138               		.loc 1 1057 10 is_stmt 0 view .LVU27
 139 0058 DA01      		movw r26,r20
 140 005a 9D91      		ld r25,X+
 141 005c AD01      		movw r20,r26
 142               	.LVL4:
 143               		.loc 1 1057 9 view .LVU28
 144 005e 9923      		tst r25
 145 0060 01F0      		breq .L7
 146               		.loc 1 1057 15 discriminator 1 view .LVU29
 147 0062 E431      		cpi r30,lo8(20)
 148 0064 00F0      		brlo .L8
 149               	.L9:
1058:main.c        ****     if (*src >= '0' && *src <= '9')
1059:main.c        ****       digits[n++] = *src;
1060:main.c        ****     ++src;
1061:main.c        ****   }
1062:main.c        ****   if (n == 0) {
1063:main.c        ****     dst[0] = '\0';
1064:main.c        ****     return;
1065:main.c        ****   }
1066:main.c        ****   uchar start = (n > 9) ? (n - 9) : 0;
 150               		.loc 1 1066 3 is_stmt 1 view .LVU30
 151               		.loc 1 1066 9 is_stmt 0 view .LVU31
 152 0066 8E2F      		mov r24,r30
 153 0068 E930      		cpi r30,lo8(9)
 154 006a 00F4      		brsh .L11
 155               	.LVL5:
 156               		.loc 1 1066 9 view .LVU32
 157 006c 89E0      		ldi r24,lo8(9)
 158               	.LVL6:
 159               	.L11:
1067:main.c        ****   uchar out_n = n - start;
 160               		.loc 1 1067 3 is_stmt 1 view .LVU33
1066:main.c        ****   uchar out_n = n - start;
 161               		.loc 1 1066 9 is_stmt 0 view .LVU34
 162 006e 97EF      		ldi r25,lo8(-9)
 163 0070 980F      		add r25,r24
 164               	.LVL7:
 165               		.loc 1 1067 9 view .LVU35
 166 0072 4E2F      		mov r20,r30
 167               	.LVL8:
 168               		.loc 1 1067 9 view .LVU36
 169 0074 491B      		sub r20,r25
 170               	.LVL9:
1068:main.c        ****   for (uchar i = 0; i < out_n; ++i)
 171               		.loc 1 1068 3 is_stmt 1 view .LVU37
 172               	.LBB380:
 173               		.loc 1 1068 8 view .LVU38
 174               		.loc 1 1068 8 is_stmt 0 view .LVU39
 175 0076 8950      		subi r24,9
 176 0078 990B      		sbc r25,r25
 177 007a 21E0      		ldi r18,lo8(1)
 178 007c 30E0      		ldi r19,0
 179 007e 2C0F      		add r18,r28
 180 0080 3D1F      		adc r19,r29
 181 0082 820F      		add r24,r18
 182 0084 931F      		adc r25,r19
 183 0086 362F      		mov r19,r22
 184               		.loc 1 1068 3 view .LVU40
 185 0088 DB01      		movw r26,r22
 186               	.LVL10:
 187               	.L12:
 188               		.loc 1 1068 21 is_stmt 1 discriminator 1 view .LVU41
 189               		.loc 1 1068 3 is_stmt 0 discriminator 1 view .LVU42
 190 008a 2A2F      		mov r18,r26
 191 008c 231B      		sub r18,r19
 192 008e 2417      		cp r18,r20
 193 0090 00F0      		brlo .L13
 194               	.LBE380:
1069:main.c        ****     dst[i] = digits[start + i];
1070:main.c        ****   dst[out_n] = '\0';
 195               		.loc 1 1070 3 is_stmt 1 view .LVU43
 196               		.loc 1 1070 14 is_stmt 0 view .LVU44
 197 0092 FB01      		movw r30,r22
 198 0094 E40F      		add r30,r20
 199 0096 F11D      		adc r31,__zero_reg__
 200 0098 00C0      		rjmp .L14
 201               	.LVL11:
 202               	.L8:
1058:main.c        ****       digits[n++] = *src;
 203               		.loc 1 1058 5 is_stmt 1 view .LVU45
1058:main.c        ****       digits[n++] = *src;
 204               		.loc 1 1058 21 is_stmt 0 view .LVU46
 205 009a 80ED      		ldi r24,lo8(-48)
 206 009c 890F      		add r24,r25
1058:main.c        ****       digits[n++] = *src;
 207               		.loc 1 1058 8 view .LVU47
 208 009e 8A30      		cpi r24,lo8(10)
 209 00a0 00F4      		brsh .L5
1059:main.c        ****     ++src;
 210               		.loc 1 1059 7 is_stmt 1 view .LVU48
 211               	.LVL12:
1059:main.c        ****     ++src;
 212               		.loc 1 1059 19 is_stmt 0 view .LVU49
 213 00a2 21E0      		ldi r18,lo8(1)
 214 00a4 30E0      		ldi r19,0
 215 00a6 2C0F      		add r18,r28
 216 00a8 3D1F      		adc r19,r29
 217 00aa 2E0F      		add r18,r30
 218 00ac 311D      		adc r19,__zero_reg__
 219 00ae D901      		movw r26,r18
 220 00b0 9C93      		st X,r25
1059:main.c        ****     ++src;
 221               		.loc 1 1059 15 view .LVU50
 222 00b2 EF5F      		subi r30,lo8(-(1))
 223               	.LVL13:
1060:main.c        ****   }
 224               		.loc 1 1060 5 is_stmt 1 view .LVU51
1060:main.c        ****   }
 225               		.loc 1 1060 5 is_stmt 0 view .LVU52
 226 00b4 00C0      		rjmp .L5
 227               	.LVL14:
 228               	.L7:
1062:main.c        ****     dst[0] = '\0';
 229               		.loc 1 1062 3 is_stmt 1 view .LVU53
1062:main.c        ****     dst[0] = '\0';
 230               		.loc 1 1062 6 is_stmt 0 view .LVU54
 231 00b6 E111      		cpse r30,__zero_reg__
 232 00b8 00C0      		rjmp .L9
1063:main.c        ****     return;
 233               		.loc 1 1063 5 is_stmt 1 view .LVU55
1063:main.c        ****     return;
 234               		.loc 1 1063 12 is_stmt 0 view .LVU56
 235 00ba FB01      		movw r30,r22
 236               	.LVL15:
 237               	.L14:
 238               		.loc 1 1070 14 view .LVU57
 239 00bc 1082      		st Z,__zero_reg__
 240               	/* epilogue start */
1071:main.c        **** }
 241               		.loc 1 1071 1 view .LVU58
 242 00be 6496      		adiw r28,20
 243 00c0 0FB6      		in __tmp_reg__,__SREG__
 244 00c2 F894      		cli
 245 00c4 DEBF      		out __SP_H__,r29
 246 00c6 0FBE      		out __SREG__,__tmp_reg__
 247 00c8 CDBF      		out __SP_L__,r28
 248 00ca DF91      		pop r29
 249 00cc CF91      		pop r28
 250 00ce 0895      		ret
 251               	.LVL16:
 252               	.L13:
 253               	.LBB381:
1069:main.c        ****   dst[out_n] = '\0';
 254               		.loc 1 1069 5 is_stmt 1 discriminator 3 view .LVU59
1069:main.c        ****   dst[out_n] = '\0';
 255               		.loc 1 1069 20 is_stmt 0 discriminator 3 view .LVU60
 256 00d0 FC01      		movw r30,r24
 257 00d2 2191      		ld r18,Z+
 258 00d4 CF01      		movw r24,r30
1069:main.c        ****   dst[out_n] = '\0';
 259               		.loc 1 1069 12 discriminator 3 view .LVU61
 260 00d6 2D93      		st X+,r18
 261               	.LVL17:
1068:main.c        ****     dst[i] = digits[start + i];
 262               		.loc 1 1068 32 is_stmt 1 discriminator 3 view .LVU62
1068:main.c        ****     dst[i] = digits[start + i];
 263               		.loc 1 1068 32 is_stmt 0 discriminator 3 view .LVU63
 264 00d8 00C0      		rjmp .L12
 265               	.LBE381:
 266               		.cfi_endproc
 267               	.LFE65:
 270               	usun_zablokowany_sms:
 271               	.LFB44:
 479:main.c        ****   // Usun SMS z modulu SIM900 (numer jest w aktualnie_wysylane_polecenie_SIM900)
 272               		.loc 1 479 40 is_stmt 1 view -0
 273               		.cfi_startproc
 274               	/* prologue: function */
 275               	/* frame size = 0 */
 276               	/* stack size = 0 */
 277               	.L__stack_usage = 0
 482:main.c        ****       aktualnie_wysylane_polecenie_SIM900 <= KOMENDA_KOLEJKI_ODCZYTAJ_SMSA_20) {
 278               		.loc 1 482 3 view .LVU65
 482:main.c        ****       aktualnie_wysylane_polecenie_SIM900 <= KOMENDA_KOLEJKI_ODCZYTAJ_SMSA_20) {
 279               		.loc 1 482 78 is_stmt 0 view .LVU66
 280 00da 8091 0000 		lds r24,aktualnie_wysylane_polecenie_SIM900
 281 00de 95EB      		ldi r25,lo8(-75)
 282 00e0 980F      		add r25,r24
 283               	.LBB382:
 487:main.c        ****   } else {
 284               		.loc 1 487 5 view .LVU67
 285 00e2 8C5E      		subi r24,lo8(-(20))
 286               	.LBE382:
 482:main.c        ****       aktualnie_wysylane_polecenie_SIM900 <= KOMENDA_KOLEJKI_ODCZYTAJ_SMSA_20) {
 287               		.loc 1 482 6 view .LVU68
 288 00e4 9431      		cpi r25,lo8(20)
 289 00e6 00F0      		brlo .L17
 490:main.c        ****   }
 290               		.loc 1 490 5 is_stmt 1 view .LVU69
 291 00e8 83E3      		ldi r24,lo8(51)
 292               	.L17:
 293 00ea 0C94 0000 		jmp filtruj_i_dodaj_komende
 294               	.LVL18:
 295               		.cfi_endproc
 296               	.LFE44:
 299               	zareaguj_na_usuniety_sms_z_powodu_limitu:
 300               	.LFB45:
 494:main.c        ****   if (licznik_usunietych_sms_przez_limit < 0xFFFF)
 301               		.loc 1 494 60 view -0
 302               		.cfi_startproc
 303               	/* prologue: function */
 304               	/* frame size = 0 */
 305               	/* stack size = 0 */
 306               	.L__stack_usage = 0
 495:main.c        ****     ++licznik_usunietych_sms_przez_limit;
 307               		.loc 1 495 3 view .LVU71
 495:main.c        ****     ++licznik_usunietych_sms_przez_limit;
 308               		.loc 1 495 42 is_stmt 0 view .LVU72
 309 00ee 8091 0000 		lds r24,licznik_usunietych_sms_przez_limit
 310 00f2 9091 0000 		lds r25,licznik_usunietych_sms_przez_limit+1
 495:main.c        ****     ++licznik_usunietych_sms_przez_limit;
 311               		.loc 1 495 6 view .LVU73
 312 00f6 8F3F      		cpi r24,-1
 313 00f8 9807      		cpc r25,r24
 314 00fa 01F0      		breq .L19
 496:main.c        ****   sygnalizuj_pelny_system();
 315               		.loc 1 496 5 is_stmt 1 view .LVU74
 316 00fc 0196      		adiw r24,1
 317 00fe 9093 0000 		sts licznik_usunietych_sms_przez_limit+1,r25
 318 0102 8093 0000 		sts licznik_usunietych_sms_przez_limit,r24
 319               	.L19:
 497:main.c        ****   watchdog_sms_disarm();
 320               		.loc 1 497 3 view .LVU75
 321               	.LBB385:
 322               	.LBI385:
 448:main.c        ****   // 10 szybkich blyskow informuje, ze kolejka/limit SMS jest zapelniony
 323               		.loc 1 448 20 view .LVU76
 324               	.LBB386:
 450:main.c        **** }
 325               		.loc 1 450 3 view .LVU77
 326 0106 8AE0      		ldi r24,lo8(10)
 327 0108 8093 0000 		sts liczba_blyskow_led,r24
 328 010c 1092 0000 		sts stan_cyklu_blysku,__zero_reg__
 329 0110 1092 0000 		sts licznik_100ms_dioda_led,__zero_reg__
 330               	.LBE386:
 331               	.LBE385:
 498:main.c        ****   // Uzywamy filtruj_i_dodaj
 332               		.loc 1 498 3 view .LVU78
 333 0114 0E94 0000 		call watchdog_sms_disarm
 334               	.LVL19:
 500:main.c        **** }
 335               		.loc 1 500 3 view .LVU79
 336 0118 83E3      		ldi r24,lo8(51)
 337 011a 0C94 0000 		jmp filtruj_i_dodaj_komende
 338               	.LVL20:
 339               		.cfi_endproc
 340               	.LFE45:
 343               	wyczysc_zewnetrzny_eeprom:
 344               	.LFB43:
 458:main.c        **** #ifdef USE_EXTERNAL_EEPROM
 345               		.loc 1 458 45 view -0
 346               		.cfi_startproc
 347 011e CF93      		push r28
 348               	.LCFI8:
 349               		.cfi_def_cfa_offset 3
 350               		.cfi_offset 28, -2
 351 0120 DF93      		push r29
 352               	.LCFI9:
 353               		.cfi_def_cfa_offset 4
 354               		.cfi_offset 29, -3
 355               	/* prologue: function */
 356               	/* frame size = 0 */
 357               	/* stack size = 2 */
 358               	.L__stack_usage = 2
 462:main.c        ****        ++addr) {
 359               		.loc 1 462 3 view .LVU81
 360               	.LBB387:
 462:main.c        ****        ++addr) {
 361               		.loc 1 462 8 view .LVU82
 362               	.LVL21:
 462:main.c        ****        ++addr) {
 363               		.loc 1 462 27 view .LVU83
 462:main.c        ****        ++addr) {
 364               		.loc 1 462 17 is_stmt 0 view .LVU84
 365 0122 D0E0      		ldi r29,0
 366 0124 C0E0      		ldi r28,0
 367               	.LVL22:
 368               	.L26:
 465:main.c        ****     while (!at24c512_is_ready())
 369               		.loc 1 465 5 is_stmt 1 view .LVU85
 370 0126 6FEF      		ldi r22,lo8(-1)
 371 0128 CE01      		movw r24,r28
 372 012a 0E94 0000 		call at24c512_write_byte
 373               	.LVL23:
 466:main.c        ****       ;
 374               		.loc 1 466 5 view .LVU86
 375               	.L24:
 467:main.c        ****     // WDT 120 ms – podkarm co ~16 bajtów (~80 ms), żeby C3D4 nie resetował uC
 376               		.loc 1 467 7 discriminator 1 view .LVU87
 466:main.c        ****       ;
 377               		.loc 1 466 11 discriminator 1 view .LVU88
 466:main.c        ****       ;
 378               		.loc 1 466 13 is_stmt 0 discriminator 1 view .LVU89
 379 012e 0E94 0000 		call at24c512_is_ready
 380               	.LVL24:
 466:main.c        ****       ;
 381               		.loc 1 466 11 discriminator 1 view .LVU90
 382 0132 8823      		tst r24
 383 0134 01F0      		breq .L24
 469:main.c        ****       wdt_reset();
 384               		.loc 1 469 5 is_stmt 1 view .LVU91
 469:main.c        ****       wdt_reset();
 385               		.loc 1 469 15 is_stmt 0 view .LVU92
 386 0136 CE01      		movw r24,r28
 387 0138 8F70      		andi r24,15
 388 013a 9927      		clr r25
 469:main.c        ****       wdt_reset();
 389               		.loc 1 469 8 view .LVU93
 390 013c 892B      		or r24,r25
 391 013e 01F4      		brne .L25
 470:main.c        ****   }
 392               		.loc 1 470 7 is_stmt 1 view .LVU94
 393               	/* #APP */
 394               	 ;  470 "main.c" 1
 395 0140 A895      		wdr
 396               	 ;  0 "" 2
 397               	/* #NOAPP */
 398               	.L25:
 463:main.c        ****     // 0xFF traktujemy jako „pusty”/skasowany bajt (zgodnie z resztą kodu)
 399               		.loc 1 463 8 view .LVU95
 400 0142 2196      		adiw r28,1
 401               	.LVL25:
 462:main.c        ****        ++addr) {
 402               		.loc 1 462 27 view .LVU96
 462:main.c        ****        ++addr) {
 403               		.loc 1 462 3 is_stmt 0 view .LVU97
 404 0144 CD3E      		cpi r28,-19
 405 0146 84E3      		ldi r24,52
 406 0148 D807      		cpc r29,r24
 407 014a 01F4      		brne .L26
 408               	/* epilogue start */
 409               	.LBE387:
 476:main.c        **** 
 410               		.loc 1 476 1 view .LVU98
 411 014c DF91      		pop r29
 412 014e CF91      		pop r28
 413               	.LVL26:
 476:main.c        **** 
 414               		.loc 1 476 1 view .LVU99
 415 0150 0895      		ret
 416               		.cfi_endproc
 417               	.LFE43:
 420               	polozenie_polecenia_SIM900:
 421               	.LVL27:
 422               	.LFB55:
 423               		.file 2 "main_sim900.h"
   1:main_sim900.h **** 
   2:main_sim900.h **** #ifdef MAIN_SIM900_H
   3:main_sim900.h **** #error Dwa razy wlaczany plik
   4:main_sim900.h **** #endif
   5:main_sim900.h **** 
   6:main_sim900.h **** void wyzerowanie_danych_SIM900(void) {
   7:main_sim900.h ****   POMOC_DODAJ2('*', 't');
   8:main_sim900.h ****   problem_z_wyslaniem_powiadomienia();
   9:main_sim900.h ****   licznik_wysylane_polecenie_SIM900 = 0;
  10:main_sim900.h ****   aktualnie_wysylane_polecenie_SIM900 = KOMENDA_KOLEJKI_BRAK_KOMENDY;
  11:main_sim900.h ****   liczba_komend_w_kolejce_SIM900 = 0;
  12:main_sim900.h ****   licznik_oczekiwanie_na_potwierdzenie_wyslania_znakow = 0;
  13:main_sim900.h ****   czekanie_na_odebranie_zachety = FALSE;
  14:main_sim900.h ****   flaga_odebrany_znak_zachety = FALSE;
  15:main_sim900.h ****   trwa_rozmowa_przychodzaca_od_uzytkownika = FALSE;
  16:main_sim900.h ****   wysylanie_smsa_clipa = WYSYLANIE_SMSA_CLIPA_BRAK;
  17:main_sim900.h ****   flaga_odczytywanie_smsa = FALSE;
  18:main_sim900.h **** }
  19:main_sim900.h **** 
  20:main_sim900.h **** void reset_modulu_SIM900(void) {
  21:main_sim900.h ****   wyzerowanie_danych_SIM900();
  22:main_sim900.h ****   POMOC_DODAJ2('*', 'm');
  23:main_sim900.h ****   HARDRESET_SIM900();
  24:main_sim900.h ****   podlaczony_modul_gsm_SIM900 = FALSE;
  25:main_sim900.h ****   podlaczona_karta_SIM_SIM900 = FALSE;
  26:main_sim900.h ****   licznik_blad_stanu_karty_SIM = 0;
  27:main_sim900.h ****   licznik_blad_zalogowania_u_operatora = 0;
  28:main_sim900.h ****   nazwa_operatora[0] = '\0';
  29:main_sim900.h ****   licznik_ogolny_blad_zalogowania = 0;
  30:main_sim900.h ****   blokada_clip = FALSE;
  31:main_sim900.h ****   nastepne_wysylane_polecenie_SIM900 = KOMENDA_KOLEJKI_BRAK_KOMENDY;
  32:main_sim900.h ****   poziom_sieci_gsm = POZIOM_SIECI_BLAD;
  33:main_sim900.h ****   filtruj_komendy_z_przedzialu(KOMENDA_KOLEJKI_USUN_SMSA_1,
  34:main_sim900.h ****                                KOMENDA_KOLEJKI_USUN_SMSA_20);
  35:main_sim900.h ****   filtruj_komendy_z_przedzialu(
  36:main_sim900.h ****       KOMENDA_KOLEJKI_KOMENDA_SIM900,
  37:main_sim900.h ****       KOMENDA_KOLEJKI_WYSLIJ_DO_SIM900_ODCZYTAJ_GODZINE);
  38:main_sim900.h ****   filtruj_komendy_z_przedzialu(
  39:main_sim900.h ****       KOMENDA_KOLEJKI_SPRAWDZ_PIN,
  40:main_sim900.h ****       KOMENDA_KOLEJKI_WPISZ_POZYCJE_1_W_KSIAZCE_TELEFONICZNEJ);
  41:main_sim900.h ****   filtruj_komendy_z_przedzialu(KOMENDA_KOLEJKI_WYSLIJ_SMSA_TEXT,
  42:main_sim900.h ****                                KOMENDA_KOLEJKI_WYSLIJ_PDU);
  43:main_sim900.h ****   modul_zalogowany_w_sieci = FALSE;
  44:main_sim900.h **** }
  45:main_sim900.h **** 
  46:main_sim900.h **** static uchar czy_polecenie_SIM900(PGM_P polecenie, const uchar liczba_znakow) {
  47:main_sim900.h ****   return strncmp_P(odebrany_blok_SIM900 + 2, polecenie, liczba_znakow) == 0;
  48:main_sim900.h **** }
  49:main_sim900.h **** 
  50:main_sim900.h **** static uchar *polozenie_polecenia_SIM900(PGM_P polecenie) {
 424               		.loc 2 50 59 is_stmt 1 view -0
 425               		.cfi_startproc
 426               	/* prologue: function */
 427               	/* frame size = 0 */
 428               	/* stack size = 0 */
 429               	.L__stack_usage = 0
  51:main_sim900.h ****   return strstr_P(odebrany_blok_SIM900, polecenie);
 430               		.loc 2 51 3 view .LVU101
 431               		.loc 2 51 10 is_stmt 0 view .LVU102
 432 0152 BC01      		movw r22,r24
 433 0154 80E0      		ldi r24,lo8(odebrany_blok_SIM900)
 434 0156 90E0      		ldi r25,hi8(odebrany_blok_SIM900)
 435               	.LVL28:
 436               		.loc 2 51 10 view .LVU103
 437 0158 0C94 0000 		jmp strstr_P
 438               	.LVL29:
 439               		.loc 2 51 10 view .LVU104
 440               		.cfi_endproc
 441               	.LFE55:
 444               	opoznienie_startowe:
 445               	.LFB78:
1072:main.c        **** 
1073:main.c        **** // Helper function to check if a number exists in EEPROM
1074:main.c        **** // Uses bufor_eeprom as temporary storage for comparison
1075:main.c        **** static void normalizuj_numer_9(const uchar *src, uchar *dst);
1076:main.c        **** 
1077:main.c        **** static uchar czy_numer_istnieje(const uchar *numer_telefonu) {
1078:main.c        ****   // Convert number to EEPROM block format
1079:main.c        ****   // We use a local buffer to avoid corrupting global buffers if possible,
1080:main.c        ****   // but porownaj_numer_telefonu_blok expects a block.
1081:main.c        ****   // Let's use bufor_eeprom as it is standard for this operation in this
1082:main.c        ****   // codebase.
1083:main.c        ****   konwertuj_telefon_na_blok_eeprom(
1084:main.c        ****       numer_telefonu, numer_telefonu + strlen((char *)numer_telefonu),
1085:main.c        ****       bufor_eeprom);
1086:main.c        **** 
1087:main.c        ****   for (uint nr_uzyt_clip = 0; nr_uzyt_clip < MAX_LICZBA_NUMEROW_TELEFONOW_BRAMA;
1088:main.c        ****        ++nr_uzyt_clip) {
1089:main.c        ****     if ((nr_uzyt_clip & 31u) == 0 && nr_uzyt_clip != 0)
1090:main.c        ****       wdt_reset();
1091:main.c        ****     if (porownaj_numer_telefonu_blok(
1092:main.c        ****             bufor_eeprom, (void *)EEPROM_NUMER_TELEFONU_BRAMA(nr_uzyt_clip))) {
1093:main.c        ****       return TRUE;
1094:main.c        ****     }
1095:main.c        ****   }
1096:main.c        ****   return FALSE;
1097:main.c        **** }
1098:main.c        **** 
1099:main.c        **** uchar wykonanie_komend_ukladow(void) {
1100:main.c        ****   const komenda_typ aktualnie_wykonywana_komenda = komendy_kolejka[0];
1101:main.c        **** 
1102:main.c        ****   switch (aktualnie_wykonywana_komenda) {
1103:main.c        ****   case KOMENDA_KOLEJKI_RESET_KOD_DOSTEPU: {
1104:main.c        ****     JESLI_EEPROM_ZAJETY_WYKONAJ_POZNIEJ();
1105:main.c        ****     kod_modulu[0] = bufor_eeprom[0] = 'A';
1106:main.c        ****     kod_modulu[1] = bufor_eeprom[1] = 'B';
1107:main.c        ****     kod_modulu[2] = bufor_eeprom[2] = 'C';
1108:main.c        ****     kod_modulu[3] = bufor_eeprom[3] = 'D';
1109:main.c        ****     zapisz_znaki_w_eeprom_bez_kopiowania(ADRES_EEPROM_KOD_DOSTEPU,
1110:main.c        ****                                          LICZBA_BAJTOW_KODU_DOSTEPU);
1111:main.c        ****     zapal_diode_led(50);
1112:main.c        ****     break;
1113:main.c        ****   }
1114:main.c        ****   case KOMENDA_KOLEJKI_RESET_USTAWIEN_0:
1115:main.c        ****   case KOMENDA_KOLEJKI_RESET_USTAWIEN_1:
1116:main.c        ****   case KOMENDA_KOLEJKI_RESET_USTAWIEN_2:
1117:main.c        ****   case KOMENDA_KOLEJKI_RESET_USTAWIEN_3:
1118:main.c        ****   case KOMENDA_KOLEJKI_RESET_USTAWIEN_4:
1119:main.c        ****   case KOMENDA_KOLEJKI_RESET_USTAWIEN_5:
1120:main.c        ****   case KOMENDA_KOLEJKI_RESET_USTAWIEN_6:
1121:main.c        ****   case KOMENDA_KOLEJKI_RESET_USTAWIEN_7:
1122:main.c        ****   case KOMENDA_KOLEJKI_RESET_USTAWIEN_8:
1123:main.c        ****   case KOMENDA_KOLEJKI_RESET_USTAWIEN_9:
1124:main.c        ****   case KOMENDA_KOLEJKI_RESET_USTAWIEN_10:
1125:main.c        ****   case KOMENDA_KOLEJKI_RESET_USTAWIEN_11:
1126:main.c        ****   case KOMENDA_KOLEJKI_RESET_USTAWIEN_12:
1127:main.c        ****   case KOMENDA_KOLEJKI_RESET_USTAWIEN_13:
1128:main.c        ****   case KOMENDA_KOLEJKI_RESET_USTAWIEN_14:
1129:main.c        ****   case KOMENDA_KOLEJKI_RESET_USTAWIEN_15:
1130:main.c        ****   case KOMENDA_KOLEJKI_RESET_USTAWIEN_16:
1131:main.c        ****   case KOMENDA_KOLEJKI_RESET_USTAWIEN_17:
1132:main.c        ****   case KOMENDA_KOLEJKI_RESET_USTAWIEN_18:
1133:main.c        ****   case KOMENDA_KOLEJKI_RESET_USTAWIEN_19:
1134:main.c        ****   case KOMENDA_KOLEJKI_RESET_USTAWIEN_20:
1135:main.c        ****   case KOMENDA_KOLEJKI_RESET_USTAWIEN_21:
1136:main.c        ****   case KOMENDA_KOLEJKI_RESET_USTAWIEN_22:
1137:main.c        ****   case KOMENDA_KOLEJKI_RESET_USTAWIEN_23:
1138:main.c        ****   case KOMENDA_KOLEJKI_RESET_USTAWIEN_24:
1139:main.c        ****   case KOMENDA_KOLEJKI_RESET_USTAWIEN_25:
1140:main.c        ****   case KOMENDA_KOLEJKI_RESET_USTAWIEN_26:
1141:main.c        ****   case KOMENDA_KOLEJKI_RESET_USTAWIEN_27:
1142:main.c        ****   case KOMENDA_KOLEJKI_RESET_USTAWIEN_28:
1143:main.c        ****   case KOMENDA_KOLEJKI_RESET_USTAWIEN_29:
1144:main.c        ****   case KOMENDA_KOLEJKI_RESET_USTAWIEN_30:
1145:main.c        ****   case KOMENDA_KOLEJKI_RESET_USTAWIEN_31: {
1146:main.c        ****     JESLI_EEPROM_ZAJETY_WYKONAJ_POZNIEJ();
1147:main.c        ****     const uchar nr_bloku =
1148:main.c        ****         aktualnie_wykonywana_komenda - KOMENDA_KOLEJKI_RESET_USTAWIEN_0;
1149:main.c        **** #define LICZBA_BAJTOW_ZAPISYWANA_W_JEDNEJ_KOMENDZIE 32
1150:main.c        ****     memset(bufor_eeprom, 0xff, LICZBA_BAJTOW_ZAPISYWANA_W_JEDNEJ_KOMENDZIE);
1151:main.c        ****     if (nr_bloku == 0) {
1152:main.c        ****       kod_modulu[0] = bufor_eeprom[1] = 'A';
1153:main.c        ****       kod_modulu[1] = bufor_eeprom[2] = 'B';
1154:main.c        ****       kod_modulu[2] = bufor_eeprom[3] = 'C';
1155:main.c        ****       kod_modulu[3] = bufor_eeprom[4] = 'D';
1156:main.c        ****       bufor_eeprom[5] = 0;
1157:main.c        ****       stan_wyjscie[0] = 0;
1158:main.c        ****       licznik_przelacznik_wyjscia[0] = 0;
1159:main.c        ****     }
1160:main.c        ****     zapisz_znaki_w_eeprom_bez_kopiowania(
1161:main.c        ****         nr_bloku * LICZBA_BAJTOW_ZAPISYWANA_W_JEDNEJ_KOMENDZIE,
1162:main.c        ****         LICZBA_BAJTOW_ZAPISYWANA_W_JEDNEJ_KOMENDZIE);
1163:main.c        ****     dodaj_komende(KOMENDA_KOLEJKI_RESET_USTAWIEN_0 + nr_bloku + 1);
1164:main.c        ****     zapal_diode_led(50);
1165:main.c        ****     break;
1166:main.c        ****   }
1167:main.c        ****   case KOMENDA_KOLEJKI_RESET_USTAWIEN_INICJALIZACJA: {
1168:main.c        ****     JESLI_EEPROM_ZAJETY_WYKONAJ_POZNIEJ();
1169:main.c        ****     uchar bledny_zapis = FALSE;
1170:main.c        ****     static const uchar tab_eeprom_fabryczny[6] PROGMEM = {
1171:main.c        ****         0xff, 'A', 'B', 'C', 'D', 0x00,
1172:main.c        ****     };
1173:main.c        ****     for (uint i = 0; i < 6; ++i) {
1174:main.c        ****       if (eeprom_read_byte((void *)i) !=
1175:main.c        ****           pgm_read_byte(tab_eeprom_fabryczny + i))
1176:main.c        ****         bledny_zapis = TRUE;
1177:main.c        ****     }
1178:main.c        ****     for (uint i = EEPROM_NUMER_TELEFONU_BRAMA_0;
1179:main.c        ****          i < EEPROM_NUMER_TELEFONU_BRAMA_0 +
1180:main.c        ****                  MAX_LICZBA_NUMEROW_TELEFONOW_BRAMA *
1181:main.c        ****                      LICZBA_BAJTOW_NUMERU_TELEFONU_W_EEPROM;
1182:main.c        ****          ++i) {
1183:main.c        ****       if (eeprom_read_byte((void *)i) != 0xff) {
1184:main.c        ****         bledny_zapis = TRUE;
1185:main.c        ****         break;
1186:main.c        ****       }
1187:main.c        ****     }
1188:main.c        ****     if (bledny_zapis) {
1189:main.c        ****       dodaj_komende(KOMENDA_KOLEJKI_RESET_USTAWIEN_0);
1190:main.c        ****       break;
1191:main.c        ****     }
1192:main.c        ****     inicjalizuj_parametry_modulu();
1193:main.c        ****     ustaw_stan_led(FALSE); // Wylacz diode po zakonczeniu resetu
1194:main.c        ****     break;
1195:main.c        ****   }
1196:main.c        ****   case KOMENDA_KOLEJKI_SPRAWDZ_UZYTKOWNIKOW_BRAMA: {
1197:main.c        ****     JESLI_EEPROM_ZAJETY_WYKONAJ_POZNIEJ();
1198:main.c        **** 
1199:main.c        ****     // if (blokada_sterowania_czasowa) { // REMOVED
1200:main.c        ****     //   // Poza dozwolonym czasem - ignoruj
1201:main.c        ****     //   break;
1202:main.c        ****     // }
1203:main.c        **** 
1204:main.c        ****     // Make a local copy of the phone number to prevent corruption
1205:main.c        ****     // if the global buffer changes during processing (e.g. new CLIP)
1206:main.c        ****     uchar numer_lokalny[MAX_LICZBA_ZNAKOW_TELEFON + 1];
1207:main.c        ****     strcpy((char *)numer_lokalny, (char *)numer_telefonu_ktory_dzwoni);
1208:main.c        **** 
1209:main.c        ****     // Konwertuj numer dla późniejszego użycia
1210:main.c        ****     konwertuj_telefon_na_blok_eeprom(
1211:main.c        ****         &numer_lokalny[0], &numer_lokalny[strlen((char *)numer_lokalny)],
1212:main.c        ****         &bufor_eeprom[0]);
1213:main.c        **** 
1214:main.c        ****     // Sprawdź czy numer jest na liście (PEŁNY NUMER)
1215:main.c        ****     uchar znaleziono = FALSE;
1216:main.c        ****     if (tryb_pracy != 1) {
1217:main.c        ****       // Tylko w trybie prywatnym sprawdzamy listę
1218:main.c        ****       for (uint nr_uzyt_clip = 0;
1219:main.c        ****            nr_uzyt_clip < MAX_LICZBA_NUMEROW_TELEFONOW_BRAMA; ++nr_uzyt_clip) {
1220:main.c        ****         if (porownaj_numer_telefonu_blok(
1221:main.c        ****                 &bufor_eeprom[0],
1222:main.c        ****                 (void *)EEPROM_NUMER_TELEFONU_BRAMA(nr_uzyt_clip))) {
1223:main.c        ****           znaleziono = TRUE;
1224:main.c        ****           break;
1225:main.c        ****         }
1226:main.c        ****       }
1227:main.c        ****     }
1228:main.c        **** 
1229:main.c        ****     // SKRYBA: Jeśli nie znaleziono pełnego, sprawdź skrócony (ostatnie 9
1230:main.c        ****     // cyfr) SKRYBA logic removed
1231:main.c        **** 
1232:main.c        ****     // Teraz sprawdź tryb i otwórz bramę (TYLKO W TRYBIE CLIP!)
1233:main.c        ****     if (tryb_clip) {
1234:main.c        ****       if (tryb_pracy == 1) {
1235:main.c        ****         // Tryb publiczny - otwórz dla każdego
1236:main.c        ****         ustaw_wyjscie_clip();
1237:main.c        ****       } else if (znaleziono) {
1238:main.c        ****         // Tryb prywatny - otwórz tylko dla znalezionych
1239:main.c        ****         ustaw_wyjscie_clip();
1240:main.c        ****       }
1241:main.c        ****     }
1242:main.c        ****     // W trybie DTMF NIE włączamy wyjścia - czekamy na klawisz '1'
1243:main.c        **** 
1244:main.c        ****     break;
1245:main.c        ****   }
1246:main.c        ****   case KOMENDA_KOLEJKI_DODAJ_UZYTKOWNIKA_BRAMA: {
1247:main.c        **** #ifndef USE_EXTERNAL_EEPROM
1248:main.c        ****     JESLI_EEPROM_ZAJETY_WYKONAJ_POZNIEJ();
1249:main.c        **** #endif
1250:main.c        **** 
1251:main.c        ****     // Check for duplicates using the helper function
1252:main.c        ****     if (czy_numer_istnieje(numer_telefonu_do_ktorego_dzwonic)) {
1253:main.c        ****       return TRUE; // Duplicate found, abort
1254:main.c        ****     }
1255:main.c        **** 
1256:main.c        ****     // Re-convert because czy_numer_istnieje uses bufor_eeprom which might be
1257:main.c        ****     // modified (though in this implementation it sets it correctly for
1258:main.c        ****     // writing too) But to be safe and consistent with original logic:
1259:main.c        ****     konwertuj_telefon_na_blok_eeprom(
1260:main.c        ****         &numer_telefonu_do_ktorego_dzwonic[0],
1261:main.c        ****         &numer_telefonu_do_ktorego_dzwonic[strlen(
1262:main.c        ****             (char *)numer_telefonu_do_ktorego_dzwonic)],
1263:main.c        ****         &bufor_eeprom[0]);
1264:main.c        **** 
1265:main.c        ****     uint max_pozycja = MAX_LICZBA_NUMEROW_TELEFONOW_BRAMA;
1266:main.c        ****     for (uint nr_uzyt_clip = 0; nr_uzyt_clip < max_pozycja; ++nr_uzyt_clip) {
1267:main.c        ****       if ((nr_uzyt_clip & 31u) == 0)
1268:main.c        ****         wdt_reset();
1269:main.c        ****       if (not czy_aktywny_numer_telefonu_brama(nr_uzyt_clip)) {
1270:main.c        **** #ifdef USE_EXTERNAL_EEPROM
1271:main.c        ****         /* Zapis synchroniczny do AT24C512 – nie zależy od bufora i
1272:main.c        ****          * zapisz_bajt_w_EEPROM */
1273:main.c        ****         {
1274:main.c        ****           uint16_t addr = (uint16_t)EEPROM_NUMER_TELEFONU_BRAMA(nr_uzyt_clip);
1275:main.c        ****           for (uchar i = 0; i < LICZBA_BAJTOW_NUMERU_TELEFONU_W_EEPROM; i++) {
1276:main.c        ****             at24c512_write_byte(addr + i, bufor_eeprom[i]);
1277:main.c        ****             while (!at24c512_is_ready())
1278:main.c        ****               ;
1279:main.c        ****             wdt_reset();
1280:main.c        ****           }
1281:main.c        ****         }
1282:main.c        **** #else
1283:main.c        ****         zapisz_znaki_w_eeprom_bez_kopiowania(
1284:main.c        ****             EEPROM_NUMER_TELEFONU_BRAMA(nr_uzyt_clip),
1285:main.c        ****             LICZBA_BAJTOW_NUMERU_TELEFONU_W_EEPROM);
1286:main.c        **** #endif
1287:main.c        ****         break;
1288:main.c        ****       }
1289:main.c        ****     }
1290:main.c        ****     break;
1291:main.c        ****   }
1292:main.c        ****   case KOMENDA_KOLEJKI_DODAJ_UZYTKOWNIKA_SKRYBA: {
1293:main.c        ****     // USUNIĘTA
1294:main.c        ****     break;
1295:main.c        ****   }
1296:main.c        ****   case KOMENDA_KOLEJKI_DODAJ_SUPER_USERA: {
1297:main.c        ****     // USUNIĘTA - scalona z DODAJ_UZYTKOWNIKA_BRAMA
1298:main.c        ****     break;
1299:main.c        ****   }
1300:main.c        ****   case KOMENDA_KOLEJKI_USUN_UZYTKOWNIKA_BRAMA: {
1301:main.c        **** #ifndef USE_EXTERNAL_EEPROM
1302:main.c        ****     JESLI_EEPROM_ZAJETY_WYKONAJ_POZNIEJ();
1303:main.c        **** #endif
1304:main.c        ****     konwertuj_telefon_na_blok_eeprom(&numer_telefonu_do_ktorego_dzwonic[0],
1305:main.c        ****                                      &numer_telefonu_do_ktorego_dzwonic[strlen(
1306:main.c        ****                                          numer_telefonu_do_ktorego_dzwonic)],
1307:main.c        ****                                      &bufor_eeprom[0]);
1308:main.c        ****     for (uint nr_uzyt_clip = 0;
1309:main.c        ****          nr_uzyt_clip < MAX_LICZBA_NUMEROW_TELEFONOW_BRAMA; ++nr_uzyt_clip) {
1310:main.c        ****       if (porownaj_numer_telefonu_blok(
1311:main.c        ****               &bufor_eeprom[0],
1312:main.c        ****               (void *)EEPROM_NUMER_TELEFONU_BRAMA(nr_uzyt_clip))) {
1313:main.c        ****         numer_telefonu_do_ktorego_dzwonic[0] = '\0';
1314:main.c        ****         konwertuj_telefon_na_blok_eeprom(&numer_telefonu_do_ktorego_dzwonic[0],
1315:main.c        ****                                          &numer_telefonu_do_ktorego_dzwonic[1],
1316:main.c        ****                                          &bufor_eeprom[0]);
1317:main.c        **** #ifdef USE_EXTERNAL_EEPROM
1318:main.c        ****         {
1319:main.c        ****           uint16_t addr = (uint16_t)EEPROM_NUMER_TELEFONU_BRAMA(nr_uzyt_clip);
1320:main.c        ****           for (uchar i = 0; i < LICZBA_BAJTOW_NUMERU_TELEFONU_W_EEPROM; i++) {
1321:main.c        ****             at24c512_write_byte(addr + i,
1322:main.c        ****                                 bufor_eeprom[i]); /* 0xFF = pusty slot */
1323:main.c        ****             while (!at24c512_is_ready())
1324:main.c        ****               ;
1325:main.c        ****           }
1326:main.c        ****         }
1327:main.c        **** #else
1328:main.c        ****         zapisz_znaki_w_eeprom_bez_kopiowania(
1329:main.c        ****             EEPROM_NUMER_TELEFONU_BRAMA(nr_uzyt_clip),
1330:main.c        ****             LICZBA_BAJTOW_NUMERU_TELEFONU_W_EEPROM);
1331:main.c        **** #endif
1332:main.c        ****         break;
1333:main.c        ****       }
1334:main.c        ****     }
1335:main.c        ****     break;
1336:main.c        ****   }
1337:main.c        ****   default:
1338:main.c        ****     return FALSE;
1339:main.c        ****   }
1340:main.c        ****   return TRUE;
1341:main.c        **** }
1342:main.c        **** 
1343:main.c        **** uchar wykonanie_komend_powiadomien(void) {
1344:main.c        ****   const komenda_typ aktualnie_wykonywana_komenda = komendy_kolejka[0];
1345:main.c        **** 
1346:main.c        ****   const uchar czy_gsm_zajety =
1347:main.c        ****       flaga_odczytywanie_smsa || flaga_wysylanie_smsa ||
1348:main.c        ****       wykonywanie_rozmowy_telefonicznej ||
1349:main.c        ****       trwa_rozmowa_przychodzaca_od_uzytkownika ||
1350:main.c        ****       aktualnie_wysylane_polecenie_SIM900 != KOMENDA_KOLEJKI_BRAK_KOMENDY ||
1351:main.c        ****       opoznienie_SIM900_100MS || czekanie_na_odebranie_zachety;
1352:main.c        **** 
1353:main.c        ****   const uchar czy_mozna_wysylac_dane_do_SIM900 =
1354:main.c        ****       !czy_gsm_zajety && CZY_MOZNA_WYSYLAC_DANE_SIM900() &&
1355:main.c        ****       czy_jest_bezczynny_SIM900();
1356:main.c        **** 
1357:main.c        ****   switch (aktualnie_wykonywana_komenda) {
1358:main.c        ****   case KOMENDA_KOLEJKI_WYSLIJ_RAPORT_UZYTKOWNIKOW: {
1359:main.c        ****     if (not czy_mozna_wysylac_dane_do_SIM900 ||
1360:main.c        ****         wysylanie_smsa_clipa != WYSYLANIE_SMSA_CLIPA_BRAK) {
1361:main.c        ****       dodaj_komende(aktualnie_wykonywana_komenda);
1362:main.c        ****       break;
1363:main.c        ****     }
1364:main.c        ****     JESLI_EEPROM_ZAJETY_WYKONAJ_POZNIEJ();
1365:main.c        ****     uchar *sms = &tekst_wysylanego_smsa[0];
1366:main.c        ****     *sms++ = '*';
1367:main.c        ****     for (;;) {
1368:main.c        ****       if ((numer_skopiowanego_telefonu_do_raportu_uzytkownikow_brama & 31u) ==
1369:main.c        ****           0)
1370:main.c        ****         wdt_reset();
1371:main.c        ****       if (czy_aktywny_numer_telefonu_brama(
1372:main.c        ****               numer_skopiowanego_telefonu_do_raportu_uzytkownikow_brama)) {
1373:main.c        ****         sms += kopiuj_blok_eeprom_na_telefon(
1374:main.c        ****             (void *)EEPROM_NUMER_TELEFONU_BRAMA(
1375:main.c        ****                 numer_skopiowanego_telefonu_do_raportu_uzytkownikow_brama),
1376:main.c        ****             sms, MAX_LICZBA_ZNAKOW_TELEFON + 1);
1377:main.c        ****         *sms++ = '#';
1378:main.c        ****         *sms++ = '\n';
1379:main.c        ****         ++numer_skopiowanego_telefonu_do_raportu_uzytkownikow_brama;
1380:main.c        ****         if ((sms + MAX_LICZBA_ZNAKOW_TELEFON + 1 >=
1381:main.c        ****              &tekst_wysylanego_smsa[MAX_LICZBA_ZNAKOW_SMS]) ||
1382:main.c        ****             (numer_skopiowanego_telefonu_do_raportu_uzytkownikow_brama >=
1383:main.c        ****              MAX_LICZBA_NUMEROW_TELEFONOW_BRAMA_USER)) {
1384:main.c        ****           if ((numer_skopiowanego_telefonu_do_raportu_uzytkownikow_brama <
1385:main.c        ****                MAX_LICZBA_NUMEROW_TELEFONOW_BRAMA_USER))
1386:main.c        ****             dodaj_komende(aktualnie_wykonywana_komenda);
1387:main.c        ****           *sms = '\0';
1388:main.c        ****           dodaj_komende(KOMENDA_KOLEJKI_WYSLIJ_SMSA_TEXT);
1389:main.c        ****           wysylanie_smsa_clipa = WYSYLANIE_SMSA_WYSYLANIE;
1390:main.c        ****           break;
1391:main.c        ****         }
1392:main.c        ****       } else {
1393:main.c        ****         if (++numer_skopiowanego_telefonu_do_raportu_uzytkownikow_brama >=
1394:main.c        ****             MAX_LICZBA_NUMEROW_TELEFONOW_BRAMA_USER) {
1395:main.c        ****           if (sms != &tekst_wysylanego_smsa[0]) {
1396:main.c        ****             *sms = '\0';
1397:main.c        ****             dodaj_komende(KOMENDA_KOLEJKI_WYSLIJ_SMSA_TEXT);
1398:main.c        ****             wysylanie_smsa_clipa = WYSYLANIE_SMSA_WYSYLANIE;
1399:main.c        ****           }
1400:main.c        ****           break;
1401:main.c        ****         }
1402:main.c        ****       }
1403:main.c        ****     }
1404:main.c        ****     break;
1405:main.c        ****   }
1406:main.c        ****   case KOMENDA_KOLEJKI_WYSLIJ_RAPORT_USER_ALL: {
1407:main.c        ****     if (not czy_mozna_wysylac_dane_do_SIM900 ||
1408:main.c        ****         wysylanie_smsa_clipa != WYSYLANIE_SMSA_CLIPA_BRAK) {
1409:main.c        ****       dodaj_komende(aktualnie_wykonywana_komenda);
1410:main.c        ****       break;
1411:main.c        ****     }
1412:main.c        ****     JESLI_EEPROM_ZAJETY_WYKONAJ_POZNIEJ();
1413:main.c        ****     uchar *sms = &tekst_wysylanego_smsa[0];
1414:main.c        ****     *sms = '\0';
1415:main.c        **** 
1416:main.c        ****     for (;;) {
1417:main.c        ****       if (numer_skopiowanego_telefonu_do_raportu_uzytkownikow_brama >=
1418:main.c        ****           MAX_LICZBA_NUMEROW_TELEFONOW_BRAMA) {
1419:main.c        ****         if (sms != &tekst_wysylanego_smsa[0]) {
1420:main.c        ****           dodaj_komende(KOMENDA_KOLEJKI_WYSLIJ_SMSA_TEXT);
1421:main.c        ****           wysylanie_smsa_clipa = WYSYLANIE_SMSA_WYSYLANIE;
1422:main.c        ****         }
1423:main.c        ****         break;
1424:main.c        ****       }
1425:main.c        **** 
1426:main.c        ****       // Mapowanie iteratora bezpośrednio na adres EEPROM (Linear 1-2000
1427:main.c        ****       // mapping)
1428:main.c        ****       uint eeprom_idx =
1429:main.c        ****           numer_skopiowanego_telefonu_do_raportu_uzytkownikow_brama;
1430:main.c        ****       if ((eeprom_idx & 31u) == 0)
1431:main.c        ****         wdt_reset();
1432:main.c        ****       if (czy_aktywny_numer_telefonu_brama(eeprom_idx)) {
1433:main.c        ****         // Numeracja liniowa 1-2000 (zgodna z GUI):
1434:main.c        ****         uint display_idx = eeprom_idx + 1;
1435:main.c        **** 
1436:main.c        ****         char entry_buf[20];
1437:main.c        ****         uchar pelny_numer[MAX_LICZBA_ZNAKOW_TELEFON + 1];
1438:main.c        **** 
1439:main.c        ****         kopiuj_blok_eeprom_na_telefon(
1440:main.c        ****             (void *)EEPROM_NUMER_TELEFONU_BRAMA(eeprom_idx), pelny_numer,
1441:main.c        ****             MAX_LICZBA_ZNAKOW_TELEFON + 1);
1442:main.c        **** 
1443:main.c        ****         uchar skrocony[12];
1444:main.c        ****         wyciagnij_ostatnie_cyfry(pelny_numer, skrocony, 9);
1445:main.c        **** 
1446:main.c        ****         sprintf(entry_buf, "%d:%s ", display_idx, (char *)skrocony);
1447:main.c        **** 
1448:main.c        ****         if ((sms + strlen(entry_buf)) >=
1449:main.c        ****             &tekst_wysylanego_smsa[MAX_LICZBA_ZNAKOW_SMS]) {
1450:main.c        ****           if (sms == &tekst_wysylanego_smsa[0]) {
1451:main.c        ****             strcpy((char *)sms, entry_buf);
1452:main.c        ****             dodaj_komende(aktualnie_wykonywana_komenda);
1453:main.c        ****             dodaj_komende(KOMENDA_KOLEJKI_WYSLIJ_SMSA_TEXT);
1454:main.c        ****             wysylanie_smsa_clipa = WYSYLANIE_SMSA_WYSYLANIE;
1455:main.c        ****             // Zwiększ licznik, bo ten element już wysłaliśmy (jako jedyny)
1456:main.c        ****             ++numer_skopiowanego_telefonu_do_raportu_uzytkownikow_brama;
1457:main.c        ****             break;
1458:main.c        ****           }
1459:main.c        ****           // Bufor pełny - wyślij co mamy, nie zwiększaj licznika (powtórzymy
1460:main.c        ****           // ten element w nast. SMS)
1461:main.c        ****           dodaj_komende(aktualnie_wykonywana_komenda);
1462:main.c        ****           dodaj_komende(KOMENDA_KOLEJKI_WYSLIJ_SMSA_TEXT);
1463:main.c        ****           wysylanie_smsa_clipa = WYSYLANIE_SMSA_WYSYLANIE;
1464:main.c        ****           *sms = '\0';
1465:main.c        ****           break;
1466:main.c        ****         }
1467:main.c        ****         strcpy((char *)sms, entry_buf);
1468:main.c        ****         sms += strlen(entry_buf);
1469:main.c        ****       }
1470:main.c        ****       ++numer_skopiowanego_telefonu_do_raportu_uzytkownikow_brama;
1471:main.c        ****     }
1472:main.c        ****     break;
1473:main.c        ****   }
1474:main.c        **** 
1475:main.c        ****   default:
1476:main.c        ****     return FALSE;
1477:main.c        ****   }
1478:main.c        ****   return TRUE;
1479:main.c        **** }
1480:main.c        **** 
1481:main.c        **** void wykonanie_komend(void) {
1482:main.c        ****   if (wykonanie_komend_SIM900())
1483:main.c        ****     ;
1484:main.c        ****   else if (wykonanie_komend_ukladow())
1485:main.c        ****     ;
1486:main.c        ****   else if (wykonanie_komend_powiadomien())
1487:main.c        ****     ;
1488:main.c        ****   else
1489:main.c        ****     ;
1490:main.c        ****   usun_komende();
1491:main.c        **** }
1492:main.c        **** 
1493:main.c        **** __attribute__((unused)) void test_sms_clip_100ms(void) {
1494:main.c        ****   // static ulong licznik_sms;
1495:main.c        ****   // if ( ++licznik_sms > 60 * 10 )
1496:main.c        ****   //{
1497:main.c        ****   //	licznik_sms = 0;
1498:main.c        **** 
1499:main.c        ****   // tekst_wysylanego_smsa[0] = 'A';
1500:main.c        ****   // tekst_wysylanego_smsa[1] = 'B';
1501:main.c        ****   // tekst_wysylanego_smsa[2] = 'C';
1502:main.c        ****   // tekst_wysylanego_smsa[3] = 'D';
1503:main.c        ****   // tekst_wysylanego_smsa[4] = 0;
1504:main.c        ****   // static const char tel[] PROGMEM = "731314727";
1505:main.c        ****   ////static const char tel[] PROGMEM = "505691117";
1506:main.c        ****   // memcpy_R(numer_telefonu_wysylanego_smsa, tel);
1507:main.c        ****   // dodaj_komende(KOMENDA_KOLEJKI_WYSLIJ_SMSA_TEXT);
1508:main.c        **** 
1509:main.c        ****   // memcpy_R(numer_telefonu_do_ktorego_dzwonic, tel);
1510:main.c        ****   // dodaj_komende(KOMENDA_KOLEJKI_WYKONAJ_ROZMOWE);
1511:main.c        ****   //}
1512:main.c        **** }
1513:main.c        **** 
1514:main.c        **** void steruj_wejscia_wyjscia_100ms(void) {
1515:main.c        ****   aktualizuj_stan_wyzwolenia_wejsc_100ms();
1516:main.c        ****   steruj_wejsciem_reset_100ms();
1517:main.c        ****   steruj_wyjscia_100ms();
1518:main.c        **** }
1519:main.c        **** 
1520:main.c        **** void zapis_w_eeprom_stanu_wyjsc(void) {
1521:main.c        ****   if (not czy_wolny_eeprom())
1522:main.c        ****     return;
1523:main.c        ****   uchar par = 0;
1524:main.c        ****   if ((stan_wyjscie[0] != 0) ^ (licznik_przelacznik_wyjscia[0] != 0))
1525:main.c        ****     par |= BIT(0);
1526:main.c        ****   if (par != eeprom_read_byte((void *)EEPROM_USTAWIENIE_STANOW_WYJSC))
1527:main.c        ****     zapisz_znaki_w_eeprom(&par, (uint)EEPROM_USTAWIENIE_STANOW_WYJSC, 1);
1528:main.c        **** }
1529:main.c        **** 
1530:main.c        **** // void test_clip_na_101(void)
1531:main.c        **** //{
1532:main.c        **** //	if ( not modul_zalogowany_w_sieci )
1533:main.c        **** //		return;
1534:main.c        **** //	static uint licznik_101;
1535:main.c        **** //	if ( ++licznik_101 < 2 * 60 * 10 )
1536:main.c        **** //		return;
1537:main.c        **** //	licznik_101 = 0;
1538:main.c        **** //	static const char doladowanie[] PROGMEM = "*101#";
1539:main.c        **** //	strcpy_P(numer_telefonu_do_ktorego_dzwonic, doladowanie);
1540:main.c        **** //	dodaj_komende(KOMENDA_KOLEJKI_WYKONAJ_ROZMOWE);
1541:main.c        **** // }
1542:main.c        **** 
1543:main.c        **** void steruj_urzadzeniem_100MS(void) {
1544:main.c        ****   steruj_wejscia_wyjscia_100ms();
1545:main.c        ****   steruj_SIM900_100MS();
1546:main.c        **** 
1547:main.c        ****   // Service lock LED blinking - DISABLED (causes unwanted micro-blinks)
1548:main.c        ****   /*
1549:main.c        ****   if (blokada_systemu && !blokada_systemu_tymczasowo_odblokowana) {
1550:main.c        ****     if (licznik_service_lock_led_100ms > 0) {
1551:main.c        ****       --licznik_service_lock_led_100ms;
1552:main.c        ****     } else {
1553:main.c        ****       // State machine: 0=ON, 1=OFF (counts to 5, then pauses)
1554:main.c        ****       switch (service_lock_led_state) {
1555:main.c        ****       case 0: // ON for 100ms
1556:main.c        ****         ustaw_stan_led(TRUE);
1557:main.c        ****         licznik_service_lock_led_100ms = 1;
1558:main.c        ****         service_lock_led_state = 1;
1559:main.c        ****         break;
1560:main.c        ****       case 1: // OFF for 200ms
1561:main.c        ****         ustaw_stan_led(FALSE);
1562:main.c        ****         licznik_service_lock_led_100ms = 2;
1563:main.c        ****         service_lock_blink_count++;
1564:main.c        ****         if (service_lock_blink_count >= 5) {
1565:main.c        ****           // After 5 blinks, pause for 2s
1566:main.c        ****           service_lock_blink_count = 0;
1567:main.c        ****           licznik_service_lock_led_100ms = 20; // 2s pause
1568:main.c        ****         }
1569:main.c        ****         service_lock_led_state = 0; // Back to ON (or stay OFF during pause)
1570:main.c        ****         break;
1571:main.c        ****       }
1572:main.c        ****     }
1573:main.c        ****   } else {
1574:main.c        ****   */
1575:main.c        ****   {
1576:main.c        ****     // Normal LED logic (when not locked or temporarily unlocked)
1577:main.c        ****     if (licznik_100ms_dioda_led) {
1578:main.c        ****       if (--licznik_100ms_dioda_led == 0)
1579:main.c        ****         ustaw_stan_led(FALSE);
1580:main.c        ****       else
1581:main.c        ****         ustaw_stan_led(TRUE);
1582:main.c        ****     }
1583:main.c        ****   }
1584:main.c        **** 
1585:main.c        ****   // Aktualizacja timera blokady komend REPORT/USER
1586:main.c        ****   if (timer_report_user_100ms > 0) {
1587:main.c        ****     --timer_report_user_100ms;
1588:main.c        ****     if (timer_report_user_100ms == 0) {
1589:main.c        ****       // Okno czasowe minelo - resetuj licznik
1590:main.c        ****       licznik_report_user = 0;
1591:main.c        ****     }
1592:main.c        ****   } else {
1593:main.c        ****     // Timer jest 0 - upewnij sie ze licznik tez jest 0 (ochrona przed
1594:main.c        ****     // bledami)
1595:main.c        ****     licznik_report_user = 0;
1596:main.c        ****   }
1597:main.c        **** 
1598:main.c        ****   // --- CLIP Debounce Timer Decrement ---
1599:main.c        ****   if (clip_debounce_timer_100ms > 0) {
1600:main.c        ****     clip_debounce_timer_100ms--;
1601:main.c        ****   }
1602:main.c        **** 
1603:main.c        ****   // Timeout USSD - 30 sekund
1604:main.c        ****   if (oczekiwanie_na_ussd && licznik_timeout_ussd_100ms > 0) {
1605:main.c        ****     --licznik_timeout_ussd_100ms;
1606:main.c        ****     if (licznik_timeout_ussd_100ms == 0) {
1607:main.c        ****       // Timeout - wyślij SMS z informacją
1608:main.c        ****       strcpy((char *)numer_telefonu_wysylanego_smsa,
1609:main.c        ****              (char *)numer_telefonu_odebranego_smsa);
1610:main.c        ****       strcpy((char *)tekst_wysylanego_smsa, "USSD timeout - brak odpowiedzi");
1611:main.c        ****       dodaj_komende(KOMENDA_KOLEJKI_WYSLIJ_SMSA_TEXT);
1612:main.c        **** 
1613:main.c        ****       // Wyczyść flagę
1614:main.c        ****       oczekiwanie_na_ussd = FALSE;
1615:main.c        ****     }
1616:main.c        ****   }
1617:main.c        **** 
1618:main.c        ****   // Auto-sync czasu: Wyślij SMS do siebie jeśli aktywny i zalogowany w sieci
1619:main.c        ****   static uchar autosync_sms_wyslany = FALSE;
1620:main.c        ****   static uint autosync_timer_100ms = 0;
1621:main.c        **** 
1622:main.c        ****   if (autosync_czas_aktywny && !autosync_sms_wyslany &&
1623:main.c        ****       modul_zalogowany_w_sieci) {
1624:main.c        ****     // Odczekaj 25 sekund po zalogowaniu do sieci (stabilizacja modemu +
1625:main.c        ****     // aktualizacja RTC)
1626:main.c        ****     if (autosync_timer_100ms < 250) {
1627:main.c        ****       autosync_timer_100ms++;
1628:main.c        ****     } else {
1629:main.c        ****       // Po 25 sekundach sprawdź czas z RTC modemu
1630:main.c        ****       // MyNum sync logic removed
1631:main.c        ****       autosync_sms_wyslany = TRUE;
1632:main.c        ****     }
1633:main.c        ****   }
1634:main.c        **** 
1635:main.c        ****   // Reset flagi gdy auto-sync zostanie wyłączony
1636:main.c        ****   if (!autosync_czas_aktywny) {
1637:main.c        ****     autosync_sms_wyslany = FALSE;
1638:main.c        ****     autosync_timer_100ms = 0;
1639:main.c        ****   }
1640:main.c        **** 
1641:main.c        ****   // Mechanizm wykrywania zablokowanej kolejki i czyszczenia starych komend
1642:main.c        ****   // SMS
1643:main.c        ****   const komenda_typ pierwsza_komenda = komendy_kolejka[0];
1644:main.c        ****   if (pierwsza_komenda != KOMENDA_KOLEJKI_BRAK_KOMENDY) {
1645:main.c        ****     // Sprawdz czy pierwsza komenda to SMS - jesli tak i stoi zbyt dlugo,
1646:main.c        ****     // wyczysc
1647:main.c        ****     if (pierwsza_komenda >= KOMENDA_KOLEJKI_WYSLIJ_SMSA_TEXT &&
1648:main.c        ****         pierwsza_komenda <= KOMENDA_KOLEJKI_WYSLIJ_SMSA_PDU) {
1649:main.c        ****       // To jest komenda SMS - sprawdz czy stoi zbyt dlugo
1650:main.c        ****       if (pierwsza_komenda == ostatnia_pierwsza_komenda) {
1651:main.c        ****         // Ta sama komenda SMS jest na poczatku kolejki - kolejka moze stac
1652:main.c        ****         if (licznik_kolejka_stoi_100ms < MAX_CZAS_KOLEJKA_STOI_100MS)
1653:main.c        ****           ++licznik_kolejka_stoi_100ms;
1654:main.c        ****         else {
1655:main.c        ****           // Komenda SMS stoi juz 30 sekund - wyczysc wszystkie komendy SMS i
1656:main.c        ****           // wznow dzialanie
1657:main.c        ****           filtruj_komendy_z_przedzialu(KOMENDA_KOLEJKI_WYSLIJ_SMSA_TEXT,
1658:main.c        ****                                        KOMENDA_KOLEJKI_WYSLIJ_SMSA_PDU);
1659:main.c        ****           if (licznik_awaryjnych_resetow_kolejki < 0xFFFF)
1660:main.c        ****             ++licznik_awaryjnych_resetow_kolejki;
1661:main.c        **** 
1662:main.c        ****           filtruj_i_dodaj_komende(KOMENDA_KOLEJKI_USUN_WSZYSTKIE_SMSY);
1663:main.c        **** 
1664:main.c        ****           // Resetuj blokade komend REPORT/USER aby wznowic dzialanie
1665:main.c        ****           licznik_report_user = 0;
1666:main.c        ****           timer_report_user_100ms = 0;
1667:main.c        **** 
1668:main.c        ****           // Resetuj liczniki kolejki
1669:main.c        ****           licznik_kolejka_stoi_100ms = 0;
1670:main.c        ****           ostatnia_pierwsza_komenda = KOMENDA_KOLEJKI_BRAK_KOMENDY;
1671:main.c        **** 
1672:main.c        ****           // Resetuj flage wysylania SMS (na wypadek zablokowania)
1673:main.c        ****           flaga_wysylanie_smsa = 0;
1674:main.c        ****         }
1675:main.c        ****       } else {
1676:main.c        ****         // Pierwsza komenda SMS sie zmienila - kolejka dziala
1677:main.c        ****         ostatnia_pierwsza_komenda = pierwsza_komenda;
1678:main.c        ****         licznik_kolejka_stoi_100ms = 0;
1679:main.c        ****       }
1680:main.c        ****     } else {
1681:main.c        ****       // To nie jest komenda SMS - resetuj licznik (nie interesuje nas)
1682:main.c        ****       ostatnia_pierwsza_komenda = pierwsza_komenda;
1683:main.c        ****       licznik_kolejka_stoi_100ms = 0;
1684:main.c        ****     }
1685:main.c        ****   } else {
1686:main.c        ****     // Kolejka jest pusta
1687:main.c        ****     ostatnia_pierwsza_komenda = KOMENDA_KOLEJKI_BRAK_KOMENDY;
1688:main.c        ****     licznik_kolejka_stoi_100ms = 0;
1689:main.c        ****   }
1690:main.c        **** 
1691:main.c        ****   // Watchdog pilnujacy zakleszczonego wysylania SMS
1692:main.c        ****   if (flaga_wysylanie_smsa) {
1693:main.c        ****     if (licznik_watchdog_wysylanie_smsa_100ms < WATCHDOG_WYSYLANIA_SMS_100MS) {
1694:main.c        ****       ++licznik_watchdog_wysylanie_smsa_100ms;
1695:main.c        ****     } else {
1696:main.c        ****       licznik_watchdog_wysylanie_smsa_100ms = 0;
1697:main.c        ****       // Awaryjne odblokowanie
1698:main.c        ****       watchdog_sms_disarm();
1699:main.c        ****       flaga_wysylanie_smsa = 0;
1700:main.c        ****       liczba_prob_wyslania_smsa = 0;
1701:main.c        ****       czekanie_na_odebranie_zachety = FALSE;
1702:main.c        ****       wysylanie_smsa_clipa = WYSYLANIE_SMSA_CLIPA_BRAK;
1703:main.c        **** 
1704:main.c        ****       if (liczba_kolejnych_watchdogow_wysylania < 255)
1705:main.c        ****         ++liczba_kolejnych_watchdogow_wysylania;
1706:main.c        ****       if (liczba_kolejnych_watchdogow_wysylania >= 3) {
1707:main.c        ****         liczba_kolejnych_watchdogow_wysylania = 0;
1708:main.c        ****         reset_modulu_SIM900();
1709:main.c        ****       }
1710:main.c        ****     }
1711:main.c        ****   } else {
1712:main.c        ****     licznik_watchdog_wysylanie_smsa_100ms = 0;
1713:main.c        ****     liczba_kolejnych_watchdogow_wysylania = 0;
1714:main.c        ****   }
1715:main.c        **** 
1716:main.c        ****   if (watchdog_sms_aktywny) {
1717:main.c        ****     if (watchdog_sms_licznik_100ms < WATCHDOG_SMS_TIMEOUT_100MS) {
1718:main.c        ****       ++watchdog_sms_licznik_100ms;
1719:main.c        ****     } else {
1720:main.c        ****       /*
1721:main.c        ****        * Watchdog SMS przekroczony:
1722:main.c        ****        * zamiast twardo resetować całe uC (wdt_enable + while(1)),
1723:main.c        ****        * przechodzimy w łagodny tryb SAFE:
1724:main.c        ****        *  - wyłączamy watchdog SMS
1725:main.c        ****        *  - ustawiamy okno bezpieczeństwa, w którym SMS-y są ignorowane
1726:main.c        ****        * Dzięki temu podczas wysyłki raportu GSM moduł nie będzie się
1727:main.c        ****        * resetował.
1728:main.c        ****        */
1729:main.c        ****       watchdog_sms_trwa_reset = FALSE;
1730:main.c        ****       watchdog_sms_safe_mode_100ms = WATCHDOG_SMS_SAFE_MODE_100MS;
1731:main.c        ****       watchdog_sms_disarm();
1732:main.c        ****     }
1733:main.c        ****   } else if (watchdog_sms_safe_mode_100ms) {
1734:main.c        ****     --watchdog_sms_safe_mode_100ms;
1735:main.c        ****   }
1736:main.c        **** 
1737:main.c        ****   // Obsluga szybkich blyskow LED
1738:main.c        ****   if (liczba_blyskow_led > 0) {
1739:main.c        ****     ustaw_stan_led(stan_cyklu_blysku < 2);
1740:main.c        ****     if (++stan_cyklu_blysku >= 6) {
1741:main.c        ****       stan_cyklu_blysku = 0;
1742:main.c        ****       --liczba_blyskow_led;
1743:main.c        ****     }
1744:main.c        ****     return;
1745:main.c        ****   }
1746:main.c        **** 
1747:main.c        ****   // LED: ON gdy nie zalogowany, OFF gdy zalogowany (z mruganiem przy dobrym
1748:main.c        ****   // sygnale)
1749:main.c        ****   if (!modul_zalogowany_w_sieci) {
1750:main.c        ****     // Nie zalogowany - dioda swiecei ciagle
1751:main.c        ****     ustaw_stan_led(TRUE);
1752:main.c        ****   } else {
1753:main.c        ****     // Zalogowany - dioda zgaszona lub mruga w zaleznosci od sygnalu
1754:main.c        ****     if (licznik_100ms_dioda_led) {
1755:main.c        ****       // Mrugniecie (SMS, etc.)
1756:main.c        ****       ustaw_stan_led(TRUE);
1757:main.c        ****     } else {
1758:main.c        ****       // Normalne dzialanie - mrugaj w zaleznosci od poziomu sygnalu
1759:main.c        ****       static uchar licznik_dioda_led_poziom_sieci;
1760:main.c        ****       if (poziom_sieci_gsm < 16) {
1761:main.c        ****         if (++licznik_dioda_led_poziom_sieci >= 50)
1762:main.c        ****           licznik_dioda_led_poziom_sieci = 1;
1763:main.c        ****       } else
1764:main.c        ****         licznik_dioda_led_poziom_sieci = 0;
1765:main.c        **** 
1766:main.c        ****       ustaw_stan_led(licznik_dioda_led_poziom_sieci == 40 ||
1767:main.c        ****                      licznik_dioda_led_poziom_sieci == 43 ||
1768:main.c        ****                      (licznik_dioda_led_poziom_sieci >= 46 &&
1769:main.c        ****                       licznik_dioda_led_poziom_sieci <= 49));
1770:main.c        ****     }
1771:main.c        ****   }
1772:main.c        ****   zapis_w_eeprom_stanu_wyjsc();
1773:main.c        **** }
1774:main.c        **** 
1775:main.c        **** void steruj_urzadzeniem_10MS(void) {
1776:main.c        ****   steruj_wejscia_10ms();
1777:main.c        ****   steruj_SIM900_10MS();
1778:main.c        ****   zapisz_bajt_w_EEPROM();
1779:main.c        ****   // test_dioda_wyjscia();
1780:main.c        ****   // test_wejscie();
1781:main.c        **** }
1782:main.c        **** 
1783:main.c        **** void wolne_zdarzenie_timer(void) {
1784:main.c        ****   WYKONAJ_CLI_SEI(WYLACZ_PRZERWANIE_TIMER());
1785:main.c        ****   if (!CZY_WYKONAC_ZDARZENIE_TIMER()) {
1786:main.c        ****     WYKONAJ_CLI_SEI(WLACZ_PRZERWANIE_TIMER());
1787:main.c        ****     return;
1788:main.c        ****   }
1789:main.c        ****   wykonaj_zdarzenie_timer = FALSE;
1790:main.c        ****   if (wykonac_watki_10MS) {
1791:main.c        ****     wykonac_watki = WYKONAJ_WATKI_10MS;
1792:main.c        ****     wykonac_watki_10MS = FALSE;
1793:main.c        ****   }
1794:main.c        ****   WYKONAJ_CLI_SEI(WLACZ_PRZERWANIE_TIMER());
1795:main.c        ****   if (CZY_WYKONAC_WATKI_10MS()) {
1796:main.c        ****     static uchar licznik_wybuc_watki_100MS = 0;
1797:main.c        **** #define OPOZNIENIE_100_MS 10
1798:main.c        ****     if (++licznik_wybuc_watki_100MS == OPOZNIENIE_100_MS) {
1799:main.c        ****       licznik_wybuc_watki_100MS = 0;
1800:main.c        ****       wykonac_watki = WYKONAJ_WATKI_100MS | WYKONAJ_WATKI_10MS;
1801:main.c        ****     }
1802:main.c        ****     NOP();
1803:main.c        ****     cli();
1804:main.c        ****     if (CZY_ODBIERANIE_DANYCH_SIM900()) {
1805:main.c        ****       WYLACZ_PRZERWANIE_ODBIORU_DANYCH_SIM900();
1806:main.c        ****       sei();
1807:main.c        ****       if (liczba_odebranych_znakow_SIM900 != 0 &&
1808:main.c        ****           ++licznik_opoznienie_oczekiwania_na_bajt_SIM900 >
1809:main.c        ****               MAX_OPOZNIENIE_OCZEKIWANIA_NA_BAJT_SIM900_500_MS) {
1810:main.c        ****         resetuj_odbior_SIM900_po_bledzie();
1811:main.c        ****       } else {
1812:main.c        ****         WYKONAJ_CLI_SEI(WLACZ_PRZERWANIE_ODBIORU_DANYCH_SIM900());
1813:main.c        ****       }
1814:main.c        ****     }
1815:main.c        ****     sei();
1816:main.c        ****   }
1817:main.c        **** }
1818:main.c        **** 
1819:main.c        **** void ustaw_parametry_dla_bezpieczenstwa(void) {
1820:main.c        ****   wdt_reset();
1821:main.c        ****   ustaw_parametry_dla_bezpieczenstwa_rejestry();
1822:main.c        ****   set_sleep_mode(SLEEP_MODE_IDLE);
1823:main.c        **** }
1824:main.c        **** 
1825:main.c        **** void inicjalizuj_parametry_modulu(void) {
1826:main.c        ****   memcpy_E(kod_modulu, ADRES_EEPROM_KOD_DOSTEPU, LICZBA_BAJTOW_KODU_DOSTEPU);
1827:main.c        **** 
1828:main.c        ****   // Auto-naprawa: Jeśli kod jest pusty (FF) lub zerowy, ustaw ABCD
1829:main.c        ****   if (kod_modulu[0] == 0xFF || kod_modulu[0] == 0x00) {
1830:main.c        ****     kod_modulu[0] = bufor_eeprom[0] = 'A';
1831:main.c        ****     kod_modulu[1] = bufor_eeprom[1] = 'B';
1832:main.c        ****     kod_modulu[2] = bufor_eeprom[2] = 'C';
1833:main.c        ****     kod_modulu[3] = bufor_eeprom[3] = 'D';
1834:main.c        ****     // Zapisz do EEPROM natychmiast (BLOCKING)
1835:main.c        ****     while (!eeprom_is_ready())
1836:main.c        ****       ;
1837:main.c        ****     eeprom_update_block(kod_modulu, (void *)ADRES_EEPROM_KOD_DOSTEPU,
1838:main.c        ****                         LICZBA_BAJTOW_KODU_DOSTEPU);
1839:main.c        ****   }
1840:main.c        **** 
1841:main.c        ****   // --- AUTO-WIPE EXTERNAL EEPROM (First Boot) ---
1842:main.c        **** #ifdef USE_EXTERNAL_EEPROM
1843:main.c        ****   uint8_t init_flag = at24c512_read_byte(ADRES_EEPROM_INIT_FLAG);
1844:main.c        ****   if (init_flag != 0xA5) {
1845:main.c        ****     // Flag not set (0xFF or random) -> Wipe EEPROM
1846:main.c        ****     wyczysc_zewnetrzny_eeprom();
1847:main.c        ****     // Set flag
1848:main.c        ****     at24c512_write_byte(ADRES_EEPROM_INIT_FLAG, 0xA5);
1849:main.c        ****     while (!at24c512_is_ready())
1850:main.c        ****       ;
1851:main.c        ****   }
1852:main.c        **** #endif
1853:main.c        **** 
1854:main.c        ****   // Auto-naprawa: Jeśli tryb pracy jest nieokreślony (0xFF), ustaw Publiczny
1855:main.c        ****   // (1)
1856:main.c        ****   tryb_pracy = eeprom_read_byte((const uint8_t *)ADRES_EEPROM_TRYB_PRACY);
1857:main.c        ****   if (tryb_pracy == 0xFF) {
1858:main.c        ****     tryb_pracy = 1; // Domyślnie Publiczny
1859:main.c        ****     while (!eeprom_is_ready())
1860:main.c        ****       ;
1861:main.c        ****     eeprom_update_byte((uint8_t *)ADRES_EEPROM_TRYB_PRACY, 1);
1862:main.c        ****   }
1863:main.c        **** 
1864:main.c        ****   // --- Inicjalizacja trybu CLIP/DTMF ---
1865:main.c        ****   tryb_clip = eeprom_read_byte((const uint8_t *)ADRES_EEPROM_TRYB_CLIP_DTMF);
1866:main.c        ****   if (tryb_clip == 0xFF) {
1867:main.c        ****     tryb_clip = 1; // Domyślnie CLIP (1)
1868:main.c        ****     while (!eeprom_is_ready())
1869:main.c        ****       ;
1870:main.c        ****     eeprom_update_byte((uint8_t *)ADRES_EEPROM_TRYB_CLIP_DTMF, 1);
1871:main.c        ****   }
1872:main.c        **** 
1873:main.c        ****   // --- Inicjalizacja SMS Trigger ---
1874:main.c        ****   sms_trigger = eeprom_read_byte((const uint8_t *)ADRES_EEPROM_SMS_TRIGGER);
1875:main.c        ****   if (sms_trigger == 0xFF) {
1876:main.c        ****     sms_trigger = 1; // Domyślnie włączony (OPEN)
1877:main.c        ****     while (!eeprom_is_ready())
1878:main.c        ****       ;
1879:main.c        ****     eeprom_update_byte((uint8_t *)ADRES_EEPROM_SMS_TRIGGER, 1);
1880:main.c        ****   }
1881:main.c        **** 
1882:main.c        ****   // --- Inicjalizacja konfiguracji CLIP (Duration & Toggle) ---
1883:main.c        ****   // Odczyt Duration (4 bajty)
1884:main.c        ****   uchar b0 = eeprom_read_byte((const uint8_t *)ADRES_EEPROM_CLIP_DURATION);
1885:main.c        ****   uchar b1 = eeprom_read_byte((const uint8_t *)ADRES_EEPROM_CLIP_DURATION + 1);
1886:main.c        ****   uchar b2 = eeprom_read_byte((const uint8_t *)ADRES_EEPROM_CLIP_DURATION + 2);
1887:main.c        ****   uchar b3 = eeprom_read_byte((const uint8_t *)ADRES_EEPROM_CLIP_DURATION + 3);
1888:main.c        **** 
1889:main.c        ****   if (b0 == 0xFF && b1 == 0xFF && b2 == 0xFF && b3 == 0xFF) {
1890:main.c        ****     clip_duration_sekundy = 2; // Domyślnie 2 sekundy
1891:main.c        ****   } else {
1892:main.c        ****     clip_duration_sekundy = (uint32_t)b0 | ((uint32_t)b1 << 8) |
1893:main.c        ****                             ((uint32_t)b2 << 16) | ((uint32_t)b3 << 24);
1894:main.c        ****     // Walidacja
1895:main.c        ****     if (clip_duration_sekundy < 1 || clip_duration_sekundy > 99999) {
1896:main.c        ****       clip_duration_sekundy = 2;
1897:main.c        ****     }
1898:main.c        ****   }
1899:main.c        **** 
1900:main.c        ****   // Inicjalizacja parametrow czasowych
1901:main.c        ****   // Inicjalizacja parametrow czasowych - USUNIĘTA
1902:main.c        **** 
1903:main.c        ****   // Inicjalizacja SKRYBA
1904:main.c        ****   // Inicjalizacja SKRYBA - USUNIĘTA
1905:main.c        ****   // skryba_wlaczona = eeprom_read_byte((const uint8_t *)ADRES_EEPROM_SKRYBA);
1906:main.c        **** 
1907:main.c        ****   // Odczyt limitu Skryby z EEPROM
1908:main.c        ****   // Odczyt limitu Skryby z EEPROM - USUNIĘTA
1909:main.c        ****   // Debug initialization - USUNIĘTA (funkcja DEBUG usunięta)
1910:main.c        **** 
1911:main.c        ****   // --- Odczyt stanu wyjść z EEPROM (dla trybu Toggle) ---
1912:main.c        ****   // Przywróć stan przekaźnika tylko jeśli czas = 99999 (Toggle mode)
1913:main.c        ****   if (clip_duration_sekundy == 99999) {
1914:main.c        ****     uchar stan_wyjsc_eeprom =
1915:main.c        ****         eeprom_read_byte((const uint8_t *)EEPROM_USTAWIENIE_STANOW_WYJSC);
1916:main.c        ****     if (stan_wyjsc_eeprom != 0xFF) {
1917:main.c        ****       // Odczytaj stan wyjścia 0 z bitu 0
1918:main.c        ****       stan_wyjscie[0] = (stan_wyjsc_eeprom & BIT(0)) ? TRUE : FALSE;
1919:main.c        ****       // W trybie Toggle licznik jest zawsze 0 (brak auto-wyłączenia)
1920:main.c        ****       licznik_przelacznik_wyjscia[0] = 0;
1921:main.c        ****     } else {
1922:main.c        ****       // EEPROM niezainicjalizowany - ustaw domyślnie OFF
1923:main.c        ****       stan_wyjscie[0] = FALSE;
1924:main.c        ****       licznik_przelacznik_wyjscia[0] = 0;
1925:main.c        ****     }
1926:main.c        ****   }
1927:main.c        **** 
1928:main.c        ****   // Auto-naprawa Harmonogramu - USUNIĘTA
1929:main.c        **** 
1930:main.c        ****   // blokada_sterowania_czasowa = FALSE; // REMOVED
1931:main.c        **** 
1932:main.c        ****   // Inicjalizacja blokady systemu (START/STOP) - USUNIĘTA
1933:main.c        ****   // Kod inicjalizacji usunięty.
1934:main.c        **** 
1935:main.c        ****   // Inicjalizacja zmiennych debug - USUNIĘTA (zaoszczędzono 14 bajtów EEPROM)
1936:main.c        **** 
1937:main.c        ****   // --- NOWE Z V7 (Ported) ---
1938:main.c        ****   // Reset blokady komend REPORT/USER po inicjalizacji/resecie
1939:main.c        ****   licznik_report_user = 0;
1940:main.c        ****   timer_report_user_100ms = 0;
1941:main.c        **** 
1942:main.c        ****   // Reset flagi wysylania SMS po resecie
1943:main.c        ****   flaga_wysylanie_smsa = 0;
1944:main.c        **** 
1945:main.c        ****   // Zwieksz licznik resetow i zapisz debug
1946:main.c        ****   // Licznik resetów - USUNIĘTY (DEBUG usunięty)
1947:main.c        ****   // static uchar licznik_resetow = 0;
1948:main.c        ****   // if (licznik_resetow < 255)
1949:main.c        ****   //   ++licznik_resetow;
1950:main.c        **** 
1951:main.c        ****   // MyNum initialization logic removed
1952:main.c        ****   autosync_czas_aktywny = FALSE;
1953:main.c        **** }
1954:main.c        **** 
1955:main.c        **** static void opoznienie_startowe(void) {
 446               		.loc 1 1955 39 is_stmt 1 view -0
 447               		.cfi_startproc
 448               	/* prologue: function */
 449               	/* frame size = 0 */
 450               	/* stack size = 0 */
 451               	.L__stack_usage = 0
1956:main.c        ****   for (uchar i = 0; i < 5; ++i)
 452               		.loc 1 1956 3 view .LVU106
 453               	.LBB388:
 454               		.loc 1 1956 8 view .LVU107
 455               	.LVL30:
 456               		.loc 1 1956 21 view .LVU108
1957:main.c        ****     _delay_ms(20);
 457               		.loc 1 1957 5 view .LVU109
 458               	.LBB389:
 459               	.LBI389:
 460               		.file 3 "/opt/homebrew/Cellar/avr-gcc@8/8.5.0_3/avr/include/util/delay.h"
   1:/opt/homebrew/Cellar/avr-gcc@8/8.5.0_3/avr/include/util/delay.h **** /* Copyright (c) 2002, Marek Michalkiewicz
   2:/opt/homebrew/Cellar/avr-gcc@8/8.5.0_3/avr/include/util/delay.h ****    Copyright (c) 2004,2005,2007 Joerg Wunsch
   3:/opt/homebrew/Cellar/avr-gcc@8/8.5.0_3/avr/include/util/delay.h ****    Copyright (c) 2007  Florin-Viorel Petrov
   4:/opt/homebrew/Cellar/avr-gcc@8/8.5.0_3/avr/include/util/delay.h ****    All rights reserved.
   5:/opt/homebrew/Cellar/avr-gcc@8/8.5.0_3/avr/include/util/delay.h **** 
   6:/opt/homebrew/Cellar/avr-gcc@8/8.5.0_3/avr/include/util/delay.h ****    Redistribution and use in source and binary forms, with or without
   7:/opt/homebrew/Cellar/avr-gcc@8/8.5.0_3/avr/include/util/delay.h ****    modification, are permitted provided that the following conditions are met:
   8:/opt/homebrew/Cellar/avr-gcc@8/8.5.0_3/avr/include/util/delay.h **** 
   9:/opt/homebrew/Cellar/avr-gcc@8/8.5.0_3/avr/include/util/delay.h ****    * Redistributions of source code must retain the above copyright
  10:/opt/homebrew/Cellar/avr-gcc@8/8.5.0_3/avr/include/util/delay.h ****      notice, this list of conditions and the following disclaimer.
  11:/opt/homebrew/Cellar/avr-gcc@8/8.5.0_3/avr/include/util/delay.h **** 
  12:/opt/homebrew/Cellar/avr-gcc@8/8.5.0_3/avr/include/util/delay.h ****    * Redistributions in binary form must reproduce the above copyright
  13:/opt/homebrew/Cellar/avr-gcc@8/8.5.0_3/avr/include/util/delay.h ****      notice, this list of conditions and the following disclaimer in
  14:/opt/homebrew/Cellar/avr-gcc@8/8.5.0_3/avr/include/util/delay.h ****      the documentation and/or other materials provided with the
  15:/opt/homebrew/Cellar/avr-gcc@8/8.5.0_3/avr/include/util/delay.h ****      distribution.
  16:/opt/homebrew/Cellar/avr-gcc@8/8.5.0_3/avr/include/util/delay.h **** 
  17:/opt/homebrew/Cellar/avr-gcc@8/8.5.0_3/avr/include/util/delay.h ****    * Neither the name of the copyright holders nor the names of
  18:/opt/homebrew/Cellar/avr-gcc@8/8.5.0_3/avr/include/util/delay.h ****      contributors may be used to endorse or promote products derived
  19:/opt/homebrew/Cellar/avr-gcc@8/8.5.0_3/avr/include/util/delay.h ****      from this software without specific prior written permission.
  20:/opt/homebrew/Cellar/avr-gcc@8/8.5.0_3/avr/include/util/delay.h **** 
  21:/opt/homebrew/Cellar/avr-gcc@8/8.5.0_3/avr/include/util/delay.h ****   THIS SOFTWARE IS PROVIDED BY THE COPYRIGHT HOLDERS AND CONTRIBUTORS "AS IS"
  22:/opt/homebrew/Cellar/avr-gcc@8/8.5.0_3/avr/include/util/delay.h ****   AND ANY EXPRESS OR IMPLIED WARRANTIES, INCLUDING, BUT NOT LIMITED TO, THE
  23:/opt/homebrew/Cellar/avr-gcc@8/8.5.0_3/avr/include/util/delay.h ****   IMPLIED WARRANTIES OF MERCHANTABILITY AND FITNESS FOR A PARTICULAR PURPOSE
  24:/opt/homebrew/Cellar/avr-gcc@8/8.5.0_3/avr/include/util/delay.h ****   ARE DISCLAIMED. IN NO EVENT SHALL THE COPYRIGHT OWNER OR CONTRIBUTORS BE
  25:/opt/homebrew/Cellar/avr-gcc@8/8.5.0_3/avr/include/util/delay.h ****   LIABLE FOR ANY DIRECT, INDIRECT, INCIDENTAL, SPECIAL, EXEMPLARY, OR
  26:/opt/homebrew/Cellar/avr-gcc@8/8.5.0_3/avr/include/util/delay.h ****   CONSEQUENTIAL DAMAGES (INCLUDING, BUT NOT LIMITED TO, PROCUREMENT OF
  27:/opt/homebrew/Cellar/avr-gcc@8/8.5.0_3/avr/include/util/delay.h ****   SUBSTITUTE GOODS OR SERVICES; LOSS OF USE, DATA, OR PROFITS; OR BUSINESS
  28:/opt/homebrew/Cellar/avr-gcc@8/8.5.0_3/avr/include/util/delay.h ****   INTERRUPTION) HOWEVER CAUSED AND ON ANY THEORY OF LIABILITY, WHETHER IN
  29:/opt/homebrew/Cellar/avr-gcc@8/8.5.0_3/avr/include/util/delay.h ****   CONTRACT, STRICT LIABILITY, OR TORT (INCLUDING NEGLIGENCE OR OTHERWISE)
  30:/opt/homebrew/Cellar/avr-gcc@8/8.5.0_3/avr/include/util/delay.h ****   ARISING IN ANY WAY OUT OF THE USE OF THIS SOFTWARE, EVEN IF ADVISED OF THE
  31:/opt/homebrew/Cellar/avr-gcc@8/8.5.0_3/avr/include/util/delay.h ****   POSSIBILITY OF SUCH DAMAGE. */
  32:/opt/homebrew/Cellar/avr-gcc@8/8.5.0_3/avr/include/util/delay.h **** 
  33:/opt/homebrew/Cellar/avr-gcc@8/8.5.0_3/avr/include/util/delay.h **** /* $Id: delay.h.in 2551 2020-10-10 20:33:35Z joerg_wunsch $ */
  34:/opt/homebrew/Cellar/avr-gcc@8/8.5.0_3/avr/include/util/delay.h **** 
  35:/opt/homebrew/Cellar/avr-gcc@8/8.5.0_3/avr/include/util/delay.h **** #ifndef _UTIL_DELAY_H_
  36:/opt/homebrew/Cellar/avr-gcc@8/8.5.0_3/avr/include/util/delay.h **** #define _UTIL_DELAY_H_ 1
  37:/opt/homebrew/Cellar/avr-gcc@8/8.5.0_3/avr/include/util/delay.h **** 
  38:/opt/homebrew/Cellar/avr-gcc@8/8.5.0_3/avr/include/util/delay.h **** #ifndef __DOXYGEN__
  39:/opt/homebrew/Cellar/avr-gcc@8/8.5.0_3/avr/include/util/delay.h **** #  ifndef __HAS_DELAY_CYCLES
  40:/opt/homebrew/Cellar/avr-gcc@8/8.5.0_3/avr/include/util/delay.h **** #    define __HAS_DELAY_CYCLES 1
  41:/opt/homebrew/Cellar/avr-gcc@8/8.5.0_3/avr/include/util/delay.h **** #  endif
  42:/opt/homebrew/Cellar/avr-gcc@8/8.5.0_3/avr/include/util/delay.h **** #endif  /* __DOXYGEN__ */
  43:/opt/homebrew/Cellar/avr-gcc@8/8.5.0_3/avr/include/util/delay.h **** 
  44:/opt/homebrew/Cellar/avr-gcc@8/8.5.0_3/avr/include/util/delay.h **** #include <inttypes.h>
  45:/opt/homebrew/Cellar/avr-gcc@8/8.5.0_3/avr/include/util/delay.h **** #include <util/delay_basic.h>
  46:/opt/homebrew/Cellar/avr-gcc@8/8.5.0_3/avr/include/util/delay.h **** #include <math.h>
  47:/opt/homebrew/Cellar/avr-gcc@8/8.5.0_3/avr/include/util/delay.h **** 
  48:/opt/homebrew/Cellar/avr-gcc@8/8.5.0_3/avr/include/util/delay.h **** /** \file */
  49:/opt/homebrew/Cellar/avr-gcc@8/8.5.0_3/avr/include/util/delay.h **** /** \defgroup util_delay <util/delay.h>: Convenience functions for busy-wait delay loops
  50:/opt/homebrew/Cellar/avr-gcc@8/8.5.0_3/avr/include/util/delay.h ****     \code
  51:/opt/homebrew/Cellar/avr-gcc@8/8.5.0_3/avr/include/util/delay.h ****     #define F_CPU 1000000UL  // 1 MHz
  52:/opt/homebrew/Cellar/avr-gcc@8/8.5.0_3/avr/include/util/delay.h ****     //#define F_CPU 14.7456E6
  53:/opt/homebrew/Cellar/avr-gcc@8/8.5.0_3/avr/include/util/delay.h ****     #include <util/delay.h>
  54:/opt/homebrew/Cellar/avr-gcc@8/8.5.0_3/avr/include/util/delay.h ****     \endcode
  55:/opt/homebrew/Cellar/avr-gcc@8/8.5.0_3/avr/include/util/delay.h **** 
  56:/opt/homebrew/Cellar/avr-gcc@8/8.5.0_3/avr/include/util/delay.h ****     \note As an alternative method, it is possible to pass the
  57:/opt/homebrew/Cellar/avr-gcc@8/8.5.0_3/avr/include/util/delay.h ****     F_CPU macro down to the compiler from the Makefile.
  58:/opt/homebrew/Cellar/avr-gcc@8/8.5.0_3/avr/include/util/delay.h ****     Obviously, in that case, no \c \#define statement should be
  59:/opt/homebrew/Cellar/avr-gcc@8/8.5.0_3/avr/include/util/delay.h ****     used.
  60:/opt/homebrew/Cellar/avr-gcc@8/8.5.0_3/avr/include/util/delay.h **** 
  61:/opt/homebrew/Cellar/avr-gcc@8/8.5.0_3/avr/include/util/delay.h ****     The functions in this header file are wrappers around the basic
  62:/opt/homebrew/Cellar/avr-gcc@8/8.5.0_3/avr/include/util/delay.h ****     busy-wait functions from <util/delay_basic.h>.  They are meant as
  63:/opt/homebrew/Cellar/avr-gcc@8/8.5.0_3/avr/include/util/delay.h ****     convenience functions where actual time values can be specified
  64:/opt/homebrew/Cellar/avr-gcc@8/8.5.0_3/avr/include/util/delay.h ****     rather than a number of cycles to wait for.  The idea behind is
  65:/opt/homebrew/Cellar/avr-gcc@8/8.5.0_3/avr/include/util/delay.h ****     that compile-time constant expressions will be eliminated by
  66:/opt/homebrew/Cellar/avr-gcc@8/8.5.0_3/avr/include/util/delay.h ****     compiler optimization so floating-point expressions can be used
  67:/opt/homebrew/Cellar/avr-gcc@8/8.5.0_3/avr/include/util/delay.h ****     to calculate the number of delay cycles needed based on the CPU
  68:/opt/homebrew/Cellar/avr-gcc@8/8.5.0_3/avr/include/util/delay.h ****     frequency passed by the macro F_CPU.
  69:/opt/homebrew/Cellar/avr-gcc@8/8.5.0_3/avr/include/util/delay.h **** 
  70:/opt/homebrew/Cellar/avr-gcc@8/8.5.0_3/avr/include/util/delay.h ****     \note In order for these functions to work as intended, compiler
  71:/opt/homebrew/Cellar/avr-gcc@8/8.5.0_3/avr/include/util/delay.h ****     optimizations <em>must</em> be enabled, and the delay time
  72:/opt/homebrew/Cellar/avr-gcc@8/8.5.0_3/avr/include/util/delay.h ****     <em>must</em> be an expression that is a known constant at
  73:/opt/homebrew/Cellar/avr-gcc@8/8.5.0_3/avr/include/util/delay.h ****     compile-time.  If these requirements are not met, the resulting
  74:/opt/homebrew/Cellar/avr-gcc@8/8.5.0_3/avr/include/util/delay.h ****     delay will be much longer (and basically unpredictable), and
  75:/opt/homebrew/Cellar/avr-gcc@8/8.5.0_3/avr/include/util/delay.h ****     applications that otherwise do not use floating-point calculations
  76:/opt/homebrew/Cellar/avr-gcc@8/8.5.0_3/avr/include/util/delay.h ****     will experience severe code bloat by the floating-point library
  77:/opt/homebrew/Cellar/avr-gcc@8/8.5.0_3/avr/include/util/delay.h ****     routines linked into the application.
  78:/opt/homebrew/Cellar/avr-gcc@8/8.5.0_3/avr/include/util/delay.h **** 
  79:/opt/homebrew/Cellar/avr-gcc@8/8.5.0_3/avr/include/util/delay.h ****     The functions available allow the specification of microsecond, and
  80:/opt/homebrew/Cellar/avr-gcc@8/8.5.0_3/avr/include/util/delay.h ****     millisecond delays directly, using the application-supplied macro
  81:/opt/homebrew/Cellar/avr-gcc@8/8.5.0_3/avr/include/util/delay.h ****     F_CPU as the CPU clock frequency (in Hertz).
  82:/opt/homebrew/Cellar/avr-gcc@8/8.5.0_3/avr/include/util/delay.h **** 
  83:/opt/homebrew/Cellar/avr-gcc@8/8.5.0_3/avr/include/util/delay.h **** */
  84:/opt/homebrew/Cellar/avr-gcc@8/8.5.0_3/avr/include/util/delay.h **** 
  85:/opt/homebrew/Cellar/avr-gcc@8/8.5.0_3/avr/include/util/delay.h **** #if !defined(__DOXYGEN__)
  86:/opt/homebrew/Cellar/avr-gcc@8/8.5.0_3/avr/include/util/delay.h **** static __inline__ void _delay_us(double __us) __attribute__((__always_inline__));
  87:/opt/homebrew/Cellar/avr-gcc@8/8.5.0_3/avr/include/util/delay.h **** static __inline__ void _delay_ms(double __ms) __attribute__((__always_inline__));
  88:/opt/homebrew/Cellar/avr-gcc@8/8.5.0_3/avr/include/util/delay.h **** #endif
  89:/opt/homebrew/Cellar/avr-gcc@8/8.5.0_3/avr/include/util/delay.h **** 
  90:/opt/homebrew/Cellar/avr-gcc@8/8.5.0_3/avr/include/util/delay.h **** #ifndef F_CPU
  91:/opt/homebrew/Cellar/avr-gcc@8/8.5.0_3/avr/include/util/delay.h **** /* prevent compiler error by supplying a default */
  92:/opt/homebrew/Cellar/avr-gcc@8/8.5.0_3/avr/include/util/delay.h **** # warning "F_CPU not defined for <util/delay.h>"
  93:/opt/homebrew/Cellar/avr-gcc@8/8.5.0_3/avr/include/util/delay.h **** /** \ingroup util_delay
  94:/opt/homebrew/Cellar/avr-gcc@8/8.5.0_3/avr/include/util/delay.h ****     \def F_CPU
  95:/opt/homebrew/Cellar/avr-gcc@8/8.5.0_3/avr/include/util/delay.h ****     \brief CPU frequency in Hz
  96:/opt/homebrew/Cellar/avr-gcc@8/8.5.0_3/avr/include/util/delay.h **** 
  97:/opt/homebrew/Cellar/avr-gcc@8/8.5.0_3/avr/include/util/delay.h ****     The macro F_CPU specifies the CPU frequency to be considered by
  98:/opt/homebrew/Cellar/avr-gcc@8/8.5.0_3/avr/include/util/delay.h ****     the delay macros.  This macro is normally supplied by the
  99:/opt/homebrew/Cellar/avr-gcc@8/8.5.0_3/avr/include/util/delay.h ****     environment (e.g. from within a project header, or the project's
 100:/opt/homebrew/Cellar/avr-gcc@8/8.5.0_3/avr/include/util/delay.h ****     Makefile).  The value 1 MHz here is only provided as a "vanilla"
 101:/opt/homebrew/Cellar/avr-gcc@8/8.5.0_3/avr/include/util/delay.h ****     fallback if no such user-provided definition could be found.
 102:/opt/homebrew/Cellar/avr-gcc@8/8.5.0_3/avr/include/util/delay.h **** 
 103:/opt/homebrew/Cellar/avr-gcc@8/8.5.0_3/avr/include/util/delay.h ****     In terms of the delay functions, the CPU frequency can be given as
 104:/opt/homebrew/Cellar/avr-gcc@8/8.5.0_3/avr/include/util/delay.h ****     a floating-point constant (e.g. 3.6864E6 for 3.6864 MHz).
 105:/opt/homebrew/Cellar/avr-gcc@8/8.5.0_3/avr/include/util/delay.h ****     However, the macros in <util/setbaud.h> require it to be an
 106:/opt/homebrew/Cellar/avr-gcc@8/8.5.0_3/avr/include/util/delay.h ****     integer value.
 107:/opt/homebrew/Cellar/avr-gcc@8/8.5.0_3/avr/include/util/delay.h ****  */
 108:/opt/homebrew/Cellar/avr-gcc@8/8.5.0_3/avr/include/util/delay.h **** # define F_CPU 1000000UL
 109:/opt/homebrew/Cellar/avr-gcc@8/8.5.0_3/avr/include/util/delay.h **** #endif
 110:/opt/homebrew/Cellar/avr-gcc@8/8.5.0_3/avr/include/util/delay.h **** 
 111:/opt/homebrew/Cellar/avr-gcc@8/8.5.0_3/avr/include/util/delay.h **** #ifndef __OPTIMIZE__
 112:/opt/homebrew/Cellar/avr-gcc@8/8.5.0_3/avr/include/util/delay.h **** # warning "Compiler optimizations disabled; functions from <util/delay.h> won't work as designed"
 113:/opt/homebrew/Cellar/avr-gcc@8/8.5.0_3/avr/include/util/delay.h **** #endif
 114:/opt/homebrew/Cellar/avr-gcc@8/8.5.0_3/avr/include/util/delay.h **** 
 115:/opt/homebrew/Cellar/avr-gcc@8/8.5.0_3/avr/include/util/delay.h **** #if __HAS_DELAY_CYCLES && defined(__OPTIMIZE__) && \
 116:/opt/homebrew/Cellar/avr-gcc@8/8.5.0_3/avr/include/util/delay.h ****   !defined(__DELAY_BACKWARD_COMPATIBLE__) &&	   \
 117:/opt/homebrew/Cellar/avr-gcc@8/8.5.0_3/avr/include/util/delay.h ****   __STDC_HOSTED__
 118:/opt/homebrew/Cellar/avr-gcc@8/8.5.0_3/avr/include/util/delay.h **** #  include <math.h>
 119:/opt/homebrew/Cellar/avr-gcc@8/8.5.0_3/avr/include/util/delay.h **** #endif
 120:/opt/homebrew/Cellar/avr-gcc@8/8.5.0_3/avr/include/util/delay.h **** 
 121:/opt/homebrew/Cellar/avr-gcc@8/8.5.0_3/avr/include/util/delay.h **** /**
 122:/opt/homebrew/Cellar/avr-gcc@8/8.5.0_3/avr/include/util/delay.h ****    \ingroup util_delay
 123:/opt/homebrew/Cellar/avr-gcc@8/8.5.0_3/avr/include/util/delay.h **** 
 124:/opt/homebrew/Cellar/avr-gcc@8/8.5.0_3/avr/include/util/delay.h ****    Perform a delay of \c __ms milliseconds, using _delay_loop_2().
 125:/opt/homebrew/Cellar/avr-gcc@8/8.5.0_3/avr/include/util/delay.h **** 
 126:/opt/homebrew/Cellar/avr-gcc@8/8.5.0_3/avr/include/util/delay.h ****    The macro F_CPU is supposed to be defined to a
 127:/opt/homebrew/Cellar/avr-gcc@8/8.5.0_3/avr/include/util/delay.h ****    constant defining the CPU clock frequency (in Hertz).
 128:/opt/homebrew/Cellar/avr-gcc@8/8.5.0_3/avr/include/util/delay.h **** 
 129:/opt/homebrew/Cellar/avr-gcc@8/8.5.0_3/avr/include/util/delay.h ****    The maximal possible delay is 262.14 ms / F_CPU in MHz.
 130:/opt/homebrew/Cellar/avr-gcc@8/8.5.0_3/avr/include/util/delay.h **** 
 131:/opt/homebrew/Cellar/avr-gcc@8/8.5.0_3/avr/include/util/delay.h ****    When the user request delay which exceed the maximum possible one,
 132:/opt/homebrew/Cellar/avr-gcc@8/8.5.0_3/avr/include/util/delay.h ****    _delay_ms() provides a decreased resolution functionality. In this
 133:/opt/homebrew/Cellar/avr-gcc@8/8.5.0_3/avr/include/util/delay.h ****    mode _delay_ms() will work with a resolution of 1/10 ms, providing
 134:/opt/homebrew/Cellar/avr-gcc@8/8.5.0_3/avr/include/util/delay.h ****    delays up to 6.5535 seconds (independent from CPU frequency).  The
 135:/opt/homebrew/Cellar/avr-gcc@8/8.5.0_3/avr/include/util/delay.h ****    user will not be informed about decreased resolution.
 136:/opt/homebrew/Cellar/avr-gcc@8/8.5.0_3/avr/include/util/delay.h **** 
 137:/opt/homebrew/Cellar/avr-gcc@8/8.5.0_3/avr/include/util/delay.h ****    If the avr-gcc toolchain has __builtin_avr_delay_cycles()
 138:/opt/homebrew/Cellar/avr-gcc@8/8.5.0_3/avr/include/util/delay.h ****    support, maximal possible delay is 4294967.295 ms/ F_CPU in MHz. For
 139:/opt/homebrew/Cellar/avr-gcc@8/8.5.0_3/avr/include/util/delay.h ****    values greater than the maximal possible delay, overflows results in
 140:/opt/homebrew/Cellar/avr-gcc@8/8.5.0_3/avr/include/util/delay.h ****    no delay i.e., 0ms.
 141:/opt/homebrew/Cellar/avr-gcc@8/8.5.0_3/avr/include/util/delay.h **** 
 142:/opt/homebrew/Cellar/avr-gcc@8/8.5.0_3/avr/include/util/delay.h ****    Conversion of \c __ms into clock cycles may not always result in
 143:/opt/homebrew/Cellar/avr-gcc@8/8.5.0_3/avr/include/util/delay.h ****    integer.  By default, the clock cycles rounded up to next
 144:/opt/homebrew/Cellar/avr-gcc@8/8.5.0_3/avr/include/util/delay.h ****    integer. This ensures that the user gets at least \c __ms
 145:/opt/homebrew/Cellar/avr-gcc@8/8.5.0_3/avr/include/util/delay.h ****    microseconds of delay.
 146:/opt/homebrew/Cellar/avr-gcc@8/8.5.0_3/avr/include/util/delay.h **** 
 147:/opt/homebrew/Cellar/avr-gcc@8/8.5.0_3/avr/include/util/delay.h ****    Alternatively, by defining the macro \c __DELAY_ROUND_DOWN__, or
 148:/opt/homebrew/Cellar/avr-gcc@8/8.5.0_3/avr/include/util/delay.h ****    \c __DELAY_ROUND_CLOSEST__, before including this header file, the
 149:/opt/homebrew/Cellar/avr-gcc@8/8.5.0_3/avr/include/util/delay.h ****    algorithm can be made to round down, or round to closest integer,
 150:/opt/homebrew/Cellar/avr-gcc@8/8.5.0_3/avr/include/util/delay.h ****    respectively.
 151:/opt/homebrew/Cellar/avr-gcc@8/8.5.0_3/avr/include/util/delay.h **** 
 152:/opt/homebrew/Cellar/avr-gcc@8/8.5.0_3/avr/include/util/delay.h ****    \note
 153:/opt/homebrew/Cellar/avr-gcc@8/8.5.0_3/avr/include/util/delay.h **** 
 154:/opt/homebrew/Cellar/avr-gcc@8/8.5.0_3/avr/include/util/delay.h ****    The implementation of _delay_ms() based on
 155:/opt/homebrew/Cellar/avr-gcc@8/8.5.0_3/avr/include/util/delay.h ****    __builtin_avr_delay_cycles() is not backward compatible with older
 156:/opt/homebrew/Cellar/avr-gcc@8/8.5.0_3/avr/include/util/delay.h ****    implementations.  In order to get functionality backward compatible
 157:/opt/homebrew/Cellar/avr-gcc@8/8.5.0_3/avr/include/util/delay.h ****    with previous versions, the macro \c "__DELAY_BACKWARD_COMPATIBLE__"
 158:/opt/homebrew/Cellar/avr-gcc@8/8.5.0_3/avr/include/util/delay.h ****    must be defined before including this header file. Also, the
 159:/opt/homebrew/Cellar/avr-gcc@8/8.5.0_3/avr/include/util/delay.h ****    backward compatible algorithm will be chosen if the code is
 160:/opt/homebrew/Cellar/avr-gcc@8/8.5.0_3/avr/include/util/delay.h ****    compiled in a <em>freestanding environment</em> (GCC option
 161:/opt/homebrew/Cellar/avr-gcc@8/8.5.0_3/avr/include/util/delay.h ****    \c -ffreestanding), as the math functions required for rounding are
 162:/opt/homebrew/Cellar/avr-gcc@8/8.5.0_3/avr/include/util/delay.h ****    not available to the compiler then.
 163:/opt/homebrew/Cellar/avr-gcc@8/8.5.0_3/avr/include/util/delay.h **** 
 164:/opt/homebrew/Cellar/avr-gcc@8/8.5.0_3/avr/include/util/delay.h ****  */
 165:/opt/homebrew/Cellar/avr-gcc@8/8.5.0_3/avr/include/util/delay.h **** void
 166:/opt/homebrew/Cellar/avr-gcc@8/8.5.0_3/avr/include/util/delay.h **** _delay_ms(double __ms)
 461               		.loc 3 166 1 view .LVU110
 462               	.LBB390:
 167:/opt/homebrew/Cellar/avr-gcc@8/8.5.0_3/avr/include/util/delay.h **** {
 168:/opt/homebrew/Cellar/avr-gcc@8/8.5.0_3/avr/include/util/delay.h **** 	double __tmp ;
 463               		.loc 3 168 2 view .LVU111
 169:/opt/homebrew/Cellar/avr-gcc@8/8.5.0_3/avr/include/util/delay.h **** #if __HAS_DELAY_CYCLES && defined(__OPTIMIZE__) && \
 170:/opt/homebrew/Cellar/avr-gcc@8/8.5.0_3/avr/include/util/delay.h ****   !defined(__DELAY_BACKWARD_COMPATIBLE__) &&	   \
 171:/opt/homebrew/Cellar/avr-gcc@8/8.5.0_3/avr/include/util/delay.h ****   __STDC_HOSTED__
 172:/opt/homebrew/Cellar/avr-gcc@8/8.5.0_3/avr/include/util/delay.h **** 	uint32_t __ticks_dc;
 464               		.loc 3 172 2 view .LVU112
 173:/opt/homebrew/Cellar/avr-gcc@8/8.5.0_3/avr/include/util/delay.h **** 	extern void __builtin_avr_delay_cycles(unsigned long);
 465               		.loc 3 173 2 view .LVU113
 174:/opt/homebrew/Cellar/avr-gcc@8/8.5.0_3/avr/include/util/delay.h **** 	__tmp = ((F_CPU) / 1e3) * __ms;
 466               		.loc 3 174 2 view .LVU114
 175:/opt/homebrew/Cellar/avr-gcc@8/8.5.0_3/avr/include/util/delay.h **** 
 176:/opt/homebrew/Cellar/avr-gcc@8/8.5.0_3/avr/include/util/delay.h **** 	#if defined(__DELAY_ROUND_DOWN__)
 177:/opt/homebrew/Cellar/avr-gcc@8/8.5.0_3/avr/include/util/delay.h **** 		__ticks_dc = (uint32_t)fabs(__tmp);
 178:/opt/homebrew/Cellar/avr-gcc@8/8.5.0_3/avr/include/util/delay.h **** 
 179:/opt/homebrew/Cellar/avr-gcc@8/8.5.0_3/avr/include/util/delay.h **** 	#elif defined(__DELAY_ROUND_CLOSEST__)
 180:/opt/homebrew/Cellar/avr-gcc@8/8.5.0_3/avr/include/util/delay.h **** 		__ticks_dc = (uint32_t)(fabs(__tmp)+0.5);
 181:/opt/homebrew/Cellar/avr-gcc@8/8.5.0_3/avr/include/util/delay.h **** 
 182:/opt/homebrew/Cellar/avr-gcc@8/8.5.0_3/avr/include/util/delay.h **** 	#else
 183:/opt/homebrew/Cellar/avr-gcc@8/8.5.0_3/avr/include/util/delay.h **** 		//round up by default
 184:/opt/homebrew/Cellar/avr-gcc@8/8.5.0_3/avr/include/util/delay.h **** 		__ticks_dc = (uint32_t)(ceil(fabs(__tmp)));
 467               		.loc 3 184 3 view .LVU115
 468               		.loc 3 184 3 is_stmt 0 view .LVU116
 469               	.LBE390:
 470               	.LBE389:
 471               	.LBE388:
 472               		.file 4 "/opt/homebrew/Cellar/avr-gcc@8/8.5.0_3/avr/include/math.h"
   1:/opt/homebrew/Cellar/avr-gcc@8/8.5.0_3/avr/include/math.h **** /* Copyright (c) 2002,2007-2009 Michael Stumpf
   2:/opt/homebrew/Cellar/avr-gcc@8/8.5.0_3/avr/include/math.h **** 
   3:/opt/homebrew/Cellar/avr-gcc@8/8.5.0_3/avr/include/math.h ****    Portions of documentation Copyright (c) 1990 - 1994
   4:/opt/homebrew/Cellar/avr-gcc@8/8.5.0_3/avr/include/math.h ****    The Regents of the University of California.
   5:/opt/homebrew/Cellar/avr-gcc@8/8.5.0_3/avr/include/math.h **** 
   6:/opt/homebrew/Cellar/avr-gcc@8/8.5.0_3/avr/include/math.h ****    All rights reserved.
   7:/opt/homebrew/Cellar/avr-gcc@8/8.5.0_3/avr/include/math.h **** 
   8:/opt/homebrew/Cellar/avr-gcc@8/8.5.0_3/avr/include/math.h ****    Redistribution and use in source and binary forms, with or without
   9:/opt/homebrew/Cellar/avr-gcc@8/8.5.0_3/avr/include/math.h ****    modification, are permitted provided that the following conditions are met:
  10:/opt/homebrew/Cellar/avr-gcc@8/8.5.0_3/avr/include/math.h **** 
  11:/opt/homebrew/Cellar/avr-gcc@8/8.5.0_3/avr/include/math.h ****    * Redistributions of source code must retain the above copyright
  12:/opt/homebrew/Cellar/avr-gcc@8/8.5.0_3/avr/include/math.h ****      notice, this list of conditions and the following disclaimer.
  13:/opt/homebrew/Cellar/avr-gcc@8/8.5.0_3/avr/include/math.h **** 
  14:/opt/homebrew/Cellar/avr-gcc@8/8.5.0_3/avr/include/math.h ****    * Redistributions in binary form must reproduce the above copyright
  15:/opt/homebrew/Cellar/avr-gcc@8/8.5.0_3/avr/include/math.h ****      notice, this list of conditions and the following disclaimer in
  16:/opt/homebrew/Cellar/avr-gcc@8/8.5.0_3/avr/include/math.h ****      the documentation and/or other materials provided with the
  17:/opt/homebrew/Cellar/avr-gcc@8/8.5.0_3/avr/include/math.h ****      distribution.
  18:/opt/homebrew/Cellar/avr-gcc@8/8.5.0_3/avr/include/math.h **** 
  19:/opt/homebrew/Cellar/avr-gcc@8/8.5.0_3/avr/include/math.h ****    * Neither the name of the copyright holders nor the names of
  20:/opt/homebrew/Cellar/avr-gcc@8/8.5.0_3/avr/include/math.h ****      contributors may be used to endorse or promote products derived
  21:/opt/homebrew/Cellar/avr-gcc@8/8.5.0_3/avr/include/math.h ****      from this software without specific prior written permission.
  22:/opt/homebrew/Cellar/avr-gcc@8/8.5.0_3/avr/include/math.h **** 
  23:/opt/homebrew/Cellar/avr-gcc@8/8.5.0_3/avr/include/math.h ****   THIS SOFTWARE IS PROVIDED BY THE COPYRIGHT HOLDERS AND CONTRIBUTORS "AS IS"
  24:/opt/homebrew/Cellar/avr-gcc@8/8.5.0_3/avr/include/math.h ****   AND ANY EXPRESS OR IMPLIED WARRANTIES, INCLUDING, BUT NOT LIMITED TO, THE
  25:/opt/homebrew/Cellar/avr-gcc@8/8.5.0_3/avr/include/math.h ****   IMPLIED WARRANTIES OF MERCHANTABILITY AND FITNESS FOR A PARTICULAR PURPOSE
  26:/opt/homebrew/Cellar/avr-gcc@8/8.5.0_3/avr/include/math.h ****   ARE DISCLAIMED. IN NO EVENT SHALL THE COPYRIGHT OWNER OR CONTRIBUTORS BE
  27:/opt/homebrew/Cellar/avr-gcc@8/8.5.0_3/avr/include/math.h ****   LIABLE FOR ANY DIRECT, INDIRECT, INCIDENTAL, SPECIAL, EXEMPLARY, OR
  28:/opt/homebrew/Cellar/avr-gcc@8/8.5.0_3/avr/include/math.h ****   CONSEQUENTIAL DAMAGES (INCLUDING, BUT NOT LIMITED TO, PROCUREMENT OF
  29:/opt/homebrew/Cellar/avr-gcc@8/8.5.0_3/avr/include/math.h ****   SUBSTITUTE GOODS OR SERVICES; LOSS OF USE, DATA, OR PROFITS; OR BUSINESS
  30:/opt/homebrew/Cellar/avr-gcc@8/8.5.0_3/avr/include/math.h ****   INTERRUPTION) HOWEVER CAUSED AND ON ANY THEORY OF LIABILITY, WHETHER IN
  31:/opt/homebrew/Cellar/avr-gcc@8/8.5.0_3/avr/include/math.h ****   CONTRACT, STRICT LIABILITY, OR TORT (INCLUDING NEGLIGENCE OR OTHERWISE)
  32:/opt/homebrew/Cellar/avr-gcc@8/8.5.0_3/avr/include/math.h ****   ARISING IN ANY WAY OUT OF THE USE OF THIS SOFTWARE, EVEN IF ADVISED OF THE
  33:/opt/homebrew/Cellar/avr-gcc@8/8.5.0_3/avr/include/math.h ****   POSSIBILITY OF SUCH DAMAGE. */
  34:/opt/homebrew/Cellar/avr-gcc@8/8.5.0_3/avr/include/math.h **** 
  35:/opt/homebrew/Cellar/avr-gcc@8/8.5.0_3/avr/include/math.h **** /* $Id: math.h 2554 2021-05-20 22:22:24Z joerg_wunsch $ */
  36:/opt/homebrew/Cellar/avr-gcc@8/8.5.0_3/avr/include/math.h **** 
  37:/opt/homebrew/Cellar/avr-gcc@8/8.5.0_3/avr/include/math.h **** /*
  38:/opt/homebrew/Cellar/avr-gcc@8/8.5.0_3/avr/include/math.h ****    math.h - mathematical functions
  39:/opt/homebrew/Cellar/avr-gcc@8/8.5.0_3/avr/include/math.h **** 
  40:/opt/homebrew/Cellar/avr-gcc@8/8.5.0_3/avr/include/math.h ****    Author : Michael Stumpf
  41:/opt/homebrew/Cellar/avr-gcc@8/8.5.0_3/avr/include/math.h ****             Michael.Stumpf@t-online.de
  42:/opt/homebrew/Cellar/avr-gcc@8/8.5.0_3/avr/include/math.h **** 
  43:/opt/homebrew/Cellar/avr-gcc@8/8.5.0_3/avr/include/math.h ****    __ATTR_CONST__ added by marekm@linux.org.pl for functions
  44:/opt/homebrew/Cellar/avr-gcc@8/8.5.0_3/avr/include/math.h ****    that "do not examine any values except their arguments, and have
  45:/opt/homebrew/Cellar/avr-gcc@8/8.5.0_3/avr/include/math.h ****    no effects except the return value", for better optimization by gcc.
  46:/opt/homebrew/Cellar/avr-gcc@8/8.5.0_3/avr/include/math.h ****  */
  47:/opt/homebrew/Cellar/avr-gcc@8/8.5.0_3/avr/include/math.h **** 
  48:/opt/homebrew/Cellar/avr-gcc@8/8.5.0_3/avr/include/math.h **** #ifndef __MATH_H
  49:/opt/homebrew/Cellar/avr-gcc@8/8.5.0_3/avr/include/math.h **** #define __MATH_H
  50:/opt/homebrew/Cellar/avr-gcc@8/8.5.0_3/avr/include/math.h **** 
  51:/opt/homebrew/Cellar/avr-gcc@8/8.5.0_3/avr/include/math.h **** /** \file */
  52:/opt/homebrew/Cellar/avr-gcc@8/8.5.0_3/avr/include/math.h **** /** \defgroup avr_math <math.h>: Mathematics
  53:/opt/homebrew/Cellar/avr-gcc@8/8.5.0_3/avr/include/math.h ****     \code #include <math.h> \endcode
  54:/opt/homebrew/Cellar/avr-gcc@8/8.5.0_3/avr/include/math.h **** 
  55:/opt/homebrew/Cellar/avr-gcc@8/8.5.0_3/avr/include/math.h ****     This header file declares basic mathematics constants and
  56:/opt/homebrew/Cellar/avr-gcc@8/8.5.0_3/avr/include/math.h ****     functions.
  57:/opt/homebrew/Cellar/avr-gcc@8/8.5.0_3/avr/include/math.h **** 
  58:/opt/homebrew/Cellar/avr-gcc@8/8.5.0_3/avr/include/math.h ****     \par Notes:
  59:/opt/homebrew/Cellar/avr-gcc@8/8.5.0_3/avr/include/math.h ****     - In order to access the functions declared herein, it is usually
  60:/opt/homebrew/Cellar/avr-gcc@8/8.5.0_3/avr/include/math.h ****       also required to additionally link against the library \c libm.a.
  61:/opt/homebrew/Cellar/avr-gcc@8/8.5.0_3/avr/include/math.h ****       See also the related \ref faq_libm "FAQ entry".
  62:/opt/homebrew/Cellar/avr-gcc@8/8.5.0_3/avr/include/math.h ****     - Math functions do not raise exceptions and do not change the
  63:/opt/homebrew/Cellar/avr-gcc@8/8.5.0_3/avr/include/math.h ****       \c errno variable. Therefore the majority of them are declared
  64:/opt/homebrew/Cellar/avr-gcc@8/8.5.0_3/avr/include/math.h ****       with const attribute, for better optimization by GCC.	*/
  65:/opt/homebrew/Cellar/avr-gcc@8/8.5.0_3/avr/include/math.h **** 
  66:/opt/homebrew/Cellar/avr-gcc@8/8.5.0_3/avr/include/math.h **** 
  67:/opt/homebrew/Cellar/avr-gcc@8/8.5.0_3/avr/include/math.h **** /** \ingroup avr_math	*/
  68:/opt/homebrew/Cellar/avr-gcc@8/8.5.0_3/avr/include/math.h **** /*@{*/
  69:/opt/homebrew/Cellar/avr-gcc@8/8.5.0_3/avr/include/math.h **** 
  70:/opt/homebrew/Cellar/avr-gcc@8/8.5.0_3/avr/include/math.h **** /** The constant \a e.	*/
  71:/opt/homebrew/Cellar/avr-gcc@8/8.5.0_3/avr/include/math.h **** #define M_E		2.7182818284590452354
  72:/opt/homebrew/Cellar/avr-gcc@8/8.5.0_3/avr/include/math.h **** 
  73:/opt/homebrew/Cellar/avr-gcc@8/8.5.0_3/avr/include/math.h **** /** The logarithm of the \a e to base 2. */
  74:/opt/homebrew/Cellar/avr-gcc@8/8.5.0_3/avr/include/math.h **** #define M_LOG2E		1.4426950408889634074	/* log_2 e */
  75:/opt/homebrew/Cellar/avr-gcc@8/8.5.0_3/avr/include/math.h **** 
  76:/opt/homebrew/Cellar/avr-gcc@8/8.5.0_3/avr/include/math.h **** /** The logarithm of the \a e to base 10. */
  77:/opt/homebrew/Cellar/avr-gcc@8/8.5.0_3/avr/include/math.h **** #define M_LOG10E	0.43429448190325182765	/* log_10 e */
  78:/opt/homebrew/Cellar/avr-gcc@8/8.5.0_3/avr/include/math.h **** 
  79:/opt/homebrew/Cellar/avr-gcc@8/8.5.0_3/avr/include/math.h **** /** The natural logarithm of the 2.	*/
  80:/opt/homebrew/Cellar/avr-gcc@8/8.5.0_3/avr/include/math.h **** #define M_LN2		0.69314718055994530942	/* log_e 2 */
  81:/opt/homebrew/Cellar/avr-gcc@8/8.5.0_3/avr/include/math.h **** 
  82:/opt/homebrew/Cellar/avr-gcc@8/8.5.0_3/avr/include/math.h **** /** The natural logarithm of the 10.	*/
  83:/opt/homebrew/Cellar/avr-gcc@8/8.5.0_3/avr/include/math.h **** #define M_LN10		2.30258509299404568402	/* log_e 10 */
  84:/opt/homebrew/Cellar/avr-gcc@8/8.5.0_3/avr/include/math.h **** 
  85:/opt/homebrew/Cellar/avr-gcc@8/8.5.0_3/avr/include/math.h **** /** The constant \a pi.	*/
  86:/opt/homebrew/Cellar/avr-gcc@8/8.5.0_3/avr/include/math.h **** #define M_PI		3.14159265358979323846	/* pi */
  87:/opt/homebrew/Cellar/avr-gcc@8/8.5.0_3/avr/include/math.h **** 
  88:/opt/homebrew/Cellar/avr-gcc@8/8.5.0_3/avr/include/math.h **** /** The constant \a pi/2.	*/
  89:/opt/homebrew/Cellar/avr-gcc@8/8.5.0_3/avr/include/math.h **** #define M_PI_2		1.57079632679489661923	/* pi/2 */
  90:/opt/homebrew/Cellar/avr-gcc@8/8.5.0_3/avr/include/math.h **** 
  91:/opt/homebrew/Cellar/avr-gcc@8/8.5.0_3/avr/include/math.h **** /** The constant \a pi/4.	*/
  92:/opt/homebrew/Cellar/avr-gcc@8/8.5.0_3/avr/include/math.h **** #define M_PI_4		0.78539816339744830962	/* pi/4 */
  93:/opt/homebrew/Cellar/avr-gcc@8/8.5.0_3/avr/include/math.h **** 
  94:/opt/homebrew/Cellar/avr-gcc@8/8.5.0_3/avr/include/math.h **** /** The constant \a 1/pi.	*/
  95:/opt/homebrew/Cellar/avr-gcc@8/8.5.0_3/avr/include/math.h **** #define M_1_PI		0.31830988618379067154	/* 1/pi */
  96:/opt/homebrew/Cellar/avr-gcc@8/8.5.0_3/avr/include/math.h **** 
  97:/opt/homebrew/Cellar/avr-gcc@8/8.5.0_3/avr/include/math.h **** /** The constant \a 2/pi.	*/
  98:/opt/homebrew/Cellar/avr-gcc@8/8.5.0_3/avr/include/math.h **** #define M_2_PI		0.63661977236758134308	/* 2/pi */
  99:/opt/homebrew/Cellar/avr-gcc@8/8.5.0_3/avr/include/math.h **** 
 100:/opt/homebrew/Cellar/avr-gcc@8/8.5.0_3/avr/include/math.h **** /** The constant \a 2/sqrt(pi).	*/
 101:/opt/homebrew/Cellar/avr-gcc@8/8.5.0_3/avr/include/math.h **** #define M_2_SQRTPI	1.12837916709551257390	/* 2/sqrt(pi) */
 102:/opt/homebrew/Cellar/avr-gcc@8/8.5.0_3/avr/include/math.h **** 
 103:/opt/homebrew/Cellar/avr-gcc@8/8.5.0_3/avr/include/math.h **** /** The square root of 2.	*/
 104:/opt/homebrew/Cellar/avr-gcc@8/8.5.0_3/avr/include/math.h **** #define M_SQRT2		1.41421356237309504880	/* sqrt(2) */
 105:/opt/homebrew/Cellar/avr-gcc@8/8.5.0_3/avr/include/math.h **** 
 106:/opt/homebrew/Cellar/avr-gcc@8/8.5.0_3/avr/include/math.h **** /** The constant \a 1/sqrt(2).	*/
 107:/opt/homebrew/Cellar/avr-gcc@8/8.5.0_3/avr/include/math.h **** #define M_SQRT1_2	0.70710678118654752440	/* 1/sqrt(2) */
 108:/opt/homebrew/Cellar/avr-gcc@8/8.5.0_3/avr/include/math.h **** 
 109:/opt/homebrew/Cellar/avr-gcc@8/8.5.0_3/avr/include/math.h **** /** NAN constant.	*/
 110:/opt/homebrew/Cellar/avr-gcc@8/8.5.0_3/avr/include/math.h **** #define NAN	__builtin_nan("")
 111:/opt/homebrew/Cellar/avr-gcc@8/8.5.0_3/avr/include/math.h **** 
 112:/opt/homebrew/Cellar/avr-gcc@8/8.5.0_3/avr/include/math.h **** /** INFINITY constant.	*/
 113:/opt/homebrew/Cellar/avr-gcc@8/8.5.0_3/avr/include/math.h **** #define INFINITY	__builtin_inf()
 114:/opt/homebrew/Cellar/avr-gcc@8/8.5.0_3/avr/include/math.h **** 
 115:/opt/homebrew/Cellar/avr-gcc@8/8.5.0_3/avr/include/math.h **** 
 116:/opt/homebrew/Cellar/avr-gcc@8/8.5.0_3/avr/include/math.h **** #ifndef __ATTR_CONST__
 117:/opt/homebrew/Cellar/avr-gcc@8/8.5.0_3/avr/include/math.h **** # define __ATTR_CONST__ __attribute__((__const__))
 118:/opt/homebrew/Cellar/avr-gcc@8/8.5.0_3/avr/include/math.h **** #endif
 119:/opt/homebrew/Cellar/avr-gcc@8/8.5.0_3/avr/include/math.h **** 
 120:/opt/homebrew/Cellar/avr-gcc@8/8.5.0_3/avr/include/math.h **** #if __SIZEOF_DOUBLE__ == __SIZEOF_FLOAT__
 121:/opt/homebrew/Cellar/avr-gcc@8/8.5.0_3/avr/include/math.h **** /* In order to provide aliases for double functions in the case where
 122:/opt/homebrew/Cellar/avr-gcc@8/8.5.0_3/avr/include/math.h ****    double = float, use declarations with according assembler name.
 123:/opt/homebrew/Cellar/avr-gcc@8/8.5.0_3/avr/include/math.h ****    That way:
 124:/opt/homebrew/Cellar/avr-gcc@8/8.5.0_3/avr/include/math.h ****    1) We do *NOT* use macros like
 125:/opt/homebrew/Cellar/avr-gcc@8/8.5.0_3/avr/include/math.h ****          #define sin sinf
 126:/opt/homebrew/Cellar/avr-gcc@8/8.5.0_3/avr/include/math.h ****       because that would interfere with C++.  For example, if some class
 127:/opt/homebrew/Cellar/avr-gcc@8/8.5.0_3/avr/include/math.h ****       would implement a method 'sin', or if there was polymorthism for
 128:/opt/homebrew/Cellar/avr-gcc@8/8.5.0_3/avr/include/math.h ****       a function 'sin', then we would silently rename these to 'sinf'.
 129:/opt/homebrew/Cellar/avr-gcc@8/8.5.0_3/avr/include/math.h ****    2) We have proper prototypes, both for 'sin' and for 'sinf'.
 130:/opt/homebrew/Cellar/avr-gcc@8/8.5.0_3/avr/include/math.h ****    3) It is zero-overhead.  */
 131:/opt/homebrew/Cellar/avr-gcc@8/8.5.0_3/avr/include/math.h **** #define __ASM_ALIAS(x) __asm(#x)
 132:/opt/homebrew/Cellar/avr-gcc@8/8.5.0_3/avr/include/math.h **** #else
 133:/opt/homebrew/Cellar/avr-gcc@8/8.5.0_3/avr/include/math.h **** /* double != float: Provide double prototypes. */
 134:/opt/homebrew/Cellar/avr-gcc@8/8.5.0_3/avr/include/math.h **** #define __ASM_ALIAS(x) /* empty */
 135:/opt/homebrew/Cellar/avr-gcc@8/8.5.0_3/avr/include/math.h **** #endif
 136:/opt/homebrew/Cellar/avr-gcc@8/8.5.0_3/avr/include/math.h **** 
 137:/opt/homebrew/Cellar/avr-gcc@8/8.5.0_3/avr/include/math.h **** #ifdef __cplusplus
 138:/opt/homebrew/Cellar/avr-gcc@8/8.5.0_3/avr/include/math.h **** extern "C" {
 139:/opt/homebrew/Cellar/avr-gcc@8/8.5.0_3/avr/include/math.h **** #endif
 140:/opt/homebrew/Cellar/avr-gcc@8/8.5.0_3/avr/include/math.h **** 
 141:/opt/homebrew/Cellar/avr-gcc@8/8.5.0_3/avr/include/math.h **** /**
 142:/opt/homebrew/Cellar/avr-gcc@8/8.5.0_3/avr/include/math.h ****     The cosf() function returns the cosine of \a __x, measured in radians.
 143:/opt/homebrew/Cellar/avr-gcc@8/8.5.0_3/avr/include/math.h ****  */
 144:/opt/homebrew/Cellar/avr-gcc@8/8.5.0_3/avr/include/math.h **** __ATTR_CONST__ extern float cosf (float __x);
 145:/opt/homebrew/Cellar/avr-gcc@8/8.5.0_3/avr/include/math.h **** __ATTR_CONST__ extern double cos (double __x) __ASM_ALIAS(cosf);		/**< The alias for cosf().	*/
 146:/opt/homebrew/Cellar/avr-gcc@8/8.5.0_3/avr/include/math.h **** 
 147:/opt/homebrew/Cellar/avr-gcc@8/8.5.0_3/avr/include/math.h **** /**
 148:/opt/homebrew/Cellar/avr-gcc@8/8.5.0_3/avr/include/math.h ****     The sinf() function returns the sine of \a __x, measured in radians.
 149:/opt/homebrew/Cellar/avr-gcc@8/8.5.0_3/avr/include/math.h ****  */
 150:/opt/homebrew/Cellar/avr-gcc@8/8.5.0_3/avr/include/math.h **** __ATTR_CONST__ extern float sinf (float __x);
 151:/opt/homebrew/Cellar/avr-gcc@8/8.5.0_3/avr/include/math.h **** __ATTR_CONST__ extern double sin (double __x) __ASM_ALIAS(sinf);		/**< The alias for sinf().	*/
 152:/opt/homebrew/Cellar/avr-gcc@8/8.5.0_3/avr/include/math.h **** 
 153:/opt/homebrew/Cellar/avr-gcc@8/8.5.0_3/avr/include/math.h **** /**
 154:/opt/homebrew/Cellar/avr-gcc@8/8.5.0_3/avr/include/math.h ****     The tanf() function returns the tangent of \a __x, measured in radians.
 155:/opt/homebrew/Cellar/avr-gcc@8/8.5.0_3/avr/include/math.h ****  */
 156:/opt/homebrew/Cellar/avr-gcc@8/8.5.0_3/avr/include/math.h **** __ATTR_CONST__ extern float tanf (float __x);
 157:/opt/homebrew/Cellar/avr-gcc@8/8.5.0_3/avr/include/math.h **** __ATTR_CONST__ extern double tan (double __x) __ASM_ALIAS(tanf);		/**< The alias for tanf().	*/
 158:/opt/homebrew/Cellar/avr-gcc@8/8.5.0_3/avr/include/math.h **** 
 159:/opt/homebrew/Cellar/avr-gcc@8/8.5.0_3/avr/include/math.h **** /**
 160:/opt/homebrew/Cellar/avr-gcc@8/8.5.0_3/avr/include/math.h ****     The fabsf() function computes the absolute value of a floating-point
 161:/opt/homebrew/Cellar/avr-gcc@8/8.5.0_3/avr/include/math.h ****     number \a __x.
 162:/opt/homebrew/Cellar/avr-gcc@8/8.5.0_3/avr/include/math.h ****  */
 163:/opt/homebrew/Cellar/avr-gcc@8/8.5.0_3/avr/include/math.h **** static inline float fabsf (float __x)
 164:/opt/homebrew/Cellar/avr-gcc@8/8.5.0_3/avr/include/math.h **** {
 165:/opt/homebrew/Cellar/avr-gcc@8/8.5.0_3/avr/include/math.h ****     return __builtin_fabsf (__x);
 166:/opt/homebrew/Cellar/avr-gcc@8/8.5.0_3/avr/include/math.h **** }
 167:/opt/homebrew/Cellar/avr-gcc@8/8.5.0_3/avr/include/math.h **** 
 168:/opt/homebrew/Cellar/avr-gcc@8/8.5.0_3/avr/include/math.h **** static inline double fabs (double __x)
 169:/opt/homebrew/Cellar/avr-gcc@8/8.5.0_3/avr/include/math.h **** {
 170:/opt/homebrew/Cellar/avr-gcc@8/8.5.0_3/avr/include/math.h ****     return __builtin_fabs (__x);
 473               		.loc 4 170 5 is_stmt 1 view .LVU117
 474               	.LBB409:
 475               	.LBB400:
 476               	.LBB391:
 185:/opt/homebrew/Cellar/avr-gcc@8/8.5.0_3/avr/include/util/delay.h **** 	#endif
 186:/opt/homebrew/Cellar/avr-gcc@8/8.5.0_3/avr/include/util/delay.h **** 
 187:/opt/homebrew/Cellar/avr-gcc@8/8.5.0_3/avr/include/util/delay.h **** 	__builtin_avr_delay_cycles(__ticks_dc);
 477               		.loc 3 187 2 view .LVU118
 478 015c 8FEF      		ldi r24,lo8(-28673)
 479 015e 9FE8      		ldi r25,hi8(-28673)
 480 0160 0197      	1:	sbiw r24,1
 481 0162 01F4      		brne 1b
 482 0164 00C0      		rjmp .
 483 0166 0000      		nop
 484               	.LVL31:
 485               		.loc 3 187 2 is_stmt 0 view .LVU119
 486               	.LBE391:
 487               	.LBE400:
1956:main.c        ****     _delay_ms(20);
 488               		.loc 1 1956 28 is_stmt 1 view .LVU120
1956:main.c        ****     _delay_ms(20);
 489               		.loc 1 1956 21 view .LVU121
 490               		.loc 1 1957 5 view .LVU122
 491               	.LBB401:
 166:/opt/homebrew/Cellar/avr-gcc@8/8.5.0_3/avr/include/util/delay.h **** {
 492               		.loc 3 166 1 view .LVU123
 493               	.LBB392:
 168:/opt/homebrew/Cellar/avr-gcc@8/8.5.0_3/avr/include/util/delay.h **** #if __HAS_DELAY_CYCLES && defined(__OPTIMIZE__) && \
 494               		.loc 3 168 2 view .LVU124
 172:/opt/homebrew/Cellar/avr-gcc@8/8.5.0_3/avr/include/util/delay.h **** 	extern void __builtin_avr_delay_cycles(unsigned long);
 495               		.loc 3 172 2 view .LVU125
 173:/opt/homebrew/Cellar/avr-gcc@8/8.5.0_3/avr/include/util/delay.h **** 	__tmp = ((F_CPU) / 1e3) * __ms;
 496               		.loc 3 173 2 view .LVU126
 174:/opt/homebrew/Cellar/avr-gcc@8/8.5.0_3/avr/include/util/delay.h **** 
 497               		.loc 3 174 2 view .LVU127
 184:/opt/homebrew/Cellar/avr-gcc@8/8.5.0_3/avr/include/util/delay.h **** 	#endif
 498               		.loc 3 184 3 view .LVU128
 184:/opt/homebrew/Cellar/avr-gcc@8/8.5.0_3/avr/include/util/delay.h **** 	#endif
 499               		.loc 3 184 3 is_stmt 0 view .LVU129
 500               	.LBE392:
 501               	.LBE401:
 502               	.LBE409:
 503               		.loc 4 170 5 is_stmt 1 view .LVU130
 504               	.LBB410:
 505               	.LBB402:
 506               	.LBB393:
 507               		.loc 3 187 2 view .LVU131
 508 0168 8FEF      		ldi r24,lo8(-28673)
 509 016a 9FE8      		ldi r25,hi8(-28673)
 510 016c 0197      	1:	sbiw r24,1
 511 016e 01F4      		brne 1b
 512 0170 00C0      		rjmp .
 513 0172 0000      		nop
 514               	.LVL32:
 515               		.loc 3 187 2 is_stmt 0 view .LVU132
 516               	.LBE393:
 517               	.LBE402:
1956:main.c        ****     _delay_ms(20);
 518               		.loc 1 1956 28 is_stmt 1 view .LVU133
1956:main.c        ****     _delay_ms(20);
 519               		.loc 1 1956 21 view .LVU134
 520               		.loc 1 1957 5 view .LVU135
 521               	.LBB403:
 166:/opt/homebrew/Cellar/avr-gcc@8/8.5.0_3/avr/include/util/delay.h **** {
 522               		.loc 3 166 1 view .LVU136
 523               	.LBB394:
 168:/opt/homebrew/Cellar/avr-gcc@8/8.5.0_3/avr/include/util/delay.h **** #if __HAS_DELAY_CYCLES && defined(__OPTIMIZE__) && \
 524               		.loc 3 168 2 view .LVU137
 172:/opt/homebrew/Cellar/avr-gcc@8/8.5.0_3/avr/include/util/delay.h **** 	extern void __builtin_avr_delay_cycles(unsigned long);
 525               		.loc 3 172 2 view .LVU138
 173:/opt/homebrew/Cellar/avr-gcc@8/8.5.0_3/avr/include/util/delay.h **** 	__tmp = ((F_CPU) / 1e3) * __ms;
 526               		.loc 3 173 2 view .LVU139
 174:/opt/homebrew/Cellar/avr-gcc@8/8.5.0_3/avr/include/util/delay.h **** 
 527               		.loc 3 174 2 view .LVU140
 184:/opt/homebrew/Cellar/avr-gcc@8/8.5.0_3/avr/include/util/delay.h **** 	#endif
 528               		.loc 3 184 3 view .LVU141
 184:/opt/homebrew/Cellar/avr-gcc@8/8.5.0_3/avr/include/util/delay.h **** 	#endif
 529               		.loc 3 184 3 is_stmt 0 view .LVU142
 530               	.LBE394:
 531               	.LBE403:
 532               	.LBE410:
 533               		.loc 4 170 5 is_stmt 1 view .LVU143
 534               	.LBB411:
 535               	.LBB404:
 536               	.LBB395:
 537               		.loc 3 187 2 view .LVU144
 538 0174 8FEF      		ldi r24,lo8(-28673)
 539 0176 9FE8      		ldi r25,hi8(-28673)
 540 0178 0197      	1:	sbiw r24,1
 541 017a 01F4      		brne 1b
 542 017c 00C0      		rjmp .
 543 017e 0000      		nop
 544               	.LVL33:
 545               		.loc 3 187 2 is_stmt 0 view .LVU145
 546               	.LBE395:
 547               	.LBE404:
1956:main.c        ****     _delay_ms(20);
 548               		.loc 1 1956 28 is_stmt 1 view .LVU146
1956:main.c        ****     _delay_ms(20);
 549               		.loc 1 1956 21 view .LVU147
 550               		.loc 1 1957 5 view .LVU148
 551               	.LBB405:
 166:/opt/homebrew/Cellar/avr-gcc@8/8.5.0_3/avr/include/util/delay.h **** {
 552               		.loc 3 166 1 view .LVU149
 553               	.LBB396:
 168:/opt/homebrew/Cellar/avr-gcc@8/8.5.0_3/avr/include/util/delay.h **** #if __HAS_DELAY_CYCLES && defined(__OPTIMIZE__) && \
 554               		.loc 3 168 2 view .LVU150
 172:/opt/homebrew/Cellar/avr-gcc@8/8.5.0_3/avr/include/util/delay.h **** 	extern void __builtin_avr_delay_cycles(unsigned long);
 555               		.loc 3 172 2 view .LVU151
 173:/opt/homebrew/Cellar/avr-gcc@8/8.5.0_3/avr/include/util/delay.h **** 	__tmp = ((F_CPU) / 1e3) * __ms;
 556               		.loc 3 173 2 view .LVU152
 174:/opt/homebrew/Cellar/avr-gcc@8/8.5.0_3/avr/include/util/delay.h **** 
 557               		.loc 3 174 2 view .LVU153
 184:/opt/homebrew/Cellar/avr-gcc@8/8.5.0_3/avr/include/util/delay.h **** 	#endif
 558               		.loc 3 184 3 view .LVU154
 184:/opt/homebrew/Cellar/avr-gcc@8/8.5.0_3/avr/include/util/delay.h **** 	#endif
 559               		.loc 3 184 3 is_stmt 0 view .LVU155
 560               	.LBE396:
 561               	.LBE405:
 562               	.LBE411:
 563               		.loc 4 170 5 is_stmt 1 view .LVU156
 564               	.LBB412:
 565               	.LBB406:
 566               	.LBB397:
 567               		.loc 3 187 2 view .LVU157
 568 0180 8FEF      		ldi r24,lo8(-28673)
 569 0182 9FE8      		ldi r25,hi8(-28673)
 570 0184 0197      	1:	sbiw r24,1
 571 0186 01F4      		brne 1b
 572 0188 00C0      		rjmp .
 573 018a 0000      		nop
 574               	.LVL34:
 575               		.loc 3 187 2 is_stmt 0 view .LVU158
 576               	.LBE397:
 577               	.LBE406:
1956:main.c        ****     _delay_ms(20);
 578               		.loc 1 1956 28 is_stmt 1 view .LVU159
1956:main.c        ****     _delay_ms(20);
 579               		.loc 1 1956 21 view .LVU160
 580               		.loc 1 1957 5 view .LVU161
 581               	.LBB407:
 166:/opt/homebrew/Cellar/avr-gcc@8/8.5.0_3/avr/include/util/delay.h **** {
 582               		.loc 3 166 1 view .LVU162
 583               	.LBB398:
 168:/opt/homebrew/Cellar/avr-gcc@8/8.5.0_3/avr/include/util/delay.h **** #if __HAS_DELAY_CYCLES && defined(__OPTIMIZE__) && \
 584               		.loc 3 168 2 view .LVU163
 172:/opt/homebrew/Cellar/avr-gcc@8/8.5.0_3/avr/include/util/delay.h **** 	extern void __builtin_avr_delay_cycles(unsigned long);
 585               		.loc 3 172 2 view .LVU164
 173:/opt/homebrew/Cellar/avr-gcc@8/8.5.0_3/avr/include/util/delay.h **** 	__tmp = ((F_CPU) / 1e3) * __ms;
 586               		.loc 3 173 2 view .LVU165
 174:/opt/homebrew/Cellar/avr-gcc@8/8.5.0_3/avr/include/util/delay.h **** 
 587               		.loc 3 174 2 view .LVU166
 184:/opt/homebrew/Cellar/avr-gcc@8/8.5.0_3/avr/include/util/delay.h **** 	#endif
 588               		.loc 3 184 3 view .LVU167
 184:/opt/homebrew/Cellar/avr-gcc@8/8.5.0_3/avr/include/util/delay.h **** 	#endif
 589               		.loc 3 184 3 is_stmt 0 view .LVU168
 590               	.LBE398:
 591               	.LBE407:
 592               	.LBE412:
 593               		.loc 4 170 5 is_stmt 1 view .LVU169
 594               	.LBB413:
 595               	.LBB408:
 596               	.LBB399:
 597               		.loc 3 187 2 view .LVU170
 598 018c 8FEF      		ldi r24,lo8(-28673)
 599 018e 9FE8      		ldi r25,hi8(-28673)
 600 0190 0197      	1:	sbiw r24,1
 601 0192 01F4      		brne 1b
 602 0194 00C0      		rjmp .
 603 0196 0000      		nop
 604               	.LVL35:
 605               		.loc 3 187 2 is_stmt 0 view .LVU171
 606               	.LBE399:
 607               	.LBE408:
1956:main.c        ****     _delay_ms(20);
 608               		.loc 1 1956 28 is_stmt 1 view .LVU172
1956:main.c        ****     _delay_ms(20);
 609               		.loc 1 1956 21 view .LVU173
 610               	.LBE413:
1958:main.c        ****   wdt_reset();
 611               		.loc 1 1958 3 view .LVU174
 612               	/* #APP */
 613               	 ;  1958 "main.c" 1
 614 0198 A895      		wdr
 615               	 ;  0 "" 2
 616               	/* #NOAPP */
 617               	/* epilogue start */
1959:main.c        **** }
 618               		.loc 1 1959 1 is_stmt 0 view .LVU175
 619 019a 0895      		ret
 620               		.cfi_endproc
 621               	.LFE78:
 623               	.global	test_dioda_wyjscia
 625               	test_dioda_wyjscia:
 626               	.LFB28:
 627               		.file 5 "test_pcb.h"
   1:test_pcb.h    **** void test_dioda_wyjscia(void)
   2:test_pcb.h    **** {
 628               		.loc 5 2 1 is_stmt 1 view -0
 629               		.cfi_startproc
 630               	/* prologue: function */
 631               	/* frame size = 0 */
 632               	/* stack size = 0 */
 633               	.L__stack_usage = 0
   3:test_pcb.h    **** 	static uchar opoznienie_1s;
 634               		.loc 5 3 2 view .LVU177
   4:test_pcb.h    **** 	if ( ++opoznienie_1s < 100 )
 635               		.loc 5 4 2 view .LVU178
 636               		.loc 5 4 7 is_stmt 0 view .LVU179
 637 019c 8091 0000 		lds r24,opoznienie_1s.3009
 638 01a0 8F5F      		subi r24,lo8(-(1))
 639               		.loc 5 4 5 view .LVU180
 640 01a2 8436      		cpi r24,lo8(100)
 641 01a4 00F4      		brsh .L33
 642 01a6 8093 0000 		sts opoznienie_1s.3009,r24
 643 01aa 0895      		ret
 644               	.L33:
   5:test_pcb.h    **** 		return;
   6:test_pcb.h    **** 	opoznienie_1s = 0;
 645               		.loc 5 6 2 is_stmt 1 view .LVU181
 646               		.loc 5 6 16 is_stmt 0 view .LVU182
 647 01ac 1092 0000 		sts opoznienie_1s.3009,__zero_reg__
   7:test_pcb.h    **** 	static uchar stan;
 648               		.loc 5 7 2 is_stmt 1 view .LVU183
   8:test_pcb.h    **** 	stan = not stan;
 649               		.loc 5 8 2 view .LVU184
 650               		.loc 5 8 9 is_stmt 0 view .LVU185
 651 01b0 8091 0000 		lds r24,stan.3010
 652 01b4 91E0      		ldi r25,lo8(1)
 653 01b6 8111      		cpse r24,__zero_reg__
 654 01b8 90E0      		ldi r25,0
 655               	.L35:
 656               		.loc 5 8 7 view .LVU186
 657 01ba 9093 0000 		sts stan.3010,r25
   9:test_pcb.h    **** 	if ( stan )
 658               		.loc 5 9 2 is_stmt 1 view .LVU187
 659               		.loc 5 9 5 is_stmt 0 view .LVU188
 660 01be 8111      		cpse r24,__zero_reg__
 661 01c0 00C0      		rjmp .L36
  10:test_pcb.h    **** 	{
  11:test_pcb.h    **** 		ustaw_stan_led(TRUE);
 662               		.loc 5 11 3 is_stmt 1 discriminator 2 view .LVU189
 663               		.loc 5 11 3 discriminator 2 view .LVU190
 664               		.loc 5 11 3 discriminator 2 view .LVU191
 665 01c2 4098      		cbi 0x8,0
 666               		.loc 5 11 3 discriminator 2 view .LVU192
 667 01c4 0895      		ret
 668               	.L36:
  12:test_pcb.h    **** 	}
  13:test_pcb.h    **** 	else
  14:test_pcb.h    **** 	{
  15:test_pcb.h    **** 		ustaw_stan_led(FALSE);
 669               		.loc 5 15 3 discriminator 1 view .LVU193
 670               		.loc 5 15 3 discriminator 1 view .LVU194
 671               		.loc 5 15 3 discriminator 1 view .LVU195
 672 01c6 409A      		sbi 0x8,0
 673               		.loc 5 15 3 discriminator 1 view .LVU196
 674               	/* epilogue start */
  16:test_pcb.h    **** 	}
  17:test_pcb.h    **** }
 675               		.loc 5 17 1 is_stmt 0 discriminator 1 view .LVU197
 676 01c8 0895      		ret
 677               		.cfi_endproc
 678               	.LFE28:
 680               	.global	test_wejscie
 682               	test_wejscie:
 683               	.LFB29:
  18:test_pcb.h    **** 
  19:test_pcb.h    **** void test_wejscie(void)
  20:test_pcb.h    **** {
 684               		.loc 5 20 1 is_stmt 1 view -0
 685               		.cfi_startproc
 686               	/* prologue: function */
 687               	/* frame size = 0 */
 688               	/* stack size = 0 */
 689               	.L__stack_usage = 0
  21:test_pcb.h    **** 	ustaw_stan_led(stan_wejscia(0));
 690               		.loc 5 21 2 view .LVU199
 691               		.loc 5 21 2 view .LVU200
 692               	.LVL36:
 693               	.LBB414:
 694               	.LBI414:
 695               		.file 6 "wewy.h"
   1:wewy.h        **** 
   2:wewy.h        **** #include <avr/io.h>
   3:wewy.h        **** #include "narzedzia.h"
   4:wewy.h        **** #include "konfiguracja_eeprom.h"
   5:wewy.h        **** 
   6:wewy.h        **** #define LICZBA_WEJSC	1
   7:wewy.h        **** extern uchar licznik_wejscie[LICZBA_WEJSC];
   8:wewy.h        **** 
   9:wewy.h        **** extern uchar parametry_wejscia[LICZBA_WEJSC];
  10:wewy.h        **** void kopiuj_parametry_we_wy_z_eeprom(void);
  11:wewy.h        **** 
  12:wewy.h        **** extern ulong czas_trwania_impulsu_na_wejsciu[LICZBA_WEJSC];
  13:wewy.h        **** extern ulong czas_trwania_impulsu_off_na_wejsciu[LICZBA_WEJSC];
  14:wewy.h        **** 
  15:wewy.h        **** #define STAN_LOGICZNY_NA_WEJSCIU_WYZWOLENIE	0x02
  16:wewy.h        **** #define STAN_LOGICZNY_NA_WEJSCIU_ON					0x01
  17:wewy.h        **** #define STAN_LOGICZNY_NA_WEJSCIU_OFF				0x00
  18:wewy.h        **** #define CZY_WYZWOLENIE_NA_WEJSCIU(NR_WEJ)	(stan_logiczny_na_wejsciu[NR_WEJ] & STAN_LOGICZNY_NA_WEJS
  19:wewy.h        **** #define CZY_AKTUALNY_STAN_LOGICZNY_ON(NR_WEJ)	(stan_logiczny_na_wejsciu[NR_WEJ] & STAN_LOGICZNY_NA_
  20:wewy.h        **** #define CZY_AKTUALNY_STAN_LOGICZNY_OFF(NR_WEJ)	(!CZY_AKTUALNY_STAN_LOGICZNY_ON(NR_WEJ))
  21:wewy.h        **** 
  22:wewy.h        **** extern uchar stan_logiczny_na_wejsciu[LICZBA_WEJSC];
  23:wewy.h        **** 
  24:wewy.h        **** void steruj_wejscia_10ms(void);
  25:wewy.h        **** void aktualizuj_stan_wyzwolenia_wejsc_100ms(void);
  26:wewy.h        **** void inicjalizuj_parametry_we_wy(void);
  27:wewy.h        **** 
  28:wewy.h        **** static uchar stan_wejscia(const uchar nr_wejscia) __attribute__((unused));
  29:wewy.h        **** 
  30:wewy.h        **** static uchar stan_wejscia(const uchar nr_wejscia)
 696               		.loc 6 30 14 view .LVU201
 697               	.LBB415:
  31:wewy.h        **** {
  32:wewy.h        **** 	return licznik_wejscie[nr_wejscia] & 0xf0;
 698               		.loc 6 32 2 view .LVU202
 699               		.loc 6 32 37 is_stmt 0 view .LVU203
 700 01ca 8091 0000 		lds r24,licznik_wejscie
 701 01ce 807F      		andi r24,lo8(-16)
 702               	.LBE415:
 703               	.LBE414:
 704               		.loc 5 21 2 view .LVU204
 705 01d0 01F4      		brne .L41
 706               		.loc 5 21 2 is_stmt 1 discriminator 1 view .LVU205
 707 01d2 409A      		sbi 0x8,0
 708 01d4 0895      		ret
 709               	.L41:
 710               		.loc 5 21 2 discriminator 2 view .LVU206
 711 01d6 4098      		cbi 0x8,0
 712               		.loc 5 21 2 discriminator 2 view .LVU207
 713               	/* epilogue start */
  22:test_pcb.h    **** }
 714               		.loc 5 22 1 is_stmt 0 discriminator 2 view .LVU208
 715 01d8 0895      		ret
 716               		.cfi_endproc
 717               	.LFE29:
 719               	.global	__vector_14
 721               	__vector_14:
 722               	.LFB30:
 103:main.c        ****   if (++licznik_wybudz_watki_10MS >= OPOZNIENIE_TIMERA_0) {
 723               		.loc 1 103 20 is_stmt 1 view -0
 724               		.cfi_startproc
 725 01da 7894      		sei
 726 01dc 0F92 0FB6 		__gcc_isr 1
 726      0F92 1F92 
 726      1124 2F93 
 727 01e8 8F93      		push r24
 728               	.LCFI10:
 729               		.cfi_def_cfa_offset 3
 730               		.cfi_offset 24, -2
 731 01ea 9F93      		push r25
 732               	.LCFI11:
 733               		.cfi_def_cfa_offset 4
 734               		.cfi_offset 25, -3
 735 01ec EF93      		push r30
 736               	.LCFI12:
 737               		.cfi_def_cfa_offset 5
 738               		.cfi_offset 30, -4
 739 01ee FF93      		push r31
 740               	.LCFI13:
 741               		.cfi_def_cfa_offset 6
 742               		.cfi_offset 31, -5
 743               	/* prologue: Interrupt */
 744               	/* frame size = 0 */
 745               	/* stack size = 4...8 */
 746               	.L__stack_usage = 4 + __gcc_isr.n_pushed
 104:main.c        ****     licznik_wybudz_watki_10MS = 0;
 747               		.loc 1 104 3 view .LVU210
 104:main.c        ****     licznik_wybudz_watki_10MS = 0;
 748               		.loc 1 104 7 is_stmt 0 view .LVU211
 749 01f0 8091 0000 		lds r24,licznik_wybudz_watki_10MS
 750 01f4 8F5F      		subi r24,lo8(-(1))
 104:main.c        ****     licznik_wybudz_watki_10MS = 0;
 751               		.loc 1 104 6 view .LVU212
 752 01f6 8093 0000 		sts licznik_wybudz_watki_10MS,r24
 753 01fa 8231      		cpi r24,lo8(18)
 754 01fc 00F0      		brlo .L44
 105:main.c        ****     wykonac_watki_10MS = TRUE;
 755               		.loc 1 105 5 is_stmt 1 view .LVU213
 105:main.c        ****     wykonac_watki_10MS = TRUE;
 756               		.loc 1 105 31 is_stmt 0 view .LVU214
 757 01fe 1092 0000 		sts licznik_wybudz_watki_10MS,__zero_reg__
 106:main.c        ****   }
 758               		.loc 1 106 5 is_stmt 1 view .LVU215
 106:main.c        ****   }
 759               		.loc 1 106 24 is_stmt 0 view .LVU216
 760 0202 8FEF      		ldi r24,lo8(-1)
 761 0204 8093 0000 		sts wykonac_watki_10MS,r24
 762               	.L44:
 109:main.c        ****     if (!CZY_ODBIERANIE_DANYCH_SIM900() && czy_jest_bezczynny_SIM900()) {
 763               		.loc 1 109 3 is_stmt 1 view .LVU217
 109:main.c        ****     if (!CZY_ODBIERANIE_DANYCH_SIM900() && czy_jest_bezczynny_SIM900()) {
 764               		.loc 1 109 6 is_stmt 0 view .LVU218
 765 0208 4B9B      		sbis 0x9,3
 766 020a 00C0      		rjmp .L45
 110:main.c        ****       ustaw_odbior_SIM900();
 767               		.loc 1 110 5 is_stmt 1 view .LVU219
 110:main.c        ****       ustaw_odbior_SIM900();
 768               		.loc 1 110 8 is_stmt 0 view .LVU220
 769 020c 00B6      		in __tmp_reg__,0x30
 770 020e 01FC      		sbrc __tmp_reg__,1
 771 0210 00C0      		rjmp .L46
 110:main.c        ****       ustaw_odbior_SIM900();
 772               		.loc 1 110 44 discriminator 1 view .LVU221
 773 0212 8091 0000 		lds r24,komenda_SIM900
 110:main.c        ****       ustaw_odbior_SIM900();
 774               		.loc 1 110 41 discriminator 1 view .LVU222
 775 0216 8111      		cpse r24,__zero_reg__
 776 0218 00C0      		rjmp .L46
 111:main.c        ****     }
 777               		.loc 1 111 7 is_stmt 1 view .LVU223
 778 021a 1092 0000 		sts liczba_odebranych_znakow_SIM900+1,__zero_reg__
 779 021e 1092 0000 		sts liczba_odebranych_znakow_SIM900,__zero_reg__
 111:main.c        ****     }
 780               		.loc 1 111 7 view .LVU224
 781 0222 1092 0000 		sts licznik_opoznienie_oczekiwania_na_bajt_SIM900,__zero_reg__
 111:main.c        ****     }
 782               		.loc 1 111 7 view .LVU225
 783 0226 80B7      		in r24,0x30
 784 0228 8260      		ori r24,lo8(2)
 785 022a 80BF      		out 0x30,r24
 111:main.c        ****     }
 786               		.loc 1 111 7 view .LVU226
 111:main.c        ****     }
 787               		.loc 1 111 7 view .LVU227
 788               	/* #APP */
 789               	 ;  111 "main.c" 1
 790 022c F894      		cli
 791               	 ;  0 "" 2
 111:main.c        ****     }
 792               		.loc 1 111 7 view .LVU228
 793               	/* #NOAPP */
 794 022e 8091 C100 		lds r24,193
 795 0232 8068      		ori r24,lo8(-128)
 796 0234 8093 C100 		sts 193,r24
 111:main.c        ****     }
 797               		.loc 1 111 7 view .LVU229
 798               	/* #APP */
 799               	 ;  111 "main.c" 1
 800 0238 7894      		sei
 801               	 ;  0 "" 2
 111:main.c        ****     }
 802               		.loc 1 111 7 view .LVU230
 803               	 ;  111 "main.c" 1
 804 023a 0000      		nop
 805               	 ;  0 "" 2
 111:main.c        ****     }
 806               		.loc 1 111 7 view .LVU231
 111:main.c        ****     }
 807               		.loc 1 111 7 view .LVU232
 808               	/* #NOAPP */
 809 023c 4398      		cbi 0x8,3
 810               	.L46:
 111:main.c        ****     }
 811               		.loc 1 111 28 discriminator 1 view .LVU233
 113:main.c        ****       cli();
 812               		.loc 1 113 5 discriminator 1 view .LVU234
 113:main.c        ****       cli();
 813               		.loc 1 113 8 is_stmt 0 discriminator 1 view .LVU235
 814 023e 3299      		sbic 0x6,2
 815 0240 00C0      		rjmp .L47
 114:main.c        ****       if (CZY_WYSYLANIE_DANYCH_SIM900()) {
 816               		.loc 1 114 7 is_stmt 1 view .LVU236
 817               	/* #APP */
 818               	 ;  114 "main.c" 1
 819 0242 F894      		cli
 820               	 ;  0 "" 2
 115:main.c        ****         WYLACZ_PRZERWANIE_WYSYLANIA_DANYCH_SIM900();
 821               		.loc 1 115 7 view .LVU237
 115:main.c        ****         WYLACZ_PRZERWANIE_WYSYLANIA_DANYCH_SIM900();
 822               		.loc 1 115 11 is_stmt 0 view .LVU238
 823               	/* #NOAPP */
 824 0244 8091 C100 		lds r24,193
 115:main.c        ****         WYLACZ_PRZERWANIE_WYSYLANIA_DANYCH_SIM900();
 825               		.loc 1 115 10 view .LVU239
 826 0248 86FF      		sbrs r24,6
 827 024a 00C0      		rjmp .L48
 828               	.LBB416:
 116:main.c        ****         sei();
 829               		.loc 1 116 9 is_stmt 1 view .LVU240
 830 024c 8091 C100 		lds r24,193
 831 0250 8F7B      		andi r24,lo8(-65)
 832 0252 8093 C100 		sts 193,r24
 117:main.c        ****         uchar p = sprawdzaj_wejscie_CTS_SIM900;
 833               		.loc 1 117 9 view .LVU241
 834               	/* #APP */
 835               	 ;  117 "main.c" 1
 836 0256 7894      		sei
 837               	 ;  0 "" 2
 118:main.c        ****         if (p && (podlaczony_modul_gsm_SIM900 ||
 838               		.loc 1 118 9 view .LVU242
 118:main.c        ****         if (p && (podlaczony_modul_gsm_SIM900 ||
 839               		.loc 1 118 15 is_stmt 0 view .LVU243
 840               	/* #NOAPP */
 841 0258 8091 0000 		lds r24,sprawdzaj_wejscie_CTS_SIM900
 842               	.LVL37:
 119:main.c        ****                   aktualnie_wysylane_polecenie_SIM900 ==
 843               		.loc 1 119 9 is_stmt 1 view .LVU244
 119:main.c        ****                   aktualnie_wysylane_polecenie_SIM900 ==
 844               		.loc 1 119 12 is_stmt 0 view .LVU245
 845 025c 8823      		tst r24
 846 025e 01F0      		breq .L49
 119:main.c        ****                   aktualnie_wysylane_polecenie_SIM900 ==
 847               		.loc 1 119 15 discriminator 1 view .LVU246
 848 0260 8091 0000 		lds r24,podlaczony_modul_gsm_SIM900
 849               	.LVL38:
 119:main.c        ****                   aktualnie_wysylane_polecenie_SIM900 ==
 850               		.loc 1 119 15 discriminator 1 view .LVU247
 851 0264 8111      		cpse r24,__zero_reg__
 852 0266 00C0      		rjmp .L50
 119:main.c        ****                   aktualnie_wysylane_polecenie_SIM900 ==
 853               		.loc 1 119 47 discriminator 2 view .LVU248
 854 0268 8091 0000 		lds r24,aktualnie_wysylane_polecenie_SIM900
 855 026c 8D32      		cpi r24,lo8(45)
 856 026e 01F4      		brne .L49
 857               	.L50:
 122:main.c        ****           sprawdzaj_wejscie_CTS_SIM900 = p;
 858               		.loc 1 122 11 is_stmt 1 view .LVU249
 859               	.LVL39:
 123:main.c        ****           WSTAW_ZNAK_DO_BUFORA_SIM900();
 860               		.loc 1 123 11 view .LVU250
 123:main.c        ****           WSTAW_ZNAK_DO_BUFORA_SIM900();
 861               		.loc 1 123 40 is_stmt 0 view .LVU251
 862 0270 1092 0000 		sts sprawdzaj_wejscie_CTS_SIM900,__zero_reg__
 863               	.LBB417:
 124:main.c        ****         }
 864               		.loc 1 124 11 is_stmt 1 view .LVU252
 865 0274 8091 0000 		lds r24,nr_wyslanego_znaku_SIM900
 866 0278 9091 0000 		lds r25,nr_wyslanego_znaku_SIM900+1
 867               	.LVL40:
 124:main.c        ****         }
 868               		.loc 1 124 11 view .LVU253
 869 027c FC01      		movw r30,r24
 870 027e E050      		subi r30,lo8(-(wysylany_blok_SIM900))
 871 0280 F040      		sbci r31,hi8(-(wysylany_blok_SIM900))
 872 0282 2081      		ld r18,Z
 873               	.LVL41:
 124:main.c        ****         }
 874               		.loc 1 124 11 view .LVU254
 875 0284 0196      		adiw r24,1
 876               	.LVL42:
 124:main.c        ****         }
 877               		.loc 1 124 11 is_stmt 0 view .LVU255
 878 0286 9093 0000 		sts nr_wyslanego_znaku_SIM900+1,r25
 879 028a 8093 0000 		sts nr_wyslanego_znaku_SIM900,r24
 124:main.c        ****         }
 880               		.loc 1 124 11 is_stmt 1 view .LVU256
 881 028e 2093 C600 		sts 198,r18
 882               	.LVL43:
 883               	.L49:
 124:main.c        ****         }
 884               		.loc 1 124 11 is_stmt 0 view .LVU257
 885               	.LBE417:
 124:main.c        ****         }
 886               		.loc 1 124 40 is_stmt 1 discriminator 1 view .LVU258
 126:main.c        ****         WLACZ_PRZERWANIE_WYSYLANIA_DANYCH_SIM900();
 887               		.loc 1 126 9 discriminator 1 view .LVU259
 888               	/* #APP */
 889               	 ;  126 "main.c" 1
 890 0292 F894      		cli
 891               	 ;  0 "" 2
 127:main.c        ****       }
 892               		.loc 1 127 9 discriminator 1 view .LVU260
 893               	/* #NOAPP */
 894 0294 8091 C100 		lds r24,193
 895 0298 8064      		ori r24,lo8(64)
 896 029a 8093 C100 		sts 193,r24
 897               	.L48:
 898               	.LBE416:
 129:main.c        ****     }
 899               		.loc 1 129 7 view .LVU261
 900               	/* #APP */
 901               	 ;  129 "main.c" 1
 902 029e 7894      		sei
 903               	 ;  0 "" 2
 904               	/* #NOAPP */
 905               	.L47:
 132:main.c        ****   }
 906               		.loc 1 132 5 discriminator 1 view .LVU262
 132:main.c        ****   }
 907               		.loc 1 132 33 discriminator 1 view .LVU263
 135:main.c        ****       TRUE; // uruchamia zdarzenie_timer, ktra korzysta z pozostaych zmiennych
 908               		.loc 1 135 3 discriminator 1 view .LVU264
 135:main.c        ****       TRUE; // uruchamia zdarzenie_timer, ktra korzysta z pozostaych zmiennych
 909               		.loc 1 135 27 is_stmt 0 discriminator 1 view .LVU265
 910 02a0 8FEF      		ldi r24,lo8(-1)
 911 02a2 8093 0000 		sts wykonaj_zdarzenie_timer,r24
 912               	/* epilogue start */
 137:main.c        **** 
 913               		.loc 1 137 1 discriminator 1 view .LVU266
 914 02a6 FF91      		pop r31
 915 02a8 EF91      		pop r30
 916 02aa 9F91      		pop r25
 917 02ac 8F91      		pop r24
 918 02ae 2F91 1F90 		__gcc_isr 2
 918      0F90 0FBE 
 918      0F90 
 919 02b8 1895      		reti
 920               	.L45:
 132:main.c        ****   }
 921               		.loc 1 132 5 is_stmt 1 view .LVU267
 922 02ba 439A      		sbi 0x8,3
 132:main.c        ****   }
 923               		.loc 1 132 5 view .LVU268
 132:main.c        ****   }
 924               		.loc 1 132 5 view .LVU269
 925               	/* #APP */
 926               	 ;  132 "main.c" 1
 927 02bc F894      		cli
 928               	 ;  0 "" 2
 132:main.c        ****   }
 929               		.loc 1 132 5 view .LVU270
 930               	/* #NOAPP */
 931 02be 8091 C100 		lds r24,193
 932 02c2 8F73      		andi r24,lo8(63)
 933 02c4 8093 C100 		sts 193,r24
 132:main.c        ****   }
 934               		.loc 1 132 5 view .LVU271
 935 02c8 80B7      		in r24,0x30
 936 02ca 8D7F      		andi r24,lo8(-3)
 937 02cc 80BF      		out 0x30,r24
 132:main.c        ****   }
 938               		.loc 1 132 5 view .LVU272
 939               	/* #APP */
 940               	 ;  132 "main.c" 1
 941 02ce 7894      		sei
 942               	 ;  0 "" 2
 132:main.c        ****   }
 943               		.loc 1 132 5 view .LVU273
 944               	 ;  132 "main.c" 1
 945 02d0 0000      		nop
 946               	 ;  0 "" 2
 947               	/* #NOAPP */
 948 02d2 00C0      		rjmp .L47
 949               		__gcc_isr 0,r18
 950               		.cfi_endproc
 951               	.LFE30:
 953               	.global	generuj_raport_sieci
 955               	generuj_raport_sieci:
 956               	.LVL44:
 957               	.LFB31:
 157:main.c        ****   static const char tekst_header[] PROGMEM = "AC-2000-DTMF-F\n";
 958               		.loc 1 157 44 view -0
 959               		.cfi_startproc
 157:main.c        ****   static const char tekst_header[] PROGMEM = "AC-2000-DTMF-F\n";
 960               		.loc 1 157 44 is_stmt 0 view .LVU275
 961 02d4 0F93      		push r16
 962               	.LCFI14:
 963               		.cfi_def_cfa_offset 3
 964               		.cfi_offset 16, -2
 965 02d6 1F93      		push r17
 966               	.LCFI15:
 967               		.cfi_def_cfa_offset 4
 968               		.cfi_offset 17, -3
 969 02d8 CF93      		push r28
 970               	.LCFI16:
 971               		.cfi_def_cfa_offset 5
 972               		.cfi_offset 28, -4
 973 02da DF93      		push r29
 974               	.LCFI17:
 975               		.cfi_def_cfa_offset 6
 976               		.cfi_offset 29, -5
 977               	/* prologue: function */
 978               	/* frame size = 0 */
 979               	/* stack size = 4 */
 980               	.L__stack_usage = 4
 981 02dc 8C01      		movw r16,r24
 158:main.c        ****   uchar *ptr = *buf_sms;
 982               		.loc 1 158 3 is_stmt 1 view .LVU276
 159:main.c        **** 
 983               		.loc 1 159 3 view .LVU277
 159:main.c        **** 
 984               		.loc 1 159 10 is_stmt 0 view .LVU278
 985 02de DC01      		movw r26,r24
 986 02e0 CD91      		ld r28,X+
 987 02e2 DC91      		ld r29,X
 988               	.LVL45:
 162:main.c        ****   ptr += sizeof tekst_header - 1;
 989               		.loc 1 162 3 is_stmt 1 view .LVU279
 990 02e4 4FE0      		ldi r20,lo8(15)
 991 02e6 50E0      		ldi r21,0
 992 02e8 60E0      		ldi r22,lo8(tekst_header.3059)
 993 02ea 70E0      		ldi r23,hi8(tekst_header.3059)
 994 02ec CE01      		movw r24,r28
 995               	.LVL46:
 162:main.c        ****   ptr += sizeof tekst_header - 1;
 996               		.loc 1 162 3 is_stmt 0 view .LVU280
 997 02ee 0E94 0000 		call memcpy_P
 998               	.LVL47:
 163:main.c        **** 
 999               		.loc 1 163 3 is_stmt 1 view .LVU281
 167:main.c        ****   ptr += 12;
 1000               		.loc 1 167 3 view .LVU282
 1001               	.LBB418:
 167:main.c        ****   ptr += 12;
 1002               		.loc 1 167 25 view .LVU283
 167:main.c        ****   ptr += 12;
 1003               		.loc 1 167 25 view .LVU284
 1004               	.LBE418:
 167:main.c        ****   ptr += 12;
 1005               		.loc 1 167 3 is_stmt 0 view .LVU285
 1006 02f2 60E0      		ldi r22,lo8(__c.3061)
 1007 02f4 70E0      		ldi r23,hi8(__c.3061)
 1008 02f6 CE01      		movw r24,r28
 1009 02f8 0F96      		adiw r24,15
 1010               	.LVL48:
 167:main.c        ****   ptr += 12;
 1011               		.loc 1 167 3 view .LVU286
 1012 02fa 0E94 0000 		call strcpy_P
 1013               	.LVL49:
 168:main.c        **** 
 1014               		.loc 1 168 3 is_stmt 1 view .LVU287
 171:main.c        ****     utoa(poziom_sieci_gsm * 100 / 31, ptr, 10);
 1015               		.loc 1 171 3 view .LVU288
 171:main.c        ****     utoa(poziom_sieci_gsm * 100 / 31, ptr, 10);
 1016               		.loc 1 171 24 is_stmt 0 view .LVU289
 1017 02fe 8091 0000 		lds r24,poziom_sieci_gsm
 171:main.c        ****     utoa(poziom_sieci_gsm * 100 / 31, ptr, 10);
 1018               		.loc 1 171 6 view .LVU290
 1019 0302 8032      		cpi r24,lo8(32)
 1020 0304 00F4      		brsh .L58
 171:main.c        ****     utoa(poziom_sieci_gsm * 100 / 31, ptr, 10);
 1021               		.loc 1 171 30 discriminator 1 view .LVU291
 1022 0306 9091 0000 		lds r25,modul_zalogowany_w_sieci
 1023 030a 9923      		tst r25
 1024 030c 01F0      		breq .L58
 168:main.c        **** 
 1025               		.loc 1 168 7 view .LVU292
 1026 030e 6B96      		adiw r28,27
 1027               	.LVL50:
 172:main.c        ****     ptr += strlen(ptr);
 1028               		.loc 1 172 5 is_stmt 1 view .LVU293
 1029               	.LBB419:
 1030               	.LBI419:
 1031               		.file 7 "/opt/homebrew/Cellar/avr-gcc@8/8.5.0_3/avr/include/stdlib.h"
   1:/opt/homebrew/Cellar/avr-gcc@8/8.5.0_3/avr/include/stdlib.h **** /* Copyright (c) 2002, Marek Michalkiewicz
   2:/opt/homebrew/Cellar/avr-gcc@8/8.5.0_3/avr/include/stdlib.h ****    Copyright (c) 2004,2007 Joerg Wunsch
   3:/opt/homebrew/Cellar/avr-gcc@8/8.5.0_3/avr/include/stdlib.h **** 
   4:/opt/homebrew/Cellar/avr-gcc@8/8.5.0_3/avr/include/stdlib.h ****    Portions of documentation Copyright (c) 1990, 1991, 1993, 1994
   5:/opt/homebrew/Cellar/avr-gcc@8/8.5.0_3/avr/include/stdlib.h ****    The Regents of the University of California.
   6:/opt/homebrew/Cellar/avr-gcc@8/8.5.0_3/avr/include/stdlib.h **** 
   7:/opt/homebrew/Cellar/avr-gcc@8/8.5.0_3/avr/include/stdlib.h ****    All rights reserved.
   8:/opt/homebrew/Cellar/avr-gcc@8/8.5.0_3/avr/include/stdlib.h **** 
   9:/opt/homebrew/Cellar/avr-gcc@8/8.5.0_3/avr/include/stdlib.h ****    Redistribution and use in source and binary forms, with or without
  10:/opt/homebrew/Cellar/avr-gcc@8/8.5.0_3/avr/include/stdlib.h ****    modification, are permitted provided that the following conditions are met:
  11:/opt/homebrew/Cellar/avr-gcc@8/8.5.0_3/avr/include/stdlib.h **** 
  12:/opt/homebrew/Cellar/avr-gcc@8/8.5.0_3/avr/include/stdlib.h ****    * Redistributions of source code must retain the above copyright
  13:/opt/homebrew/Cellar/avr-gcc@8/8.5.0_3/avr/include/stdlib.h ****      notice, this list of conditions and the following disclaimer.
  14:/opt/homebrew/Cellar/avr-gcc@8/8.5.0_3/avr/include/stdlib.h **** 
  15:/opt/homebrew/Cellar/avr-gcc@8/8.5.0_3/avr/include/stdlib.h ****    * Redistributions in binary form must reproduce the above copyright
  16:/opt/homebrew/Cellar/avr-gcc@8/8.5.0_3/avr/include/stdlib.h ****      notice, this list of conditions and the following disclaimer in
  17:/opt/homebrew/Cellar/avr-gcc@8/8.5.0_3/avr/include/stdlib.h ****      the documentation and/or other materials provided with the
  18:/opt/homebrew/Cellar/avr-gcc@8/8.5.0_3/avr/include/stdlib.h ****      distribution.
  19:/opt/homebrew/Cellar/avr-gcc@8/8.5.0_3/avr/include/stdlib.h **** 
  20:/opt/homebrew/Cellar/avr-gcc@8/8.5.0_3/avr/include/stdlib.h ****    * Neither the name of the copyright holders nor the names of
  21:/opt/homebrew/Cellar/avr-gcc@8/8.5.0_3/avr/include/stdlib.h ****      contributors may be used to endorse or promote products derived
  22:/opt/homebrew/Cellar/avr-gcc@8/8.5.0_3/avr/include/stdlib.h ****      from this software without specific prior written permission.
  23:/opt/homebrew/Cellar/avr-gcc@8/8.5.0_3/avr/include/stdlib.h **** 
  24:/opt/homebrew/Cellar/avr-gcc@8/8.5.0_3/avr/include/stdlib.h ****   THIS SOFTWARE IS PROVIDED BY THE COPYRIGHT HOLDERS AND CONTRIBUTORS "AS IS"
  25:/opt/homebrew/Cellar/avr-gcc@8/8.5.0_3/avr/include/stdlib.h ****   AND ANY EXPRESS OR IMPLIED WARRANTIES, INCLUDING, BUT NOT LIMITED TO, THE
  26:/opt/homebrew/Cellar/avr-gcc@8/8.5.0_3/avr/include/stdlib.h ****   IMPLIED WARRANTIES OF MERCHANTABILITY AND FITNESS FOR A PARTICULAR PURPOSE
  27:/opt/homebrew/Cellar/avr-gcc@8/8.5.0_3/avr/include/stdlib.h ****   ARE DISCLAIMED. IN NO EVENT SHALL THE COPYRIGHT OWNER OR CONTRIBUTORS BE
  28:/opt/homebrew/Cellar/avr-gcc@8/8.5.0_3/avr/include/stdlib.h ****   LIABLE FOR ANY DIRECT, INDIRECT, INCIDENTAL, SPECIAL, EXEMPLARY, OR
  29:/opt/homebrew/Cellar/avr-gcc@8/8.5.0_3/avr/include/stdlib.h ****   CONSEQUENTIAL DAMAGES (INCLUDING, BUT NOT LIMITED TO, PROCUREMENT OF
  30:/opt/homebrew/Cellar/avr-gcc@8/8.5.0_3/avr/include/stdlib.h ****   SUBSTITUTE GOODS OR SERVICES; LOSS OF USE, DATA, OR PROFITS; OR BUSINESS
  31:/opt/homebrew/Cellar/avr-gcc@8/8.5.0_3/avr/include/stdlib.h ****   INTERRUPTION) HOWEVER CAUSED AND ON ANY THEORY OF LIABILITY, WHETHER IN
  32:/opt/homebrew/Cellar/avr-gcc@8/8.5.0_3/avr/include/stdlib.h ****   CONTRACT, STRICT LIABILITY, OR TORT (INCLUDING NEGLIGENCE OR OTHERWISE)
  33:/opt/homebrew/Cellar/avr-gcc@8/8.5.0_3/avr/include/stdlib.h ****   ARISING IN ANY WAY OUT OF THE USE OF THIS SOFTWARE, EVEN IF ADVISED OF THE
  34:/opt/homebrew/Cellar/avr-gcc@8/8.5.0_3/avr/include/stdlib.h ****   POSSIBILITY OF SUCH DAMAGE.
  35:/opt/homebrew/Cellar/avr-gcc@8/8.5.0_3/avr/include/stdlib.h **** 
  36:/opt/homebrew/Cellar/avr-gcc@8/8.5.0_3/avr/include/stdlib.h ****   $Id: stdlib.h 2524 2016-09-07 12:08:25Z joerg_wunsch $
  37:/opt/homebrew/Cellar/avr-gcc@8/8.5.0_3/avr/include/stdlib.h **** */
  38:/opt/homebrew/Cellar/avr-gcc@8/8.5.0_3/avr/include/stdlib.h **** 
  39:/opt/homebrew/Cellar/avr-gcc@8/8.5.0_3/avr/include/stdlib.h **** #ifndef _STDLIB_H_
  40:/opt/homebrew/Cellar/avr-gcc@8/8.5.0_3/avr/include/stdlib.h **** #define	_STDLIB_H_ 1
  41:/opt/homebrew/Cellar/avr-gcc@8/8.5.0_3/avr/include/stdlib.h **** 
  42:/opt/homebrew/Cellar/avr-gcc@8/8.5.0_3/avr/include/stdlib.h **** #ifndef __ASSEMBLER__
  43:/opt/homebrew/Cellar/avr-gcc@8/8.5.0_3/avr/include/stdlib.h **** 
  44:/opt/homebrew/Cellar/avr-gcc@8/8.5.0_3/avr/include/stdlib.h **** #ifndef __DOXYGEN__
  45:/opt/homebrew/Cellar/avr-gcc@8/8.5.0_3/avr/include/stdlib.h **** #define __need_NULL
  46:/opt/homebrew/Cellar/avr-gcc@8/8.5.0_3/avr/include/stdlib.h **** #define __need_size_t
  47:/opt/homebrew/Cellar/avr-gcc@8/8.5.0_3/avr/include/stdlib.h **** #define __need_wchar_t
  48:/opt/homebrew/Cellar/avr-gcc@8/8.5.0_3/avr/include/stdlib.h **** #include <stddef.h>
  49:/opt/homebrew/Cellar/avr-gcc@8/8.5.0_3/avr/include/stdlib.h **** 
  50:/opt/homebrew/Cellar/avr-gcc@8/8.5.0_3/avr/include/stdlib.h **** #ifndef __ptr_t
  51:/opt/homebrew/Cellar/avr-gcc@8/8.5.0_3/avr/include/stdlib.h **** #define __ptr_t void *
  52:/opt/homebrew/Cellar/avr-gcc@8/8.5.0_3/avr/include/stdlib.h **** #endif
  53:/opt/homebrew/Cellar/avr-gcc@8/8.5.0_3/avr/include/stdlib.h **** #endif	/* !__DOXYGEN__ */
  54:/opt/homebrew/Cellar/avr-gcc@8/8.5.0_3/avr/include/stdlib.h **** 
  55:/opt/homebrew/Cellar/avr-gcc@8/8.5.0_3/avr/include/stdlib.h **** #ifdef __cplusplus
  56:/opt/homebrew/Cellar/avr-gcc@8/8.5.0_3/avr/include/stdlib.h **** extern "C" {
  57:/opt/homebrew/Cellar/avr-gcc@8/8.5.0_3/avr/include/stdlib.h **** #endif
  58:/opt/homebrew/Cellar/avr-gcc@8/8.5.0_3/avr/include/stdlib.h **** 
  59:/opt/homebrew/Cellar/avr-gcc@8/8.5.0_3/avr/include/stdlib.h **** /** \file */
  60:/opt/homebrew/Cellar/avr-gcc@8/8.5.0_3/avr/include/stdlib.h **** 
  61:/opt/homebrew/Cellar/avr-gcc@8/8.5.0_3/avr/include/stdlib.h **** /** \defgroup avr_stdlib <stdlib.h>: General utilities
  62:/opt/homebrew/Cellar/avr-gcc@8/8.5.0_3/avr/include/stdlib.h ****     \code #include <stdlib.h> \endcode
  63:/opt/homebrew/Cellar/avr-gcc@8/8.5.0_3/avr/include/stdlib.h **** 
  64:/opt/homebrew/Cellar/avr-gcc@8/8.5.0_3/avr/include/stdlib.h ****     This file declares some basic C macros and functions as
  65:/opt/homebrew/Cellar/avr-gcc@8/8.5.0_3/avr/include/stdlib.h ****     defined by the ISO standard, plus some AVR-specific extensions.
  66:/opt/homebrew/Cellar/avr-gcc@8/8.5.0_3/avr/include/stdlib.h **** */
  67:/opt/homebrew/Cellar/avr-gcc@8/8.5.0_3/avr/include/stdlib.h **** 
  68:/opt/homebrew/Cellar/avr-gcc@8/8.5.0_3/avr/include/stdlib.h **** /*@{*/
  69:/opt/homebrew/Cellar/avr-gcc@8/8.5.0_3/avr/include/stdlib.h **** /** Result type for function div(). */
  70:/opt/homebrew/Cellar/avr-gcc@8/8.5.0_3/avr/include/stdlib.h **** typedef struct {
  71:/opt/homebrew/Cellar/avr-gcc@8/8.5.0_3/avr/include/stdlib.h **** 	int quot;                   /**< The Quotient. */
  72:/opt/homebrew/Cellar/avr-gcc@8/8.5.0_3/avr/include/stdlib.h **** 	int rem;                    /**< The Remainder. */
  73:/opt/homebrew/Cellar/avr-gcc@8/8.5.0_3/avr/include/stdlib.h **** } div_t;
  74:/opt/homebrew/Cellar/avr-gcc@8/8.5.0_3/avr/include/stdlib.h **** 
  75:/opt/homebrew/Cellar/avr-gcc@8/8.5.0_3/avr/include/stdlib.h **** /** Result type for function ldiv(). */
  76:/opt/homebrew/Cellar/avr-gcc@8/8.5.0_3/avr/include/stdlib.h **** typedef struct {
  77:/opt/homebrew/Cellar/avr-gcc@8/8.5.0_3/avr/include/stdlib.h **** 	long quot;                  /**< The Quotient. */
  78:/opt/homebrew/Cellar/avr-gcc@8/8.5.0_3/avr/include/stdlib.h **** 	long rem;                   /**< The Remainder. */
  79:/opt/homebrew/Cellar/avr-gcc@8/8.5.0_3/avr/include/stdlib.h **** } ldiv_t;
  80:/opt/homebrew/Cellar/avr-gcc@8/8.5.0_3/avr/include/stdlib.h **** 
  81:/opt/homebrew/Cellar/avr-gcc@8/8.5.0_3/avr/include/stdlib.h **** /** Comparision function type for qsort(), just for convenience. */
  82:/opt/homebrew/Cellar/avr-gcc@8/8.5.0_3/avr/include/stdlib.h **** typedef int (*__compar_fn_t)(const void *, const void *);
  83:/opt/homebrew/Cellar/avr-gcc@8/8.5.0_3/avr/include/stdlib.h **** 
  84:/opt/homebrew/Cellar/avr-gcc@8/8.5.0_3/avr/include/stdlib.h **** #ifndef __DOXYGEN__
  85:/opt/homebrew/Cellar/avr-gcc@8/8.5.0_3/avr/include/stdlib.h **** 
  86:/opt/homebrew/Cellar/avr-gcc@8/8.5.0_3/avr/include/stdlib.h **** #ifndef __ATTR_CONST__
  87:/opt/homebrew/Cellar/avr-gcc@8/8.5.0_3/avr/include/stdlib.h **** # define __ATTR_CONST__ __attribute__((__const__))
  88:/opt/homebrew/Cellar/avr-gcc@8/8.5.0_3/avr/include/stdlib.h **** #endif
  89:/opt/homebrew/Cellar/avr-gcc@8/8.5.0_3/avr/include/stdlib.h **** 
  90:/opt/homebrew/Cellar/avr-gcc@8/8.5.0_3/avr/include/stdlib.h **** #ifndef __ATTR_MALLOC__
  91:/opt/homebrew/Cellar/avr-gcc@8/8.5.0_3/avr/include/stdlib.h **** # define __ATTR_MALLOC__ __attribute__((__malloc__))
  92:/opt/homebrew/Cellar/avr-gcc@8/8.5.0_3/avr/include/stdlib.h **** #endif
  93:/opt/homebrew/Cellar/avr-gcc@8/8.5.0_3/avr/include/stdlib.h **** 
  94:/opt/homebrew/Cellar/avr-gcc@8/8.5.0_3/avr/include/stdlib.h **** #ifndef __ATTR_NORETURN__
  95:/opt/homebrew/Cellar/avr-gcc@8/8.5.0_3/avr/include/stdlib.h **** # define __ATTR_NORETURN__ __attribute__((__noreturn__))
  96:/opt/homebrew/Cellar/avr-gcc@8/8.5.0_3/avr/include/stdlib.h **** #endif
  97:/opt/homebrew/Cellar/avr-gcc@8/8.5.0_3/avr/include/stdlib.h **** 
  98:/opt/homebrew/Cellar/avr-gcc@8/8.5.0_3/avr/include/stdlib.h **** #ifndef __ATTR_PURE__
  99:/opt/homebrew/Cellar/avr-gcc@8/8.5.0_3/avr/include/stdlib.h **** # define __ATTR_PURE__ __attribute__((__pure__))
 100:/opt/homebrew/Cellar/avr-gcc@8/8.5.0_3/avr/include/stdlib.h **** #endif
 101:/opt/homebrew/Cellar/avr-gcc@8/8.5.0_3/avr/include/stdlib.h **** 
 102:/opt/homebrew/Cellar/avr-gcc@8/8.5.0_3/avr/include/stdlib.h **** #ifndef	__ATTR_GNU_INLINE__
 103:/opt/homebrew/Cellar/avr-gcc@8/8.5.0_3/avr/include/stdlib.h **** # ifdef  __GNUC_STDC_INLINE__
 104:/opt/homebrew/Cellar/avr-gcc@8/8.5.0_3/avr/include/stdlib.h **** #  define __ATTR_GNU_INLINE__   __attribute__((__gnu_inline__))
 105:/opt/homebrew/Cellar/avr-gcc@8/8.5.0_3/avr/include/stdlib.h **** # else
 106:/opt/homebrew/Cellar/avr-gcc@8/8.5.0_3/avr/include/stdlib.h **** #  define __ATTR_GNU_INLINE__
 107:/opt/homebrew/Cellar/avr-gcc@8/8.5.0_3/avr/include/stdlib.h **** # endif
 108:/opt/homebrew/Cellar/avr-gcc@8/8.5.0_3/avr/include/stdlib.h **** #endif
 109:/opt/homebrew/Cellar/avr-gcc@8/8.5.0_3/avr/include/stdlib.h **** 
 110:/opt/homebrew/Cellar/avr-gcc@8/8.5.0_3/avr/include/stdlib.h **** #endif
 111:/opt/homebrew/Cellar/avr-gcc@8/8.5.0_3/avr/include/stdlib.h **** 
 112:/opt/homebrew/Cellar/avr-gcc@8/8.5.0_3/avr/include/stdlib.h **** /** The abort() function causes abnormal program termination to occur.
 113:/opt/homebrew/Cellar/avr-gcc@8/8.5.0_3/avr/include/stdlib.h ****     This realization disables interrupts and jumps to _exit() function
 114:/opt/homebrew/Cellar/avr-gcc@8/8.5.0_3/avr/include/stdlib.h ****     with argument equal to 1. In the limited AVR environment, execution is
 115:/opt/homebrew/Cellar/avr-gcc@8/8.5.0_3/avr/include/stdlib.h ****     effectively halted by entering an infinite loop. */
 116:/opt/homebrew/Cellar/avr-gcc@8/8.5.0_3/avr/include/stdlib.h **** extern void abort(void) __ATTR_NORETURN__;
 117:/opt/homebrew/Cellar/avr-gcc@8/8.5.0_3/avr/include/stdlib.h **** 
 118:/opt/homebrew/Cellar/avr-gcc@8/8.5.0_3/avr/include/stdlib.h **** /** The abs() function computes the absolute value of the integer \c i.
 119:/opt/homebrew/Cellar/avr-gcc@8/8.5.0_3/avr/include/stdlib.h ****    \note The abs() and labs() functions are builtins of gcc.
 120:/opt/homebrew/Cellar/avr-gcc@8/8.5.0_3/avr/include/stdlib.h **** */
 121:/opt/homebrew/Cellar/avr-gcc@8/8.5.0_3/avr/include/stdlib.h **** extern int abs(int __i) __ATTR_CONST__;
 122:/opt/homebrew/Cellar/avr-gcc@8/8.5.0_3/avr/include/stdlib.h **** #ifndef __DOXYGEN__
 123:/opt/homebrew/Cellar/avr-gcc@8/8.5.0_3/avr/include/stdlib.h **** #define	abs(__i) __builtin_abs(__i)
 124:/opt/homebrew/Cellar/avr-gcc@8/8.5.0_3/avr/include/stdlib.h **** #endif
 125:/opt/homebrew/Cellar/avr-gcc@8/8.5.0_3/avr/include/stdlib.h **** 
 126:/opt/homebrew/Cellar/avr-gcc@8/8.5.0_3/avr/include/stdlib.h **** /** The labs() function computes the absolute value of the long integer
 127:/opt/homebrew/Cellar/avr-gcc@8/8.5.0_3/avr/include/stdlib.h ****     \c i.
 128:/opt/homebrew/Cellar/avr-gcc@8/8.5.0_3/avr/include/stdlib.h ****    \note The abs() and labs() functions are builtins of gcc.
 129:/opt/homebrew/Cellar/avr-gcc@8/8.5.0_3/avr/include/stdlib.h **** */
 130:/opt/homebrew/Cellar/avr-gcc@8/8.5.0_3/avr/include/stdlib.h **** extern long labs(long __i) __ATTR_CONST__;
 131:/opt/homebrew/Cellar/avr-gcc@8/8.5.0_3/avr/include/stdlib.h **** #ifndef __DOXYGEN__
 132:/opt/homebrew/Cellar/avr-gcc@8/8.5.0_3/avr/include/stdlib.h **** #define labs(__i) __builtin_labs(__i)
 133:/opt/homebrew/Cellar/avr-gcc@8/8.5.0_3/avr/include/stdlib.h **** #endif
 134:/opt/homebrew/Cellar/avr-gcc@8/8.5.0_3/avr/include/stdlib.h **** 
 135:/opt/homebrew/Cellar/avr-gcc@8/8.5.0_3/avr/include/stdlib.h **** /**
 136:/opt/homebrew/Cellar/avr-gcc@8/8.5.0_3/avr/include/stdlib.h ****      The bsearch() function searches an array of \c nmemb objects, the
 137:/opt/homebrew/Cellar/avr-gcc@8/8.5.0_3/avr/include/stdlib.h ****      initial member of which is pointed to by \c base, for a member
 138:/opt/homebrew/Cellar/avr-gcc@8/8.5.0_3/avr/include/stdlib.h ****      that matches the object pointed to by \c key.  The size of each
 139:/opt/homebrew/Cellar/avr-gcc@8/8.5.0_3/avr/include/stdlib.h ****      member of the array is specified by \c size.
 140:/opt/homebrew/Cellar/avr-gcc@8/8.5.0_3/avr/include/stdlib.h **** 
 141:/opt/homebrew/Cellar/avr-gcc@8/8.5.0_3/avr/include/stdlib.h ****      The contents of the array should be in ascending sorted order
 142:/opt/homebrew/Cellar/avr-gcc@8/8.5.0_3/avr/include/stdlib.h ****      according to the comparison function referenced by \c compar.
 143:/opt/homebrew/Cellar/avr-gcc@8/8.5.0_3/avr/include/stdlib.h ****      The \c compar routine is expected to have two arguments which
 144:/opt/homebrew/Cellar/avr-gcc@8/8.5.0_3/avr/include/stdlib.h ****      point to the key object and to an array member, in that order,
 145:/opt/homebrew/Cellar/avr-gcc@8/8.5.0_3/avr/include/stdlib.h ****      and should return an integer less than, equal to, or greater than
 146:/opt/homebrew/Cellar/avr-gcc@8/8.5.0_3/avr/include/stdlib.h ****      zero if the key object is found, respectively, to be less than,
 147:/opt/homebrew/Cellar/avr-gcc@8/8.5.0_3/avr/include/stdlib.h ****      to match, or be greater than the array member.
 148:/opt/homebrew/Cellar/avr-gcc@8/8.5.0_3/avr/include/stdlib.h **** 
 149:/opt/homebrew/Cellar/avr-gcc@8/8.5.0_3/avr/include/stdlib.h ****      The bsearch() function returns a pointer to a matching member of
 150:/opt/homebrew/Cellar/avr-gcc@8/8.5.0_3/avr/include/stdlib.h ****      the array, or a null pointer if no match is found.  If two
 151:/opt/homebrew/Cellar/avr-gcc@8/8.5.0_3/avr/include/stdlib.h ****      members compare as equal, which member is matched is unspecified.
 152:/opt/homebrew/Cellar/avr-gcc@8/8.5.0_3/avr/include/stdlib.h **** */
 153:/opt/homebrew/Cellar/avr-gcc@8/8.5.0_3/avr/include/stdlib.h **** extern void *bsearch(const void *__key, const void *__base, size_t __nmemb,
 154:/opt/homebrew/Cellar/avr-gcc@8/8.5.0_3/avr/include/stdlib.h **** 		     size_t __size, int (*__compar)(const void *, const void *));
 155:/opt/homebrew/Cellar/avr-gcc@8/8.5.0_3/avr/include/stdlib.h **** 
 156:/opt/homebrew/Cellar/avr-gcc@8/8.5.0_3/avr/include/stdlib.h **** /* __divmodhi4 and __divmodsi4 from libgcc.a */
 157:/opt/homebrew/Cellar/avr-gcc@8/8.5.0_3/avr/include/stdlib.h **** /**
 158:/opt/homebrew/Cellar/avr-gcc@8/8.5.0_3/avr/include/stdlib.h ****      The div() function computes the value \c num/denom and returns
 159:/opt/homebrew/Cellar/avr-gcc@8/8.5.0_3/avr/include/stdlib.h ****      the quotient and remainder in a structure named \c div_t that
 160:/opt/homebrew/Cellar/avr-gcc@8/8.5.0_3/avr/include/stdlib.h ****      contains two int members named \c quot and \c rem.
 161:/opt/homebrew/Cellar/avr-gcc@8/8.5.0_3/avr/include/stdlib.h **** */
 162:/opt/homebrew/Cellar/avr-gcc@8/8.5.0_3/avr/include/stdlib.h **** extern div_t div(int __num, int __denom) __asm__("__divmodhi4") __ATTR_CONST__;
 163:/opt/homebrew/Cellar/avr-gcc@8/8.5.0_3/avr/include/stdlib.h **** /**
 164:/opt/homebrew/Cellar/avr-gcc@8/8.5.0_3/avr/include/stdlib.h ****      The ldiv() function computes the value \c num/denom and returns
 165:/opt/homebrew/Cellar/avr-gcc@8/8.5.0_3/avr/include/stdlib.h ****      the quotient and remainder in a structure named \c ldiv_t that
 166:/opt/homebrew/Cellar/avr-gcc@8/8.5.0_3/avr/include/stdlib.h ****      contains two long integer members named \c quot and \c rem.
 167:/opt/homebrew/Cellar/avr-gcc@8/8.5.0_3/avr/include/stdlib.h **** */
 168:/opt/homebrew/Cellar/avr-gcc@8/8.5.0_3/avr/include/stdlib.h **** extern ldiv_t ldiv(long __num, long __denom) __asm__("__divmodsi4") __ATTR_CONST__;
 169:/opt/homebrew/Cellar/avr-gcc@8/8.5.0_3/avr/include/stdlib.h **** 
 170:/opt/homebrew/Cellar/avr-gcc@8/8.5.0_3/avr/include/stdlib.h **** /**
 171:/opt/homebrew/Cellar/avr-gcc@8/8.5.0_3/avr/include/stdlib.h ****      The qsort() function is a modified partition-exchange sort, or
 172:/opt/homebrew/Cellar/avr-gcc@8/8.5.0_3/avr/include/stdlib.h ****      quicksort.
 173:/opt/homebrew/Cellar/avr-gcc@8/8.5.0_3/avr/include/stdlib.h **** 
 174:/opt/homebrew/Cellar/avr-gcc@8/8.5.0_3/avr/include/stdlib.h ****      The qsort() function sorts an array of \c nmemb objects, the
 175:/opt/homebrew/Cellar/avr-gcc@8/8.5.0_3/avr/include/stdlib.h ****      initial member of which is pointed to by \c base.  The size of
 176:/opt/homebrew/Cellar/avr-gcc@8/8.5.0_3/avr/include/stdlib.h ****      each object is specified by \c size.  The contents of the array
 177:/opt/homebrew/Cellar/avr-gcc@8/8.5.0_3/avr/include/stdlib.h ****      base are sorted in ascending order according to a comparison
 178:/opt/homebrew/Cellar/avr-gcc@8/8.5.0_3/avr/include/stdlib.h ****      function pointed to by \c compar, which requires two arguments
 179:/opt/homebrew/Cellar/avr-gcc@8/8.5.0_3/avr/include/stdlib.h ****      pointing to the objects being compared.
 180:/opt/homebrew/Cellar/avr-gcc@8/8.5.0_3/avr/include/stdlib.h **** 
 181:/opt/homebrew/Cellar/avr-gcc@8/8.5.0_3/avr/include/stdlib.h ****      The comparison function must return an integer less than, equal
 182:/opt/homebrew/Cellar/avr-gcc@8/8.5.0_3/avr/include/stdlib.h ****      to, or greater than zero if the first argument is considered to
 183:/opt/homebrew/Cellar/avr-gcc@8/8.5.0_3/avr/include/stdlib.h ****      be respectively less than, equal to, or greater than the second.
 184:/opt/homebrew/Cellar/avr-gcc@8/8.5.0_3/avr/include/stdlib.h **** */
 185:/opt/homebrew/Cellar/avr-gcc@8/8.5.0_3/avr/include/stdlib.h **** extern void qsort(void *__base, size_t __nmemb, size_t __size,
 186:/opt/homebrew/Cellar/avr-gcc@8/8.5.0_3/avr/include/stdlib.h **** 		  __compar_fn_t __compar);
 187:/opt/homebrew/Cellar/avr-gcc@8/8.5.0_3/avr/include/stdlib.h **** 
 188:/opt/homebrew/Cellar/avr-gcc@8/8.5.0_3/avr/include/stdlib.h **** /**
 189:/opt/homebrew/Cellar/avr-gcc@8/8.5.0_3/avr/include/stdlib.h ****     The strtol() function converts the string in \c nptr to a long
 190:/opt/homebrew/Cellar/avr-gcc@8/8.5.0_3/avr/include/stdlib.h ****     value.  The conversion is done according to the given base, which
 191:/opt/homebrew/Cellar/avr-gcc@8/8.5.0_3/avr/include/stdlib.h ****     must be between 2 and 36 inclusive, or be the special value 0.
 192:/opt/homebrew/Cellar/avr-gcc@8/8.5.0_3/avr/include/stdlib.h **** 
 193:/opt/homebrew/Cellar/avr-gcc@8/8.5.0_3/avr/include/stdlib.h ****     The string may begin with an arbitrary amount of white space (as
 194:/opt/homebrew/Cellar/avr-gcc@8/8.5.0_3/avr/include/stdlib.h ****     determined by isspace()) followed by a single optional \c '+' or \c '-'
 195:/opt/homebrew/Cellar/avr-gcc@8/8.5.0_3/avr/include/stdlib.h ****     sign.  If \c base is zero or 16, the string may then include a
 196:/opt/homebrew/Cellar/avr-gcc@8/8.5.0_3/avr/include/stdlib.h ****     \c "0x" prefix, and the number will be read in base 16; otherwise,
 197:/opt/homebrew/Cellar/avr-gcc@8/8.5.0_3/avr/include/stdlib.h ****     a zero base is taken as 10 (decimal) unless the next character is
 198:/opt/homebrew/Cellar/avr-gcc@8/8.5.0_3/avr/include/stdlib.h ****     \c '0', in which case it is taken as 8 (octal).
 199:/opt/homebrew/Cellar/avr-gcc@8/8.5.0_3/avr/include/stdlib.h **** 
 200:/opt/homebrew/Cellar/avr-gcc@8/8.5.0_3/avr/include/stdlib.h ****     The remainder of the string is converted to a long value in the
 201:/opt/homebrew/Cellar/avr-gcc@8/8.5.0_3/avr/include/stdlib.h ****     obvious manner, stopping at the first character which is not a
 202:/opt/homebrew/Cellar/avr-gcc@8/8.5.0_3/avr/include/stdlib.h ****     valid digit in the given base.  (In bases above 10, the letter \c 'A'
 203:/opt/homebrew/Cellar/avr-gcc@8/8.5.0_3/avr/include/stdlib.h ****     in either upper or lower case represents 10, \c 'B' represents 11,
 204:/opt/homebrew/Cellar/avr-gcc@8/8.5.0_3/avr/include/stdlib.h ****     and so forth, with \c 'Z' representing 35.)
 205:/opt/homebrew/Cellar/avr-gcc@8/8.5.0_3/avr/include/stdlib.h **** 
 206:/opt/homebrew/Cellar/avr-gcc@8/8.5.0_3/avr/include/stdlib.h ****     If \c endptr is not NULL, strtol() stores the address of the first
 207:/opt/homebrew/Cellar/avr-gcc@8/8.5.0_3/avr/include/stdlib.h ****     invalid character in \c *endptr.  If there were no digits at all,
 208:/opt/homebrew/Cellar/avr-gcc@8/8.5.0_3/avr/include/stdlib.h ****     however, strtol() stores the original value of \c nptr in \c
 209:/opt/homebrew/Cellar/avr-gcc@8/8.5.0_3/avr/include/stdlib.h ****     *endptr.  (Thus, if \c *nptr is not \c '\\0' but \c **endptr is \c '\\0'
 210:/opt/homebrew/Cellar/avr-gcc@8/8.5.0_3/avr/include/stdlib.h ****     on return, the entire string was valid.)
 211:/opt/homebrew/Cellar/avr-gcc@8/8.5.0_3/avr/include/stdlib.h **** 
 212:/opt/homebrew/Cellar/avr-gcc@8/8.5.0_3/avr/include/stdlib.h ****     The strtol() function returns the result of the conversion, unless
 213:/opt/homebrew/Cellar/avr-gcc@8/8.5.0_3/avr/include/stdlib.h ****     the value would underflow or overflow.  If no conversion could be
 214:/opt/homebrew/Cellar/avr-gcc@8/8.5.0_3/avr/include/stdlib.h ****     performed, 0 is returned.  If an overflow or underflow occurs, \c
 215:/opt/homebrew/Cellar/avr-gcc@8/8.5.0_3/avr/include/stdlib.h ****     errno is set to \ref avr_errno "ERANGE" and the function return value
 216:/opt/homebrew/Cellar/avr-gcc@8/8.5.0_3/avr/include/stdlib.h ****     is clamped to \c LONG_MIN or \c LONG_MAX, respectively.
 217:/opt/homebrew/Cellar/avr-gcc@8/8.5.0_3/avr/include/stdlib.h **** */
 218:/opt/homebrew/Cellar/avr-gcc@8/8.5.0_3/avr/include/stdlib.h **** extern long strtol(const char *__nptr, char **__endptr, int __base);
 219:/opt/homebrew/Cellar/avr-gcc@8/8.5.0_3/avr/include/stdlib.h **** 
 220:/opt/homebrew/Cellar/avr-gcc@8/8.5.0_3/avr/include/stdlib.h **** /**
 221:/opt/homebrew/Cellar/avr-gcc@8/8.5.0_3/avr/include/stdlib.h ****     The strtoul() function converts the string in \c nptr to an
 222:/opt/homebrew/Cellar/avr-gcc@8/8.5.0_3/avr/include/stdlib.h ****     unsigned long value.  The conversion is done according to the
 223:/opt/homebrew/Cellar/avr-gcc@8/8.5.0_3/avr/include/stdlib.h ****     given base, which must be between 2 and 36 inclusive, or be the
 224:/opt/homebrew/Cellar/avr-gcc@8/8.5.0_3/avr/include/stdlib.h ****     special value 0.
 225:/opt/homebrew/Cellar/avr-gcc@8/8.5.0_3/avr/include/stdlib.h **** 
 226:/opt/homebrew/Cellar/avr-gcc@8/8.5.0_3/avr/include/stdlib.h ****     The string may begin with an arbitrary amount of white space (as
 227:/opt/homebrew/Cellar/avr-gcc@8/8.5.0_3/avr/include/stdlib.h ****     determined by isspace()) followed by a single optional \c '+' or \c '-'
 228:/opt/homebrew/Cellar/avr-gcc@8/8.5.0_3/avr/include/stdlib.h ****     sign.  If \c base is zero or 16, the string may then include a
 229:/opt/homebrew/Cellar/avr-gcc@8/8.5.0_3/avr/include/stdlib.h ****     \c "0x" prefix, and the number will be read in base 16; otherwise,
 230:/opt/homebrew/Cellar/avr-gcc@8/8.5.0_3/avr/include/stdlib.h ****     a zero base is taken as 10 (decimal) unless the next character is
 231:/opt/homebrew/Cellar/avr-gcc@8/8.5.0_3/avr/include/stdlib.h ****     \c '0', in which case it is taken as 8 (octal).
 232:/opt/homebrew/Cellar/avr-gcc@8/8.5.0_3/avr/include/stdlib.h **** 
 233:/opt/homebrew/Cellar/avr-gcc@8/8.5.0_3/avr/include/stdlib.h ****     The remainder of the string is converted to an unsigned long value
 234:/opt/homebrew/Cellar/avr-gcc@8/8.5.0_3/avr/include/stdlib.h ****     in the obvious manner, stopping at the first character which is
 235:/opt/homebrew/Cellar/avr-gcc@8/8.5.0_3/avr/include/stdlib.h ****     not a valid digit in the given base.  (In bases above 10, the
 236:/opt/homebrew/Cellar/avr-gcc@8/8.5.0_3/avr/include/stdlib.h ****     letter \c 'A' in either upper or lower case represents 10, \c 'B'
 237:/opt/homebrew/Cellar/avr-gcc@8/8.5.0_3/avr/include/stdlib.h ****     represents 11, and so forth, with \c 'Z' representing 35.)
 238:/opt/homebrew/Cellar/avr-gcc@8/8.5.0_3/avr/include/stdlib.h **** 
 239:/opt/homebrew/Cellar/avr-gcc@8/8.5.0_3/avr/include/stdlib.h ****     If \c endptr is not NULL, strtoul() stores the address of the first
 240:/opt/homebrew/Cellar/avr-gcc@8/8.5.0_3/avr/include/stdlib.h ****     invalid character in \c *endptr.  If there were no digits at all,
 241:/opt/homebrew/Cellar/avr-gcc@8/8.5.0_3/avr/include/stdlib.h ****     however, strtoul() stores the original value of \c nptr in \c
 242:/opt/homebrew/Cellar/avr-gcc@8/8.5.0_3/avr/include/stdlib.h ****     *endptr.  (Thus, if \c *nptr is not \c '\\0' but \c **endptr is \c '\\0'
 243:/opt/homebrew/Cellar/avr-gcc@8/8.5.0_3/avr/include/stdlib.h ****     on return, the entire string was valid.)
 244:/opt/homebrew/Cellar/avr-gcc@8/8.5.0_3/avr/include/stdlib.h **** 
 245:/opt/homebrew/Cellar/avr-gcc@8/8.5.0_3/avr/include/stdlib.h ****     The strtoul() function return either the result of the conversion
 246:/opt/homebrew/Cellar/avr-gcc@8/8.5.0_3/avr/include/stdlib.h ****     or, if there was a leading minus sign, the negation of the result
 247:/opt/homebrew/Cellar/avr-gcc@8/8.5.0_3/avr/include/stdlib.h ****     of the conversion, unless the original (non-negated) value would
 248:/opt/homebrew/Cellar/avr-gcc@8/8.5.0_3/avr/include/stdlib.h ****     overflow; in the latter case, strtoul() returns ULONG_MAX, and \c
 249:/opt/homebrew/Cellar/avr-gcc@8/8.5.0_3/avr/include/stdlib.h ****     errno is set to \ref avr_errno "ERANGE".  If no conversion could 
 250:/opt/homebrew/Cellar/avr-gcc@8/8.5.0_3/avr/include/stdlib.h ****     be performed, 0 is returned.
 251:/opt/homebrew/Cellar/avr-gcc@8/8.5.0_3/avr/include/stdlib.h **** */
 252:/opt/homebrew/Cellar/avr-gcc@8/8.5.0_3/avr/include/stdlib.h **** extern unsigned long strtoul(const char *__nptr, char **__endptr, int __base);
 253:/opt/homebrew/Cellar/avr-gcc@8/8.5.0_3/avr/include/stdlib.h **** 
 254:/opt/homebrew/Cellar/avr-gcc@8/8.5.0_3/avr/include/stdlib.h **** /**
 255:/opt/homebrew/Cellar/avr-gcc@8/8.5.0_3/avr/include/stdlib.h ****     The atol() function converts the initial portion of the string
 256:/opt/homebrew/Cellar/avr-gcc@8/8.5.0_3/avr/include/stdlib.h ****     pointed to by \p s to long integer representation. In contrast to
 257:/opt/homebrew/Cellar/avr-gcc@8/8.5.0_3/avr/include/stdlib.h **** 
 258:/opt/homebrew/Cellar/avr-gcc@8/8.5.0_3/avr/include/stdlib.h ****         \code strtol(s, (char **)NULL, 10); \endcode
 259:/opt/homebrew/Cellar/avr-gcc@8/8.5.0_3/avr/include/stdlib.h **** 
 260:/opt/homebrew/Cellar/avr-gcc@8/8.5.0_3/avr/include/stdlib.h ****     this function does not detect overflow (\c errno is not changed and
 261:/opt/homebrew/Cellar/avr-gcc@8/8.5.0_3/avr/include/stdlib.h ****     the result value is not predictable), uses smaller memory (flash and
 262:/opt/homebrew/Cellar/avr-gcc@8/8.5.0_3/avr/include/stdlib.h ****     stack) and works more quickly.
 263:/opt/homebrew/Cellar/avr-gcc@8/8.5.0_3/avr/include/stdlib.h **** */
 264:/opt/homebrew/Cellar/avr-gcc@8/8.5.0_3/avr/include/stdlib.h **** extern long atol(const char *__s) __ATTR_PURE__;
 265:/opt/homebrew/Cellar/avr-gcc@8/8.5.0_3/avr/include/stdlib.h **** 
 266:/opt/homebrew/Cellar/avr-gcc@8/8.5.0_3/avr/include/stdlib.h **** /**
 267:/opt/homebrew/Cellar/avr-gcc@8/8.5.0_3/avr/include/stdlib.h ****     The atoi() function converts the initial portion of the string
 268:/opt/homebrew/Cellar/avr-gcc@8/8.5.0_3/avr/include/stdlib.h ****     pointed to by \p s to integer representation. In contrast to
 269:/opt/homebrew/Cellar/avr-gcc@8/8.5.0_3/avr/include/stdlib.h **** 
 270:/opt/homebrew/Cellar/avr-gcc@8/8.5.0_3/avr/include/stdlib.h ****         \code (int)strtol(s, (char **)NULL, 10); \endcode
 271:/opt/homebrew/Cellar/avr-gcc@8/8.5.0_3/avr/include/stdlib.h **** 
 272:/opt/homebrew/Cellar/avr-gcc@8/8.5.0_3/avr/include/stdlib.h ****     this function does not detect overflow (\c errno is not changed and
 273:/opt/homebrew/Cellar/avr-gcc@8/8.5.0_3/avr/include/stdlib.h ****     the result value is not predictable), uses smaller memory (flash and
 274:/opt/homebrew/Cellar/avr-gcc@8/8.5.0_3/avr/include/stdlib.h ****     stack) and works more quickly.
 275:/opt/homebrew/Cellar/avr-gcc@8/8.5.0_3/avr/include/stdlib.h **** */
 276:/opt/homebrew/Cellar/avr-gcc@8/8.5.0_3/avr/include/stdlib.h **** extern int atoi(const char *__s) __ATTR_PURE__;
 277:/opt/homebrew/Cellar/avr-gcc@8/8.5.0_3/avr/include/stdlib.h **** 
 278:/opt/homebrew/Cellar/avr-gcc@8/8.5.0_3/avr/include/stdlib.h **** /**
 279:/opt/homebrew/Cellar/avr-gcc@8/8.5.0_3/avr/include/stdlib.h ****    The exit() function terminates the application.  Since there is no
 280:/opt/homebrew/Cellar/avr-gcc@8/8.5.0_3/avr/include/stdlib.h ****    environment to return to, \c status is ignored, and code execution
 281:/opt/homebrew/Cellar/avr-gcc@8/8.5.0_3/avr/include/stdlib.h ****    will eventually reach an infinite loop, thereby effectively halting
 282:/opt/homebrew/Cellar/avr-gcc@8/8.5.0_3/avr/include/stdlib.h ****    all code processing.  Before entering the infinite loop, interrupts
 283:/opt/homebrew/Cellar/avr-gcc@8/8.5.0_3/avr/include/stdlib.h ****    are globally disabled.
 284:/opt/homebrew/Cellar/avr-gcc@8/8.5.0_3/avr/include/stdlib.h **** 
 285:/opt/homebrew/Cellar/avr-gcc@8/8.5.0_3/avr/include/stdlib.h ****    In a C++ context, global destructors will be called before halting
 286:/opt/homebrew/Cellar/avr-gcc@8/8.5.0_3/avr/include/stdlib.h ****    execution.
 287:/opt/homebrew/Cellar/avr-gcc@8/8.5.0_3/avr/include/stdlib.h **** */
 288:/opt/homebrew/Cellar/avr-gcc@8/8.5.0_3/avr/include/stdlib.h **** extern void exit(int __status) __ATTR_NORETURN__;
 289:/opt/homebrew/Cellar/avr-gcc@8/8.5.0_3/avr/include/stdlib.h **** 
 290:/opt/homebrew/Cellar/avr-gcc@8/8.5.0_3/avr/include/stdlib.h **** /**
 291:/opt/homebrew/Cellar/avr-gcc@8/8.5.0_3/avr/include/stdlib.h ****    The malloc() function allocates \c size bytes of memory.
 292:/opt/homebrew/Cellar/avr-gcc@8/8.5.0_3/avr/include/stdlib.h ****    If malloc() fails, a NULL pointer is returned.
 293:/opt/homebrew/Cellar/avr-gcc@8/8.5.0_3/avr/include/stdlib.h **** 
 294:/opt/homebrew/Cellar/avr-gcc@8/8.5.0_3/avr/include/stdlib.h ****    Note that malloc() does \e not initialize the returned memory to
 295:/opt/homebrew/Cellar/avr-gcc@8/8.5.0_3/avr/include/stdlib.h ****    zero bytes.
 296:/opt/homebrew/Cellar/avr-gcc@8/8.5.0_3/avr/include/stdlib.h **** 
 297:/opt/homebrew/Cellar/avr-gcc@8/8.5.0_3/avr/include/stdlib.h ****    See the chapter about \ref malloc "malloc() usage" for implementation
 298:/opt/homebrew/Cellar/avr-gcc@8/8.5.0_3/avr/include/stdlib.h ****    details.
 299:/opt/homebrew/Cellar/avr-gcc@8/8.5.0_3/avr/include/stdlib.h **** */
 300:/opt/homebrew/Cellar/avr-gcc@8/8.5.0_3/avr/include/stdlib.h **** extern void *malloc(size_t __size) __ATTR_MALLOC__;
 301:/opt/homebrew/Cellar/avr-gcc@8/8.5.0_3/avr/include/stdlib.h **** 
 302:/opt/homebrew/Cellar/avr-gcc@8/8.5.0_3/avr/include/stdlib.h **** /**
 303:/opt/homebrew/Cellar/avr-gcc@8/8.5.0_3/avr/include/stdlib.h ****    The free() function causes the allocated memory referenced by \c
 304:/opt/homebrew/Cellar/avr-gcc@8/8.5.0_3/avr/include/stdlib.h ****    ptr to be made available for future allocations.  If \c ptr is
 305:/opt/homebrew/Cellar/avr-gcc@8/8.5.0_3/avr/include/stdlib.h ****    NULL, no action occurs.
 306:/opt/homebrew/Cellar/avr-gcc@8/8.5.0_3/avr/include/stdlib.h **** */
 307:/opt/homebrew/Cellar/avr-gcc@8/8.5.0_3/avr/include/stdlib.h **** extern void free(void *__ptr);
 308:/opt/homebrew/Cellar/avr-gcc@8/8.5.0_3/avr/include/stdlib.h **** 
 309:/opt/homebrew/Cellar/avr-gcc@8/8.5.0_3/avr/include/stdlib.h **** /**
 310:/opt/homebrew/Cellar/avr-gcc@8/8.5.0_3/avr/include/stdlib.h ****    \c malloc() \ref malloc_tunables "tunable".
 311:/opt/homebrew/Cellar/avr-gcc@8/8.5.0_3/avr/include/stdlib.h **** */
 312:/opt/homebrew/Cellar/avr-gcc@8/8.5.0_3/avr/include/stdlib.h **** extern size_t __malloc_margin;
 313:/opt/homebrew/Cellar/avr-gcc@8/8.5.0_3/avr/include/stdlib.h **** 
 314:/opt/homebrew/Cellar/avr-gcc@8/8.5.0_3/avr/include/stdlib.h **** /**
 315:/opt/homebrew/Cellar/avr-gcc@8/8.5.0_3/avr/include/stdlib.h ****    \c malloc() \ref malloc_tunables "tunable".
 316:/opt/homebrew/Cellar/avr-gcc@8/8.5.0_3/avr/include/stdlib.h **** */
 317:/opt/homebrew/Cellar/avr-gcc@8/8.5.0_3/avr/include/stdlib.h **** extern char *__malloc_heap_start;
 318:/opt/homebrew/Cellar/avr-gcc@8/8.5.0_3/avr/include/stdlib.h **** 
 319:/opt/homebrew/Cellar/avr-gcc@8/8.5.0_3/avr/include/stdlib.h **** /**
 320:/opt/homebrew/Cellar/avr-gcc@8/8.5.0_3/avr/include/stdlib.h ****    \c malloc() \ref malloc_tunables "tunable".
 321:/opt/homebrew/Cellar/avr-gcc@8/8.5.0_3/avr/include/stdlib.h **** */
 322:/opt/homebrew/Cellar/avr-gcc@8/8.5.0_3/avr/include/stdlib.h **** extern char *__malloc_heap_end;
 323:/opt/homebrew/Cellar/avr-gcc@8/8.5.0_3/avr/include/stdlib.h **** 
 324:/opt/homebrew/Cellar/avr-gcc@8/8.5.0_3/avr/include/stdlib.h **** /**
 325:/opt/homebrew/Cellar/avr-gcc@8/8.5.0_3/avr/include/stdlib.h ****    Allocate \c nele elements of \c size each.  Identical to calling
 326:/opt/homebrew/Cellar/avr-gcc@8/8.5.0_3/avr/include/stdlib.h ****    \c malloc() using <tt>nele * size</tt> as argument, except the
 327:/opt/homebrew/Cellar/avr-gcc@8/8.5.0_3/avr/include/stdlib.h ****    allocated memory will be cleared to zero.
 328:/opt/homebrew/Cellar/avr-gcc@8/8.5.0_3/avr/include/stdlib.h **** */
 329:/opt/homebrew/Cellar/avr-gcc@8/8.5.0_3/avr/include/stdlib.h **** extern void *calloc(size_t __nele, size_t __size) __ATTR_MALLOC__;
 330:/opt/homebrew/Cellar/avr-gcc@8/8.5.0_3/avr/include/stdlib.h **** 
 331:/opt/homebrew/Cellar/avr-gcc@8/8.5.0_3/avr/include/stdlib.h **** /**
 332:/opt/homebrew/Cellar/avr-gcc@8/8.5.0_3/avr/include/stdlib.h ****    The realloc() function tries to change the size of the region
 333:/opt/homebrew/Cellar/avr-gcc@8/8.5.0_3/avr/include/stdlib.h ****    allocated at \c ptr to the new \c size value.  It returns a
 334:/opt/homebrew/Cellar/avr-gcc@8/8.5.0_3/avr/include/stdlib.h ****    pointer to the new region.  The returned pointer might be the
 335:/opt/homebrew/Cellar/avr-gcc@8/8.5.0_3/avr/include/stdlib.h ****    same as the old pointer, or a pointer to a completely different
 336:/opt/homebrew/Cellar/avr-gcc@8/8.5.0_3/avr/include/stdlib.h ****    region.
 337:/opt/homebrew/Cellar/avr-gcc@8/8.5.0_3/avr/include/stdlib.h **** 
 338:/opt/homebrew/Cellar/avr-gcc@8/8.5.0_3/avr/include/stdlib.h ****    The contents of the returned region up to either the old or the new
 339:/opt/homebrew/Cellar/avr-gcc@8/8.5.0_3/avr/include/stdlib.h ****    size value (whatever is less) will be identical to the contents of
 340:/opt/homebrew/Cellar/avr-gcc@8/8.5.0_3/avr/include/stdlib.h ****    the old region, even in case a new region had to be allocated.
 341:/opt/homebrew/Cellar/avr-gcc@8/8.5.0_3/avr/include/stdlib.h **** 
 342:/opt/homebrew/Cellar/avr-gcc@8/8.5.0_3/avr/include/stdlib.h ****    It is acceptable to pass \c ptr as NULL, in which case realloc()
 343:/opt/homebrew/Cellar/avr-gcc@8/8.5.0_3/avr/include/stdlib.h ****    will behave identical to malloc().
 344:/opt/homebrew/Cellar/avr-gcc@8/8.5.0_3/avr/include/stdlib.h **** 
 345:/opt/homebrew/Cellar/avr-gcc@8/8.5.0_3/avr/include/stdlib.h ****    If the new memory cannot be allocated, realloc() returns NULL, and
 346:/opt/homebrew/Cellar/avr-gcc@8/8.5.0_3/avr/include/stdlib.h ****    the region at \c ptr will not be changed.
 347:/opt/homebrew/Cellar/avr-gcc@8/8.5.0_3/avr/include/stdlib.h **** */
 348:/opt/homebrew/Cellar/avr-gcc@8/8.5.0_3/avr/include/stdlib.h **** extern void *realloc(void *__ptr, size_t __size) __ATTR_MALLOC__;
 349:/opt/homebrew/Cellar/avr-gcc@8/8.5.0_3/avr/include/stdlib.h **** 
 350:/opt/homebrew/Cellar/avr-gcc@8/8.5.0_3/avr/include/stdlib.h **** extern double strtod(const char *__nptr, char **__endptr);
 351:/opt/homebrew/Cellar/avr-gcc@8/8.5.0_3/avr/include/stdlib.h **** 
 352:/opt/homebrew/Cellar/avr-gcc@8/8.5.0_3/avr/include/stdlib.h **** /** \ingroup avr_stdlib
 353:/opt/homebrew/Cellar/avr-gcc@8/8.5.0_3/avr/include/stdlib.h ****     \fn  double atof (const char *nptr)
 354:/opt/homebrew/Cellar/avr-gcc@8/8.5.0_3/avr/include/stdlib.h **** 
 355:/opt/homebrew/Cellar/avr-gcc@8/8.5.0_3/avr/include/stdlib.h ****     The atof() function converts the initial portion of the string pointed
 356:/opt/homebrew/Cellar/avr-gcc@8/8.5.0_3/avr/include/stdlib.h ****     to by \a nptr to double representation.
 357:/opt/homebrew/Cellar/avr-gcc@8/8.5.0_3/avr/include/stdlib.h **** 
 358:/opt/homebrew/Cellar/avr-gcc@8/8.5.0_3/avr/include/stdlib.h ****     It is equivalent to calling
 359:/opt/homebrew/Cellar/avr-gcc@8/8.5.0_3/avr/include/stdlib.h **** 	\code strtod(nptr, (char **)0); \endcode
 360:/opt/homebrew/Cellar/avr-gcc@8/8.5.0_3/avr/include/stdlib.h ****  */
 361:/opt/homebrew/Cellar/avr-gcc@8/8.5.0_3/avr/include/stdlib.h **** extern double atof(const char *__nptr);
 362:/opt/homebrew/Cellar/avr-gcc@8/8.5.0_3/avr/include/stdlib.h **** 
 363:/opt/homebrew/Cellar/avr-gcc@8/8.5.0_3/avr/include/stdlib.h **** /** Highest number that can be generated by rand(). */
 364:/opt/homebrew/Cellar/avr-gcc@8/8.5.0_3/avr/include/stdlib.h **** #define	RAND_MAX 0x7FFF
 365:/opt/homebrew/Cellar/avr-gcc@8/8.5.0_3/avr/include/stdlib.h **** 
 366:/opt/homebrew/Cellar/avr-gcc@8/8.5.0_3/avr/include/stdlib.h **** /**
 367:/opt/homebrew/Cellar/avr-gcc@8/8.5.0_3/avr/include/stdlib.h ****      The rand() function computes a sequence of pseudo-random integers in the
 368:/opt/homebrew/Cellar/avr-gcc@8/8.5.0_3/avr/include/stdlib.h ****      range of 0 to \c RAND_MAX (as defined by the header file <stdlib.h>).
 369:/opt/homebrew/Cellar/avr-gcc@8/8.5.0_3/avr/include/stdlib.h **** 
 370:/opt/homebrew/Cellar/avr-gcc@8/8.5.0_3/avr/include/stdlib.h ****      The srand() function sets its argument \c seed as the seed for a new
 371:/opt/homebrew/Cellar/avr-gcc@8/8.5.0_3/avr/include/stdlib.h ****      sequence of pseudo-random numbers to be returned by rand().  These
 372:/opt/homebrew/Cellar/avr-gcc@8/8.5.0_3/avr/include/stdlib.h ****      sequences are repeatable by calling srand() with the same seed value.
 373:/opt/homebrew/Cellar/avr-gcc@8/8.5.0_3/avr/include/stdlib.h **** 
 374:/opt/homebrew/Cellar/avr-gcc@8/8.5.0_3/avr/include/stdlib.h ****      If no seed value is provided, the functions are automatically seeded with
 375:/opt/homebrew/Cellar/avr-gcc@8/8.5.0_3/avr/include/stdlib.h ****      a value of 1.
 376:/opt/homebrew/Cellar/avr-gcc@8/8.5.0_3/avr/include/stdlib.h **** 
 377:/opt/homebrew/Cellar/avr-gcc@8/8.5.0_3/avr/include/stdlib.h ****      In compliance with the C standard, these functions operate on
