   1               		.file	"uart1_eeprom.c"
   2               	__SP_H__ = 0x3e
   3               	__SP_L__ = 0x3d
   4               	__SREG__ = 0x3f
   5               	__tmp_reg__ = 0
   6               	__zero_reg__ = 1
   7               		.text
   8               	.Ltext0:
   9               		.cfi_sections	.debug_frame
  10               	.global	uart1_init
  12               	uart1_init:
  13               	.LFB10:
  14               		.file 1 "uart1_eeprom.c"
   1:uart1_eeprom.c **** #include "uart1_eeprom.h"
   2:uart1_eeprom.c **** #include <avr/io.h>
   3:uart1_eeprom.c **** #include <util/delay.h>
   4:uart1_eeprom.c **** 
   5:uart1_eeprom.c **** // Inicjalizacja UART1 na pinach PB3 (TXD1) i PB4 (RXD1)
   6:uart1_eeprom.c **** // Prędkość: 115200 baud
   7:uart1_eeprom.c **** void uart1_init(void) {
  15               		.loc 1 7 23 view -0
  16               		.cfi_startproc
  17               	/* prologue: function */
  18               	/* frame size = 0 */
  19               	/* stack size = 0 */
  20               	.L__stack_usage = 0
   8:uart1_eeprom.c **** #define UART_BAUD 115200
   9:uart1_eeprom.c **** #define UBRR_VAL ((F_CPU + 4UL * UART_BAUD) / (8UL * UART_BAUD) - 1)
  10:uart1_eeprom.c **** 
  11:uart1_eeprom.c ****   UBRR1H = (unsigned char)(UBRR_VAL >> 8);
  21               		.loc 1 11 3 view .LVU1
  22               		.loc 1 11 10 is_stmt 0 view .LVU2
  23 0000 1092 CD00 		sts 205,__zero_reg__
  12:uart1_eeprom.c ****   UBRR1L = (unsigned char)UBRR_VAL;
  24               		.loc 1 12 3 is_stmt 1 view .LVU3
  25               		.loc 1 12 10 is_stmt 0 view .LVU4
  26 0004 87E0      		ldi r24,lo8(7)
  27 0006 8093 CC00 		sts 204,r24
  13:uart1_eeprom.c **** 
  14:uart1_eeprom.c ****   UCSR1A = (1 << U2X1);
  28               		.loc 1 14 3 is_stmt 1 view .LVU5
  29               		.loc 1 14 10 is_stmt 0 view .LVU6
  30 000a 82E0      		ldi r24,lo8(2)
  31 000c 8093 C800 		sts 200,r24
  15:uart1_eeprom.c ****   UCSR1B = (1 << RXEN1) | (1 << TXEN1);
  32               		.loc 1 15 3 is_stmt 1 view .LVU7
  33               		.loc 1 15 10 is_stmt 0 view .LVU8
  34 0010 88E1      		ldi r24,lo8(24)
  35 0012 8093 C900 		sts 201,r24
  16:uart1_eeprom.c ****   UCSR1C = (1 << UCSZ11) | (1 << UCSZ10);
  36               		.loc 1 16 3 is_stmt 1 view .LVU9
  37               		.loc 1 16 10 is_stmt 0 view .LVU10
  38 0016 86E0      		ldi r24,lo8(6)
  39 0018 8093 CA00 		sts 202,r24
  17:uart1_eeprom.c **** 
  18:uart1_eeprom.c ****   DDRB |= (1 << PORTB3);   // TXD1 output
  40               		.loc 1 18 3 is_stmt 1 view .LVU11
  41               		.loc 1 18 8 is_stmt 0 view .LVU12
  42 001c 239A      		sbi 0x4,3
  19:uart1_eeprom.c ****   DDRB &= ~(1 << PORTB4);   // RXD1 input
  43               		.loc 1 19 3 is_stmt 1 view .LVU13
  44               		.loc 1 19 8 is_stmt 0 view .LVU14
  45 001e 2498      		cbi 0x4,4
  20:uart1_eeprom.c ****   PORTB |= (1 << PORTB4);   // Pull-up on RXD1
  46               		.loc 1 20 3 is_stmt 1 view .LVU15
  47               		.loc 1 20 9 is_stmt 0 view .LVU16
  48 0020 2C9A      		sbi 0x5,4
  49               	/* epilogue start */
  21:uart1_eeprom.c **** }
  50               		.loc 1 21 1 view .LVU17
  51 0022 0895      		ret
  52               		.cfi_endproc
  53               	.LFE10:
  55               	.global	uart1_putc
  57               	uart1_putc:
  58               	.LFB11:
  22:uart1_eeprom.c **** 
  23:uart1_eeprom.c **** void uart1_putc(unsigned char c) {
  59               		.loc 1 23 34 is_stmt 1 view -0
  60               		.cfi_startproc
  61               	/* prologue: function */
  62               	/* frame size = 0 */
  63               	/* stack size = 0 */
  64               	.L__stack_usage = 0
  65               	.LVL0:
  66               	.L3:
  24:uart1_eeprom.c ****   while (!(UCSR1A & (1 << UDRE1)))
  25:uart1_eeprom.c ****     ;
  67               		.loc 1 25 5 discriminator 1 view .LVU19
  24:uart1_eeprom.c ****   while (!(UCSR1A & (1 << UDRE1)))
  68               		.loc 1 24 9 discriminator 1 view .LVU20
  24:uart1_eeprom.c ****   while (!(UCSR1A & (1 << UDRE1)))
  69               		.loc 1 24 12 is_stmt 0 discriminator 1 view .LVU21
  70 0024 9091 C800 		lds r25,200
  24:uart1_eeprom.c ****   while (!(UCSR1A & (1 << UDRE1)))
  71               		.loc 1 24 9 discriminator 1 view .LVU22
  72 0028 95FF      		sbrs r25,5
  73 002a 00C0      		rjmp .L3
  26:uart1_eeprom.c ****   UDR1 = c;
  74               		.loc 1 26 3 is_stmt 1 view .LVU23
  75               		.loc 1 26 8 is_stmt 0 view .LVU24
  76 002c 8093 CE00 		sts 206,r24
  77               	/* epilogue start */
  27:uart1_eeprom.c **** }
  78               		.loc 1 27 1 view .LVU25
  79 0030 0895      		ret
  80               		.cfi_endproc
  81               	.LFE11:
  83               	.global	uart1_getc
  85               	uart1_getc:
  86               	.LFB12:
  28:uart1_eeprom.c **** 
  29:uart1_eeprom.c **** unsigned char uart1_getc(void) {
  87               		.loc 1 29 32 is_stmt 1 view -0
  88               		.cfi_startproc
  89               	/* prologue: function */
  90               	/* frame size = 0 */
  91               	/* stack size = 0 */
  92               	.L__stack_usage = 0
  93               	.L7:
  30:uart1_eeprom.c ****   while (!(UCSR1A & (1 << RXC1)))
  31:uart1_eeprom.c ****     ;
  94               		.loc 1 31 5 discriminator 1 view .LVU27
  30:uart1_eeprom.c ****   while (!(UCSR1A & (1 << RXC1)))
  95               		.loc 1 30 9 discriminator 1 view .LVU28
  30:uart1_eeprom.c ****   while (!(UCSR1A & (1 << RXC1)))
  96               		.loc 1 30 12 is_stmt 0 discriminator 1 view .LVU29
  97 0032 8091 C800 		lds r24,200
  30:uart1_eeprom.c ****   while (!(UCSR1A & (1 << RXC1)))
  98               		.loc 1 30 9 discriminator 1 view .LVU30
  99 0036 87FF      		sbrs r24,7
 100 0038 00C0      		rjmp .L7
  32:uart1_eeprom.c ****   return UDR1;
 101               		.loc 1 32 3 is_stmt 1 view .LVU31
 102               		.loc 1 32 10 is_stmt 0 view .LVU32
 103 003a 8091 CE00 		lds r24,206
 104               	/* epilogue start */
  33:uart1_eeprom.c **** }
 105               		.loc 1 33 1 view .LVU33
 106 003e 0895      		ret
 107               		.cfi_endproc
 108               	.LFE12:
 110               	.global	uart1_data_available
 112               	uart1_data_available:
 113               	.LFB13:
  34:uart1_eeprom.c **** 
  35:uart1_eeprom.c **** unsigned char uart1_data_available(void) {
 114               		.loc 1 35 42 is_stmt 1 view -0
 115               		.cfi_startproc
 116               	/* prologue: function */
 117               	/* frame size = 0 */
 118               	/* stack size = 0 */
 119               	.L__stack_usage = 0
  36:uart1_eeprom.c ****   return (UCSR1A & (1 << RXC1)) != 0;
 120               		.loc 1 36 3 view .LVU35
 121               		.loc 1 36 11 is_stmt 0 view .LVU36
 122 0040 8091 C800 		lds r24,200
  37:uart1_eeprom.c **** }
 123               		.loc 1 37 1 view .LVU37
 124 0044 881F      		rol r24
 125 0046 8827      		clr r24
 126 0048 881F      		rol r24
 127               	/* epilogue start */
 128 004a 0895      		ret
 129               		.cfi_endproc
 130               	.LFE13:
 132               	.global	uart1_puts
 134               	uart1_puts:
 135               	.LVL1:
 136               	.LFB14:
  38:uart1_eeprom.c **** 
  39:uart1_eeprom.c **** void uart1_puts(const char *str) {
 137               		.loc 1 39 34 is_stmt 1 view -0
 138               		.cfi_startproc
 139               		.loc 1 39 34 is_stmt 0 view .LVU39
 140 004c CF93      		push r28
 141               	.LCFI0:
 142               		.cfi_def_cfa_offset 3
 143               		.cfi_offset 28, -2
 144 004e DF93      		push r29
 145               	.LCFI1:
 146               		.cfi_def_cfa_offset 4
 147               		.cfi_offset 29, -3
 148               	/* prologue: function */
 149               	/* frame size = 0 */
 150               	/* stack size = 2 */
 151               	.L__stack_usage = 2
 152 0050 EC01      		movw r28,r24
  40:uart1_eeprom.c ****   while (*str)
 153               		.loc 1 40 3 is_stmt 1 view .LVU40
 154               	.LVL2:
 155               	.L11:
 156               		.loc 1 40 9 view .LVU41
 157               		.loc 1 40 10 is_stmt 0 view .LVU42
 158 0052 8991      		ld r24,Y+
 159               	.LVL3:
 160               		.loc 1 40 9 view .LVU43
 161 0054 8111      		cpse r24,__zero_reg__
 162 0056 00C0      		rjmp .L12
 163               	/* epilogue start */
  41:uart1_eeprom.c ****     uart1_putc(*str++);
  42:uart1_eeprom.c **** }
 164               		.loc 1 42 1 view .LVU44
 165 0058 DF91      		pop r29
 166 005a CF91      		pop r28
 167               	.LVL4:
 168               		.loc 1 42 1 view .LVU45
 169 005c 0895      		ret
 170               	.LVL5:
 171               	.L12:
  41:uart1_eeprom.c ****     uart1_putc(*str++);
 172               		.loc 1 41 5 is_stmt 1 view .LVU46
  41:uart1_eeprom.c ****     uart1_putc(*str++);
 173               		.loc 1 41 5 is_stmt 0 view .LVU47
 174 005e 0E94 0000 		call uart1_putc
 175               	.LVL6:
 176 0062 00C0      		rjmp .L11
 177               		.cfi_endproc
 178               	.LFE14:
 180               		.section	.rodata.str1.1,"aMS",@progbits,1
 181               	.LC0:
 182 0000 4F4B 0A00 		.string	"OK\n"
 183               	.LC1:
 184 0004 5445 5354 		.string	"TEST_OK\n"
 184      5F4F 4B0A 
 184      00
 185               	.LC2:
 186 000d 4944 3D41 		.string	"ID=AC250;VER=250;EEPROM="
 186      4332 3530 
 186      3B56 4552 
 186      3D32 3530 
 186      3B45 4550 
 187               	.LC3:
 188 0026 3635 3533 		.string	"65536"
 188      3600 
 189               	.LC4:
 190 002c 3B41 4444 		.string	";ADDR_BYTES="
 190      525F 4259 
 190      5445 533D 
 190      00
 191               	.LC5:
 192 0039 3200      		.string	"2"
 193               	.LC6:
 194 003b 0A00      		.string	"\n"
 195               		.text
 196               	.global	uart1_process_commands
 198               	uart1_process_commands:
 199               	.LFB16:
  43:uart1_eeprom.c **** 
  44:uart1_eeprom.c **** extern volatile uint8_t poziom_sieci_gsm;
  45:uart1_eeprom.c **** 
  46:uart1_eeprom.c **** #ifdef USE_EXTERNAL_EEPROM
  47:uart1_eeprom.c **** /* Protokół zgodny z konfiguratorem: R+addr(2B)->1B, W+addr(2B)+data->OK na końcu */
  48:uart1_eeprom.c **** #define EEPROM_UART_SIZE 65536
  49:uart1_eeprom.c **** #else
  50:uart1_eeprom.c **** #define EEPROM_UART_SIZE 1024
  51:uart1_eeprom.c **** #endif
  52:uart1_eeprom.c **** 
  53:uart1_eeprom.c **** #if EEPROM_UART_SIZE == 65536
  54:uart1_eeprom.c **** #define EEPROM_UART_SIZE_STR "65536"
  55:uart1_eeprom.c **** #define EEPROM_ADDR_BYTES_STR "2"
  56:uart1_eeprom.c **** #else
  57:uart1_eeprom.c **** #define EEPROM_UART_SIZE_STR "1024"
  58:uart1_eeprom.c **** #define EEPROM_ADDR_BYTES_STR "2"
  59:uart1_eeprom.c **** #endif
  60:uart1_eeprom.c **** 
  61:uart1_eeprom.c **** static void uart1_send_device_identity(void) {
  62:uart1_eeprom.c ****   uart1_puts("ID=" CONFIG_DEVICE_ID ";VER=" CONFIG_PROTOCOL_VERSION_STR ";EEPROM=");
  63:uart1_eeprom.c ****   uart1_puts(EEPROM_UART_SIZE_STR);
  64:uart1_eeprom.c ****   uart1_puts(";ADDR_BYTES=");
  65:uart1_eeprom.c ****   uart1_puts(EEPROM_ADDR_BYTES_STR);
  66:uart1_eeprom.c ****   uart1_puts("\n");
  67:uart1_eeprom.c **** }
  68:uart1_eeprom.c **** 
  69:uart1_eeprom.c **** #ifdef USE_EXTERNAL_EEPROM
  70:uart1_eeprom.c **** /* Stan maszyny dla R: czekamy na addr_hi, addr_lo */
  71:uart1_eeprom.c **** static uint8_t uart_r_state = 0;
  72:uart1_eeprom.c **** static uint8_t uart_r_addr_h = 0, uart_r_addr_l = 0;
  73:uart1_eeprom.c **** 
  74:uart1_eeprom.c **** /* Stan maszyny dla W: czekamy na addr_hi, addr_lo, data */
  75:uart1_eeprom.c **** static uint8_t uart_w_state = 0;
  76:uart1_eeprom.c **** static uint8_t uart_w_addr_h = 0, uart_w_addr_l = 0;
  77:uart1_eeprom.c **** static uint32_t uart_w_count = 0;
  78:uart1_eeprom.c **** #endif
  79:uart1_eeprom.c **** 
  80:uart1_eeprom.c **** void uart1_process_commands(void) {
 200               		.loc 1 80 35 is_stmt 1 view -0
 201               		.cfi_startproc
 202 0064 CF93      		push r28
 203               	.LCFI2:
 204               		.cfi_def_cfa_offset 3
 205               		.cfi_offset 28, -2
 206 0066 DF93      		push r29
 207               	.LCFI3:
 208               		.cfi_def_cfa_offset 4
 209               		.cfi_offset 29, -3
 210               	/* prologue: function */
 211               	/* frame size = 0 */
 212               	/* stack size = 2 */
 213               	.L__stack_usage = 2
  81:uart1_eeprom.c **** #ifdef USE_EXTERNAL_EEPROM
  82:uart1_eeprom.c ****   /* Obsługa R - adresowany odczyt bajt po bajcie */
  83:uart1_eeprom.c ****   if (uart_r_state == 1 && uart1_data_available()) {
 214               		.loc 1 83 3 view .LVU49
 215               		.loc 1 83 20 is_stmt 0 view .LVU50
 216 0068 8091 0000 		lds r24,uart_r_state
 217               		.loc 1 83 6 view .LVU51
 218 006c 8130      		cpi r24,lo8(1)
 219 006e 01F4      		brne .L14
 220               	.LBB57:
 221               	.LBI57:
  35:uart1_eeprom.c ****   return (UCSR1A & (1 << RXC1)) != 0;
 222               		.loc 1 35 15 is_stmt 1 view .LVU52
 223               	.LBB58:
  36:uart1_eeprom.c **** }
 224               		.loc 1 36 3 view .LVU53
  36:uart1_eeprom.c **** }
 225               		.loc 1 36 11 is_stmt 0 view .LVU54
 226 0070 8091 C800 		lds r24,200
 227               	.LBE58:
 228               	.LBE57:
 229               		.loc 1 83 25 view .LVU55
 230 0074 87FF      		sbrs r24,7
 231 0076 00C0      		rjmp .L15
  84:uart1_eeprom.c ****     uart_r_addr_h = uart1_getc();
 232               		.loc 1 84 5 is_stmt 1 view .LVU56
 233               		.loc 1 84 21 is_stmt 0 view .LVU57
 234 0078 0E94 0000 		call uart1_getc
 235               	.LVL7:
 236               		.loc 1 84 19 view .LVU58
 237 007c 8093 0000 		sts uart_r_addr_h,r24
  85:uart1_eeprom.c ****     uart_r_state = 2;
 238               		.loc 1 85 5 is_stmt 1 view .LVU59
 239               		.loc 1 85 18 is_stmt 0 view .LVU60
 240 0080 82E0      		ldi r24,lo8(2)
 241               	.L43:
  86:uart1_eeprom.c ****     return;
  87:uart1_eeprom.c ****   }
  88:uart1_eeprom.c ****   if (uart_r_state == 2 && uart1_data_available()) {
  89:uart1_eeprom.c ****     uart_r_addr_l = uart1_getc();
  90:uart1_eeprom.c ****     {
  91:uart1_eeprom.c ****       uint16_t addr = ((uint16_t)uart_r_addr_h << 8) | uart_r_addr_l;
  92:uart1_eeprom.c ****       if (addr < EEPROM_UART_SIZE) {
  93:uart1_eeprom.c ****         unsigned char data = eeprom_read_byte((const uint8_t *)addr);
  94:uart1_eeprom.c ****         uart1_putc(data);
  95:uart1_eeprom.c ****       } else {
  96:uart1_eeprom.c ****         uart1_putc(0xFF);
  97:uart1_eeprom.c ****       }
  98:uart1_eeprom.c ****     }
  99:uart1_eeprom.c ****     uart_r_state = 0;
 100:uart1_eeprom.c ****     return;
 101:uart1_eeprom.c ****   }
 102:uart1_eeprom.c **** 
 103:uart1_eeprom.c ****   /* Obsługa W - adresowany zapis bajt po bajcie */
 104:uart1_eeprom.c ****   if (uart_w_state == 1 && uart1_data_available()) {
 105:uart1_eeprom.c ****     uart_w_addr_h = uart1_getc();
 106:uart1_eeprom.c ****     uart_w_state = 2;
 107:uart1_eeprom.c ****     return;
 108:uart1_eeprom.c ****   }
 109:uart1_eeprom.c ****   if (uart_w_state == 2 && uart1_data_available()) {
 110:uart1_eeprom.c ****     uart_w_addr_l = uart1_getc();
 111:uart1_eeprom.c ****     uart_w_state = 3;
 112:uart1_eeprom.c ****     return;
 113:uart1_eeprom.c ****   }
 114:uart1_eeprom.c ****   if (uart_w_state == 3 && uart1_data_available()) {
 115:uart1_eeprom.c ****     unsigned char data = uart1_getc();
 116:uart1_eeprom.c ****     uint16_t addr = ((uint16_t)uart_w_addr_h << 8) | uart_w_addr_l;
 117:uart1_eeprom.c ****     if (addr < EEPROM_UART_SIZE)
 118:uart1_eeprom.c ****       eeprom_write_byte((uint8_t *)addr, data);
 119:uart1_eeprom.c ****     if (addr == 0)
 120:uart1_eeprom.c ****       uart_w_count = 0;
 121:uart1_eeprom.c ****     uart_w_count++;
 122:uart1_eeprom.c ****     if (addr == (EEPROM_UART_SIZE - 1)) {
 123:uart1_eeprom.c ****       uart_w_state = 0;
 124:uart1_eeprom.c ****       uart_w_count = 0;
 125:uart1_eeprom.c ****       uart1_puts("OK\n");
 126:uart1_eeprom.c ****     } else {
 127:uart1_eeprom.c ****       uart_w_state = 0; /* czekaj na następne 'W' od konfiguratora */
 128:uart1_eeprom.c ****     }
 129:uart1_eeprom.c ****     return;
 130:uart1_eeprom.c ****   }
 131:uart1_eeprom.c **** #endif
 132:uart1_eeprom.c **** 
 133:uart1_eeprom.c ****   if (!uart1_data_available())
 134:uart1_eeprom.c ****     return;
 135:uart1_eeprom.c **** 
 136:uart1_eeprom.c ****   unsigned char cmd = uart1_getc();
 137:uart1_eeprom.c **** 
 138:uart1_eeprom.c ****   switch (cmd) {
 139:uart1_eeprom.c ****   case 'C': {
 140:uart1_eeprom.c ****     for (uint8_t i = 0; i < 4; i++) {
 141:uart1_eeprom.c ****       unsigned char data = uart1_getc();
 142:uart1_eeprom.c ****       eeprom_write_byte((uint8_t *)(1 + i), data);
 143:uart1_eeprom.c ****       _delay_ms(5);
 144:uart1_eeprom.c ****     }
 145:uart1_eeprom.c ****     uart1_puts("OK\n");
 146:uart1_eeprom.c ****     break;
 147:uart1_eeprom.c ****   }
 148:uart1_eeprom.c **** 
 149:uart1_eeprom.c ****   case 'c': {
 150:uart1_eeprom.c ****     for (uint8_t i = 0; i < 4; i++) {
 151:uart1_eeprom.c ****       unsigned char data = eeprom_read_byte((uint8_t *)(1 + i));
 152:uart1_eeprom.c ****       uart1_putc(data);
 153:uart1_eeprom.c ****     }
 154:uart1_eeprom.c ****     break;
 155:uart1_eeprom.c ****   }
 156:uart1_eeprom.c **** 
 157:uart1_eeprom.c **** #ifdef USE_EXTERNAL_EEPROM
 158:uart1_eeprom.c ****   case CMD_READ_EEPROM: {
 159:uart1_eeprom.c ****     /* Rozpocznij odczyt - czekamy na 2 bajty adresu */
 160:uart1_eeprom.c ****     uart_r_state = 1;
 242               		.loc 1 160 18 view .LVU61
 243 0082 8093 0000 		sts uart_r_state,r24
 161:uart1_eeprom.c ****     break;
 244               		.loc 1 161 5 is_stmt 1 view .LVU62
 245 0086 00C0      		rjmp .L13
 246               	.L14:
  88:uart1_eeprom.c ****     uart_r_addr_l = uart1_getc();
 247               		.loc 1 88 3 view .LVU63
  88:uart1_eeprom.c ****     uart_r_addr_l = uart1_getc();
 248               		.loc 1 88 6 is_stmt 0 view .LVU64
 249 0088 8230      		cpi r24,lo8(2)
 250 008a 01F4      		brne .L15
 251               	.LBB59:
 252               	.LBI59:
  35:uart1_eeprom.c ****   return (UCSR1A & (1 << RXC1)) != 0;
 253               		.loc 1 35 15 is_stmt 1 view .LVU65
 254               	.LBB60:
  36:uart1_eeprom.c **** }
 255               		.loc 1 36 3 view .LVU66
  36:uart1_eeprom.c **** }
 256               		.loc 1 36 11 is_stmt 0 view .LVU67
 257 008c 8091 C800 		lds r24,200
 258               	.LBE60:
 259               	.LBE59:
  88:uart1_eeprom.c ****     uart_r_addr_l = uart1_getc();
 260               		.loc 1 88 25 view .LVU68
 261 0090 87FF      		sbrs r24,7
 262 0092 00C0      		rjmp .L15
  89:uart1_eeprom.c ****     {
 263               		.loc 1 89 5 is_stmt 1 view .LVU69
  89:uart1_eeprom.c ****     {
 264               		.loc 1 89 21 is_stmt 0 view .LVU70
 265 0094 0E94 0000 		call uart1_getc
 266               	.LVL8:
 267               	.LBB61:
  91:uart1_eeprom.c ****       if (addr < EEPROM_UART_SIZE) {
 268               		.loc 1 91 7 is_stmt 1 view .LVU71
  92:uart1_eeprom.c ****         unsigned char data = eeprom_read_byte((const uint8_t *)addr);
 269               		.loc 1 92 7 view .LVU72
 270               	.LBB62:
  93:uart1_eeprom.c ****         uart1_putc(data);
 271               		.loc 1 93 9 view .LVU73
 272               	.LBE62:
  91:uart1_eeprom.c ****       if (addr < EEPROM_UART_SIZE) {
 273               		.loc 1 91 24 is_stmt 0 view .LVU74
 274 0098 9091 0000 		lds r25,uart_r_addr_h
 275               	.LBB63:
  93:uart1_eeprom.c ****         uart1_putc(data);
 276               		.loc 1 93 30 view .LVU75
 277 009c 0E94 0000 		call eeprom_read_byte
 278               	.LVL9:
  94:uart1_eeprom.c ****       } else {
 279               		.loc 1 94 9 is_stmt 1 view .LVU76
 280 00a0 0E94 0000 		call uart1_putc
 281               	.LVL10:
  94:uart1_eeprom.c ****       } else {
 282               		.loc 1 94 9 is_stmt 0 view .LVU77
 283               	.LBE63:
 284               	.LBE61:
  99:uart1_eeprom.c ****     return;
 285               		.loc 1 99 5 is_stmt 1 view .LVU78
  99:uart1_eeprom.c ****     return;
 286               		.loc 1 99 18 is_stmt 0 view .LVU79
 287 00a4 1092 0000 		sts uart_r_state,__zero_reg__
 100:uart1_eeprom.c ****   }
 288               		.loc 1 100 5 is_stmt 1 view .LVU80
 289               	.L13:
 290               	/* epilogue start */
 162:uart1_eeprom.c ****   }
 163:uart1_eeprom.c **** 
 164:uart1_eeprom.c ****   case CMD_WRITE_EEPROM: {
 165:uart1_eeprom.c ****     /* Rozpocznij zapis - czekamy na addr_hi, addr_lo, data.
 166:uart1_eeprom.c ****      * Konfigurator wysyła W dla każdego bajtu, więc W = pierwszy bajt
 167:uart1_eeprom.c ****      * następnych 3 to addr_h, addr_l, data. */
 168:uart1_eeprom.c ****     uart_w_state = 1;
 169:uart1_eeprom.c ****     break;
 170:uart1_eeprom.c ****   }
 171:uart1_eeprom.c **** #else
 172:uart1_eeprom.c ****   case CMD_READ_EEPROM: {
 173:uart1_eeprom.c ****     /* Stary protokół: strumieniowy odczyt 1024 B */
 174:uart1_eeprom.c ****     for (uint16_t i = 0; i < EEPROM_UART_SIZE; i++) {
 175:uart1_eeprom.c ****       unsigned char data = eeprom_read_byte((const uint8_t *)i);
 176:uart1_eeprom.c ****       uart1_putc(data);
 177:uart1_eeprom.c ****     }
 178:uart1_eeprom.c ****     break;
 179:uart1_eeprom.c ****   }
 180:uart1_eeprom.c **** 
 181:uart1_eeprom.c ****   case CMD_WRITE_EEPROM: {
 182:uart1_eeprom.c ****     /* Stary protokół: strumieniowy zapis 1024 B */
 183:uart1_eeprom.c ****     for (uint16_t i = 0; i < EEPROM_UART_SIZE; i++) {
 184:uart1_eeprom.c ****       while (!uart1_data_available())
 185:uart1_eeprom.c ****         ;
 186:uart1_eeprom.c ****       unsigned char data = uart1_getc();
 187:uart1_eeprom.c ****       eeprom_write_byte((uint8_t *)i, data);
 188:uart1_eeprom.c ****     }
 189:uart1_eeprom.c ****     uart1_puts("OK\n");
 190:uart1_eeprom.c ****     break;
 191:uart1_eeprom.c ****   }
 192:uart1_eeprom.c **** #endif
 193:uart1_eeprom.c **** 
 194:uart1_eeprom.c ****   case 'T': {
 195:uart1_eeprom.c ****     uart1_puts("TEST_OK\n");
 196:uart1_eeprom.c ****     break;
 197:uart1_eeprom.c ****   }
 198:uart1_eeprom.c **** 
 199:uart1_eeprom.c ****   case CMD_POLL_DEVICE:
 200:uart1_eeprom.c ****   case CMD_GET_ID: {
 201:uart1_eeprom.c ****     uart1_send_device_identity();
 202:uart1_eeprom.c ****     break;
 203:uart1_eeprom.c ****   }
 204:uart1_eeprom.c **** 
 205:uart1_eeprom.c ****   case 'S': {
 206:uart1_eeprom.c ****     uart1_putc(poziom_sieci_gsm);
 207:uart1_eeprom.c ****     break;
 208:uart1_eeprom.c ****   }
 209:uart1_eeprom.c **** 
 210:uart1_eeprom.c ****   default:
 211:uart1_eeprom.c ****     uart1_putc(cmd);
 212:uart1_eeprom.c ****     break;
 213:uart1_eeprom.c ****   }
 214:uart1_eeprom.c **** }
 291               		.loc 1 214 1 is_stmt 0 view .LVU81
 292 00a8 DF91      		pop r29
 293 00aa CF91      		pop r28
 294 00ac 0895      		ret
 295               	.L15:
 104:uart1_eeprom.c ****     uart_w_addr_h = uart1_getc();
 296               		.loc 1 104 3 is_stmt 1 view .LVU82
 104:uart1_eeprom.c ****     uart_w_addr_h = uart1_getc();
 297               		.loc 1 104 20 is_stmt 0 view .LVU83
 298 00ae 8091 0000 		lds r24,uart_w_state
 104:uart1_eeprom.c ****     uart_w_addr_h = uart1_getc();
 299               		.loc 1 104 6 view .LVU84
 300 00b2 8130      		cpi r24,lo8(1)
 301 00b4 01F4      		brne .L17
 302               	.LBB64:
 303               	.LBI64:
  35:uart1_eeprom.c ****   return (UCSR1A & (1 << RXC1)) != 0;
 304               		.loc 1 35 15 is_stmt 1 view .LVU85
 305               	.LBB65:
  36:uart1_eeprom.c **** }
 306               		.loc 1 36 3 view .LVU86
  36:uart1_eeprom.c **** }
 307               		.loc 1 36 11 is_stmt 0 view .LVU87
 308 00b6 8091 C800 		lds r24,200
 309               	.LBE65:
 310               	.LBE64:
 104:uart1_eeprom.c ****     uart_w_addr_h = uart1_getc();
 311               		.loc 1 104 25 view .LVU88
 312 00ba 87FF      		sbrs r24,7
 313 00bc 00C0      		rjmp .L18
 105:uart1_eeprom.c ****     uart_w_state = 2;
 314               		.loc 1 105 5 is_stmt 1 view .LVU89
 105:uart1_eeprom.c ****     uart_w_state = 2;
 315               		.loc 1 105 21 is_stmt 0 view .LVU90
 316 00be 0E94 0000 		call uart1_getc
 317               	.LVL11:
 105:uart1_eeprom.c ****     uart_w_state = 2;
 318               		.loc 1 105 19 view .LVU91
 319 00c2 8093 0000 		sts uart_w_addr_h,r24
 106:uart1_eeprom.c ****     return;
 320               		.loc 1 106 5 is_stmt 1 view .LVU92
 106:uart1_eeprom.c ****     return;
 321               		.loc 1 106 18 is_stmt 0 view .LVU93
 322 00c6 82E0      		ldi r24,lo8(2)
 323               	.L44:
 168:uart1_eeprom.c ****     break;
 324               		.loc 1 168 18 view .LVU94
 325 00c8 8093 0000 		sts uart_w_state,r24
 169:uart1_eeprom.c ****   }
 326               		.loc 1 169 5 is_stmt 1 view .LVU95
 327 00cc 00C0      		rjmp .L13
 328               	.L17:
 109:uart1_eeprom.c ****     uart_w_addr_l = uart1_getc();
 329               		.loc 1 109 3 view .LVU96
 109:uart1_eeprom.c ****     uart_w_addr_l = uart1_getc();
 330               		.loc 1 109 6 is_stmt 0 view .LVU97
 331 00ce 8230      		cpi r24,lo8(2)
 332 00d0 01F4      		brne .L19
 333               	.LBB66:
 334               	.LBI66:
  35:uart1_eeprom.c ****   return (UCSR1A & (1 << RXC1)) != 0;
 335               		.loc 1 35 15 is_stmt 1 view .LVU98
 336               	.LBB67:
  36:uart1_eeprom.c **** }
 337               		.loc 1 36 3 view .LVU99
  36:uart1_eeprom.c **** }
 338               		.loc 1 36 11 is_stmt 0 view .LVU100
 339 00d2 8091 C800 		lds r24,200
 340               	.LBE67:
 341               	.LBE66:
 109:uart1_eeprom.c ****     uart_w_addr_l = uart1_getc();
 342               		.loc 1 109 25 view .LVU101
 343 00d6 87FF      		sbrs r24,7
 344 00d8 00C0      		rjmp .L18
 110:uart1_eeprom.c ****     uart_w_state = 3;
 345               		.loc 1 110 5 is_stmt 1 view .LVU102
 110:uart1_eeprom.c ****     uart_w_state = 3;
 346               		.loc 1 110 21 is_stmt 0 view .LVU103
 347 00da 0E94 0000 		call uart1_getc
 348               	.LVL12:
 110:uart1_eeprom.c ****     uart_w_state = 3;
 349               		.loc 1 110 19 view .LVU104
 350 00de 8093 0000 		sts uart_w_addr_l,r24
 111:uart1_eeprom.c ****     return;
 351               		.loc 1 111 5 is_stmt 1 view .LVU105
 111:uart1_eeprom.c ****     return;
 352               		.loc 1 111 18 is_stmt 0 view .LVU106
 353 00e2 83E0      		ldi r24,lo8(3)
 354 00e4 00C0      		rjmp .L44
 355               	.L19:
 114:uart1_eeprom.c ****     unsigned char data = uart1_getc();
 356               		.loc 1 114 3 is_stmt 1 view .LVU107
 114:uart1_eeprom.c ****     unsigned char data = uart1_getc();
 357               		.loc 1 114 6 is_stmt 0 view .LVU108
 358 00e6 8330      		cpi r24,lo8(3)
 359 00e8 01F0      		breq .+2
 360 00ea 00C0      		rjmp .L18
 361               	.LBB68:
 362               	.LBI68:
  35:uart1_eeprom.c ****   return (UCSR1A & (1 << RXC1)) != 0;
 363               		.loc 1 35 15 is_stmt 1 view .LVU109
 364               	.LBB69:
  36:uart1_eeprom.c **** }
 365               		.loc 1 36 3 view .LVU110
  36:uart1_eeprom.c **** }
 366               		.loc 1 36 11 is_stmt 0 view .LVU111
 367 00ec 8091 C800 		lds r24,200
 368               	.LBE69:
 369               	.LBE68:
 114:uart1_eeprom.c ****     unsigned char data = uart1_getc();
 370               		.loc 1 114 25 view .LVU112
 371 00f0 87FF      		sbrs r24,7
 372 00f2 00C0      		rjmp .L18
 373               	.LBB70:
 115:uart1_eeprom.c ****     uint16_t addr = ((uint16_t)uart_w_addr_h << 8) | uart_w_addr_l;
 374               		.loc 1 115 5 is_stmt 1 view .LVU113
 115:uart1_eeprom.c ****     uint16_t addr = ((uint16_t)uart_w_addr_h << 8) | uart_w_addr_l;
 375               		.loc 1 115 26 is_stmt 0 view .LVU114
 376 00f4 0E94 0000 		call uart1_getc
 377               	.LVL13:
 116:uart1_eeprom.c ****     if (addr < EEPROM_UART_SIZE)
 378               		.loc 1 116 5 is_stmt 1 view .LVU115
 116:uart1_eeprom.c ****     if (addr < EEPROM_UART_SIZE)
 379               		.loc 1 116 22 is_stmt 0 view .LVU116
 380 00f8 9091 0000 		lds r25,uart_w_addr_h
 116:uart1_eeprom.c ****     if (addr < EEPROM_UART_SIZE)
 381               		.loc 1 116 52 view .LVU117
 382 00fc C091 0000 		lds r28,uart_w_addr_l
 116:uart1_eeprom.c ****     if (addr < EEPROM_UART_SIZE)
 383               		.loc 1 116 14 view .LVU118
 384 0100 D92F      		mov r29,r25
 385               	.LVL14:
 117:uart1_eeprom.c ****       eeprom_write_byte((uint8_t *)addr, data);
 386               		.loc 1 117 5 is_stmt 1 view .LVU119
 118:uart1_eeprom.c ****     if (addr == 0)
 387               		.loc 1 118 7 view .LVU120
 388 0102 682F      		mov r22,r24
 389 0104 CE01      		movw r24,r28
 390               	.LVL15:
 118:uart1_eeprom.c ****     if (addr == 0)
 391               		.loc 1 118 7 is_stmt 0 view .LVU121
 392 0106 0E94 0000 		call eeprom_write_byte
 393               	.LVL16:
 119:uart1_eeprom.c ****       uart_w_count = 0;
 394               		.loc 1 119 5 is_stmt 1 view .LVU122
 119:uart1_eeprom.c ****       uart_w_count = 0;
 395               		.loc 1 119 8 is_stmt 0 view .LVU123
 396 010a 2097      		sbiw r28,0
 397 010c 01F4      		brne .L20
 120:uart1_eeprom.c ****     uart_w_count++;
 398               		.loc 1 120 7 is_stmt 1 view .LVU124
 120:uart1_eeprom.c ****     uart_w_count++;
 399               		.loc 1 120 20 is_stmt 0 view .LVU125
 400 010e 1092 0000 		sts uart_w_count,__zero_reg__
 401 0112 1092 0000 		sts uart_w_count+1,__zero_reg__
 402 0116 1092 0000 		sts uart_w_count+2,__zero_reg__
 403 011a 1092 0000 		sts uart_w_count+3,__zero_reg__
 404               	.L20:
 121:uart1_eeprom.c ****     if (addr == (EEPROM_UART_SIZE - 1)) {
 405               		.loc 1 121 5 is_stmt 1 view .LVU126
 121:uart1_eeprom.c ****     if (addr == (EEPROM_UART_SIZE - 1)) {
 406               		.loc 1 121 17 is_stmt 0 view .LVU127
 407 011e 8091 0000 		lds r24,uart_w_count
 408 0122 9091 0000 		lds r25,uart_w_count+1
 409 0126 A091 0000 		lds r26,uart_w_count+2
 410 012a B091 0000 		lds r27,uart_w_count+3
 411 012e 0196      		adiw r24,1
 412 0130 A11D      		adc r26,__zero_reg__
 413 0132 B11D      		adc r27,__zero_reg__
 414 0134 8093 0000 		sts uart_w_count,r24
 415 0138 9093 0000 		sts uart_w_count+1,r25
 416 013c A093 0000 		sts uart_w_count+2,r26
 417 0140 B093 0000 		sts uart_w_count+3,r27
 122:uart1_eeprom.c ****       uart_w_state = 0;
 418               		.loc 1 122 5 is_stmt 1 view .LVU128
 123:uart1_eeprom.c ****       uart_w_count = 0;
 419               		.loc 1 123 20 is_stmt 0 view .LVU129
 420 0144 1092 0000 		sts uart_w_state,__zero_reg__
 122:uart1_eeprom.c ****       uart_w_state = 0;
 421               		.loc 1 122 8 view .LVU130
 422 0148 2196      		adiw r28,1
 423 014a 01F0      		breq .+2
 424 014c 00C0      		rjmp .L13
 123:uart1_eeprom.c ****       uart_w_count = 0;
 425               		.loc 1 123 7 is_stmt 1 view .LVU131
 124:uart1_eeprom.c ****       uart1_puts("OK\n");
 426               		.loc 1 124 7 view .LVU132
 124:uart1_eeprom.c ****       uart1_puts("OK\n");
 427               		.loc 1 124 20 is_stmt 0 view .LVU133
 428 014e 1092 0000 		sts uart_w_count,__zero_reg__
 429 0152 1092 0000 		sts uart_w_count+1,__zero_reg__
 430 0156 1092 0000 		sts uart_w_count+2,__zero_reg__
 431 015a 1092 0000 		sts uart_w_count+3,__zero_reg__
 125:uart1_eeprom.c ****     } else {
 432               		.loc 1 125 7 is_stmt 1 view .LVU134
 433               	.LVL17:
 434               	.L45:
 125:uart1_eeprom.c ****     } else {
 435               		.loc 1 125 7 is_stmt 0 view .LVU135
 436               	.LBE70:
 145:uart1_eeprom.c ****     break;
 437               		.loc 1 145 5 is_stmt 1 view .LVU136
 438 015e 80E0      		ldi r24,lo8(.LC0)
 439 0160 90E0      		ldi r25,hi8(.LC0)
 440               	.L46:
 441               	/* epilogue start */
 442               		.loc 1 214 1 is_stmt 0 view .LVU137
 443 0162 DF91      		pop r29
 444 0164 CF91      		pop r28
 195:uart1_eeprom.c ****     break;
 445               		.loc 1 195 5 view .LVU138
 446 0166 0C94 0000 		jmp uart1_puts
 447               	.LVL18:
 448               	.L18:
 133:uart1_eeprom.c ****     return;
 449               		.loc 1 133 3 is_stmt 1 view .LVU139
 450               	.LBB71:
 451               	.LBI71:
  35:uart1_eeprom.c ****   return (UCSR1A & (1 << RXC1)) != 0;
 452               		.loc 1 35 15 view .LVU140
 453               	.LBB72:
  36:uart1_eeprom.c **** }
 454               		.loc 1 36 3 view .LVU141
  36:uart1_eeprom.c **** }
 455               		.loc 1 36 11 is_stmt 0 view .LVU142
 456 016a 8091 C800 		lds r24,200
 457               	.LBE72:
 458               	.LBE71:
 133:uart1_eeprom.c ****     return;
 459               		.loc 1 133 6 view .LVU143
 460 016e 87FF      		sbrs r24,7
 461 0170 00C0      		rjmp .L13
 136:uart1_eeprom.c **** 
 462               		.loc 1 136 3 is_stmt 1 view .LVU144
 136:uart1_eeprom.c **** 
 463               		.loc 1 136 23 is_stmt 0 view .LVU145
 464 0172 0E94 0000 		call uart1_getc
 465               	.LVL19:
 138:uart1_eeprom.c ****   case 'C': {
 466               		.loc 1 138 3 is_stmt 1 view .LVU146
 467 0176 8235      		cpi r24,lo8(82)
 468 0178 01F0      		breq .L23
 469 017a 00F4      		brsh .L24
 470 017c 8934      		cpi r24,lo8(73)
 471 017e 01F0      		breq .L25
 472 0180 8035      		cpi r24,lo8(80)
 473 0182 01F0      		breq .L25
 474 0184 8334      		cpi r24,lo8(67)
 475 0186 01F0      		breq .L33
 476               	.LVL20:
 477               	.L27:
 211:uart1_eeprom.c ****     break;
 478               		.loc 1 211 5 view .LVU147
 479               	/* epilogue start */
 480               		.loc 1 214 1 is_stmt 0 view .LVU148
 481 0188 DF91      		pop r29
 482 018a CF91      		pop r28
 211:uart1_eeprom.c ****     break;
 483               		.loc 1 211 5 view .LVU149
 484 018c 0C94 0000 		jmp uart1_putc
 485               	.LVL21:
 486               	.L24:
 138:uart1_eeprom.c ****   case 'C': {
 487               		.loc 1 138 3 view .LVU150
 488 0190 8435      		cpi r24,lo8(84)
 489 0192 01F0      		breq .L28
 490 0194 00F0      		brlo .L29
 491 0196 8735      		cpi r24,lo8(87)
 492 0198 01F0      		breq .L30
 493 019a C1E0      		ldi r28,lo8(1)
 494 019c D0E0      		ldi r29,0
 495 019e 8336      		cpi r24,lo8(99)
 496 01a0 01F4      		brne .L27
 497               	.LVL22:
 498               	.L31:
 499               	.LBB73:
 500               	.LBB74:
 151:uart1_eeprom.c ****       uart1_putc(data);
 501               		.loc 1 151 7 is_stmt 1 discriminator 3 view .LVU151
 151:uart1_eeprom.c ****       uart1_putc(data);
 502               		.loc 1 151 28 is_stmt 0 discriminator 3 view .LVU152
 503 01a2 CE01      		movw r24,r28
 504 01a4 0E94 0000 		call eeprom_read_byte
 505               	.LVL23:
 152:uart1_eeprom.c ****     }
 506               		.loc 1 152 7 is_stmt 1 discriminator 3 view .LVU153
 507 01a8 0E94 0000 		call uart1_putc
 508               	.LVL24:
 152:uart1_eeprom.c ****     }
 509               		.loc 1 152 7 is_stmt 0 discriminator 3 view .LVU154
 510               	.LBE74:
 150:uart1_eeprom.c ****       unsigned char data = eeprom_read_byte((uint8_t *)(1 + i));
 511               		.loc 1 150 32 is_stmt 1 discriminator 3 view .LVU155
 150:uart1_eeprom.c ****       unsigned char data = eeprom_read_byte((uint8_t *)(1 + i));
 512               		.loc 1 150 25 discriminator 3 view .LVU156
 513 01ac 2196      		adiw r28,1
 514               	.LVL25:
 150:uart1_eeprom.c ****       unsigned char data = eeprom_read_byte((uint8_t *)(1 + i));
 515               		.loc 1 150 5 is_stmt 0 discriminator 3 view .LVU157
 516 01ae C530      		cpi r28,5
 517 01b0 D105      		cpc r29,__zero_reg__
 518 01b2 01F4      		brne .L31
 519 01b4 00C0      		rjmp .L13
 520               	.LVL26:
 521               	.L33:
 150:uart1_eeprom.c ****       unsigned char data = eeprom_read_byte((uint8_t *)(1 + i));
 522               		.loc 1 150 5 discriminator 3 view .LVU158
 523               	.LBE73:
 138:uart1_eeprom.c ****   case 'C': {
 524               		.loc 1 138 3 view .LVU159
 525 01b6 C1E0      		ldi r28,lo8(1)
 526 01b8 D0E0      		ldi r29,0
 527               	.LVL27:
 528               	.L26:
 529               	.LBB75:
 530               	.LBB76:
 141:uart1_eeprom.c ****       eeprom_write_byte((uint8_t *)(1 + i), data);
 531               		.loc 1 141 7 is_stmt 1 discriminator 3 view .LVU160
 141:uart1_eeprom.c ****       eeprom_write_byte((uint8_t *)(1 + i), data);
 532               		.loc 1 141 28 is_stmt 0 discriminator 3 view .LVU161
 533 01ba 0E94 0000 		call uart1_getc
 534               	.LVL28:
 142:uart1_eeprom.c ****       _delay_ms(5);
 535               		.loc 1 142 7 is_stmt 1 discriminator 3 view .LVU162
 536 01be 682F      		mov r22,r24
 537 01c0 CE01      		movw r24,r28
 538               	.LVL29:
 142:uart1_eeprom.c ****       _delay_ms(5);
 539               		.loc 1 142 7 is_stmt 0 discriminator 3 view .LVU163
 540 01c2 0E94 0000 		call eeprom_write_byte
 541               	.LVL30:
 143:uart1_eeprom.c ****     }
 542               		.loc 1 143 7 is_stmt 1 discriminator 3 view .LVU164
 543               	.LBB77:
 544               	.LBI77:
 545               		.file 2 "/opt/homebrew/Cellar/avr-gcc@8/8.5.0_3/avr/include/util/delay.h"
   1:/opt/homebrew/Cellar/avr-gcc@8/8.5.0_3/avr/include/util/delay.h **** /* Copyright (c) 2002, Marek Michalkiewicz
   2:/opt/homebrew/Cellar/avr-gcc@8/8.5.0_3/avr/include/util/delay.h ****    Copyright (c) 2004,2005,2007 Joerg Wunsch
   3:/opt/homebrew/Cellar/avr-gcc@8/8.5.0_3/avr/include/util/delay.h ****    Copyright (c) 2007  Florin-Viorel Petrov
   4:/opt/homebrew/Cellar/avr-gcc@8/8.5.0_3/avr/include/util/delay.h ****    All rights reserved.
   5:/opt/homebrew/Cellar/avr-gcc@8/8.5.0_3/avr/include/util/delay.h **** 
   6:/opt/homebrew/Cellar/avr-gcc@8/8.5.0_3/avr/include/util/delay.h ****    Redistribution and use in source and binary forms, with or without
   7:/opt/homebrew/Cellar/avr-gcc@8/8.5.0_3/avr/include/util/delay.h ****    modification, are permitted provided that the following conditions are met:
   8:/opt/homebrew/Cellar/avr-gcc@8/8.5.0_3/avr/include/util/delay.h **** 
   9:/opt/homebrew/Cellar/avr-gcc@8/8.5.0_3/avr/include/util/delay.h ****    * Redistributions of source code must retain the above copyright
  10:/opt/homebrew/Cellar/avr-gcc@8/8.5.0_3/avr/include/util/delay.h ****      notice, this list of conditions and the following disclaimer.
  11:/opt/homebrew/Cellar/avr-gcc@8/8.5.0_3/avr/include/util/delay.h **** 
  12:/opt/homebrew/Cellar/avr-gcc@8/8.5.0_3/avr/include/util/delay.h ****    * Redistributions in binary form must reproduce the above copyright
  13:/opt/homebrew/Cellar/avr-gcc@8/8.5.0_3/avr/include/util/delay.h ****      notice, this list of conditions and the following disclaimer in
  14:/opt/homebrew/Cellar/avr-gcc@8/8.5.0_3/avr/include/util/delay.h ****      the documentation and/or other materials provided with the
  15:/opt/homebrew/Cellar/avr-gcc@8/8.5.0_3/avr/include/util/delay.h ****      distribution.
  16:/opt/homebrew/Cellar/avr-gcc@8/8.5.0_3/avr/include/util/delay.h **** 
  17:/opt/homebrew/Cellar/avr-gcc@8/8.5.0_3/avr/include/util/delay.h ****    * Neither the name of the copyright holders nor the names of
  18:/opt/homebrew/Cellar/avr-gcc@8/8.5.0_3/avr/include/util/delay.h ****      contributors may be used to endorse or promote products derived
  19:/opt/homebrew/Cellar/avr-gcc@8/8.5.0_3/avr/include/util/delay.h ****      from this software without specific prior written permission.
  20:/opt/homebrew/Cellar/avr-gcc@8/8.5.0_3/avr/include/util/delay.h **** 
  21:/opt/homebrew/Cellar/avr-gcc@8/8.5.0_3/avr/include/util/delay.h ****   THIS SOFTWARE IS PROVIDED BY THE COPYRIGHT HOLDERS AND CONTRIBUTORS "AS IS"
  22:/opt/homebrew/Cellar/avr-gcc@8/8.5.0_3/avr/include/util/delay.h ****   AND ANY EXPRESS OR IMPLIED WARRANTIES, INCLUDING, BUT NOT LIMITED TO, THE
  23:/opt/homebrew/Cellar/avr-gcc@8/8.5.0_3/avr/include/util/delay.h ****   IMPLIED WARRANTIES OF MERCHANTABILITY AND FITNESS FOR A PARTICULAR PURPOSE
  24:/opt/homebrew/Cellar/avr-gcc@8/8.5.0_3/avr/include/util/delay.h ****   ARE DISCLAIMED. IN NO EVENT SHALL THE COPYRIGHT OWNER OR CONTRIBUTORS BE
  25:/opt/homebrew/Cellar/avr-gcc@8/8.5.0_3/avr/include/util/delay.h ****   LIABLE FOR ANY DIRECT, INDIRECT, INCIDENTAL, SPECIAL, EXEMPLARY, OR
  26:/opt/homebrew/Cellar/avr-gcc@8/8.5.0_3/avr/include/util/delay.h ****   CONSEQUENTIAL DAMAGES (INCLUDING, BUT NOT LIMITED TO, PROCUREMENT OF
  27:/opt/homebrew/Cellar/avr-gcc@8/8.5.0_3/avr/include/util/delay.h ****   SUBSTITUTE GOODS OR SERVICES; LOSS OF USE, DATA, OR PROFITS; OR BUSINESS
  28:/opt/homebrew/Cellar/avr-gcc@8/8.5.0_3/avr/include/util/delay.h ****   INTERRUPTION) HOWEVER CAUSED AND ON ANY THEORY OF LIABILITY, WHETHER IN
  29:/opt/homebrew/Cellar/avr-gcc@8/8.5.0_3/avr/include/util/delay.h ****   CONTRACT, STRICT LIABILITY, OR TORT (INCLUDING NEGLIGENCE OR OTHERWISE)
  30:/opt/homebrew/Cellar/avr-gcc@8/8.5.0_3/avr/include/util/delay.h ****   ARISING IN ANY WAY OUT OF THE USE OF THIS SOFTWARE, EVEN IF ADVISED OF THE
  31:/opt/homebrew/Cellar/avr-gcc@8/8.5.0_3/avr/include/util/delay.h ****   POSSIBILITY OF SUCH DAMAGE. */
  32:/opt/homebrew/Cellar/avr-gcc@8/8.5.0_3/avr/include/util/delay.h **** 
  33:/opt/homebrew/Cellar/avr-gcc@8/8.5.0_3/avr/include/util/delay.h **** /* $Id: delay.h.in 2551 2020-10-10 20:33:35Z joerg_wunsch $ */
  34:/opt/homebrew/Cellar/avr-gcc@8/8.5.0_3/avr/include/util/delay.h **** 
  35:/opt/homebrew/Cellar/avr-gcc@8/8.5.0_3/avr/include/util/delay.h **** #ifndef _UTIL_DELAY_H_
  36:/opt/homebrew/Cellar/avr-gcc@8/8.5.0_3/avr/include/util/delay.h **** #define _UTIL_DELAY_H_ 1
  37:/opt/homebrew/Cellar/avr-gcc@8/8.5.0_3/avr/include/util/delay.h **** 
  38:/opt/homebrew/Cellar/avr-gcc@8/8.5.0_3/avr/include/util/delay.h **** #ifndef __DOXYGEN__
  39:/opt/homebrew/Cellar/avr-gcc@8/8.5.0_3/avr/include/util/delay.h **** #  ifndef __HAS_DELAY_CYCLES
  40:/opt/homebrew/Cellar/avr-gcc@8/8.5.0_3/avr/include/util/delay.h **** #    define __HAS_DELAY_CYCLES 1
  41:/opt/homebrew/Cellar/avr-gcc@8/8.5.0_3/avr/include/util/delay.h **** #  endif
  42:/opt/homebrew/Cellar/avr-gcc@8/8.5.0_3/avr/include/util/delay.h **** #endif  /* __DOXYGEN__ */
  43:/opt/homebrew/Cellar/avr-gcc@8/8.5.0_3/avr/include/util/delay.h **** 
  44:/opt/homebrew/Cellar/avr-gcc@8/8.5.0_3/avr/include/util/delay.h **** #include <inttypes.h>
  45:/opt/homebrew/Cellar/avr-gcc@8/8.5.0_3/avr/include/util/delay.h **** #include <util/delay_basic.h>
  46:/opt/homebrew/Cellar/avr-gcc@8/8.5.0_3/avr/include/util/delay.h **** #include <math.h>
  47:/opt/homebrew/Cellar/avr-gcc@8/8.5.0_3/avr/include/util/delay.h **** 
  48:/opt/homebrew/Cellar/avr-gcc@8/8.5.0_3/avr/include/util/delay.h **** /** \file */
  49:/opt/homebrew/Cellar/avr-gcc@8/8.5.0_3/avr/include/util/delay.h **** /** \defgroup util_delay <util/delay.h>: Convenience functions for busy-wait delay loops
  50:/opt/homebrew/Cellar/avr-gcc@8/8.5.0_3/avr/include/util/delay.h ****     \code
  51:/opt/homebrew/Cellar/avr-gcc@8/8.5.0_3/avr/include/util/delay.h ****     #define F_CPU 1000000UL  // 1 MHz
  52:/opt/homebrew/Cellar/avr-gcc@8/8.5.0_3/avr/include/util/delay.h ****     //#define F_CPU 14.7456E6
  53:/opt/homebrew/Cellar/avr-gcc@8/8.5.0_3/avr/include/util/delay.h ****     #include <util/delay.h>
  54:/opt/homebrew/Cellar/avr-gcc@8/8.5.0_3/avr/include/util/delay.h ****     \endcode
  55:/opt/homebrew/Cellar/avr-gcc@8/8.5.0_3/avr/include/util/delay.h **** 
  56:/opt/homebrew/Cellar/avr-gcc@8/8.5.0_3/avr/include/util/delay.h ****     \note As an alternative method, it is possible to pass the
  57:/opt/homebrew/Cellar/avr-gcc@8/8.5.0_3/avr/include/util/delay.h ****     F_CPU macro down to the compiler from the Makefile.
  58:/opt/homebrew/Cellar/avr-gcc@8/8.5.0_3/avr/include/util/delay.h ****     Obviously, in that case, no \c \#define statement should be
  59:/opt/homebrew/Cellar/avr-gcc@8/8.5.0_3/avr/include/util/delay.h ****     used.
  60:/opt/homebrew/Cellar/avr-gcc@8/8.5.0_3/avr/include/util/delay.h **** 
  61:/opt/homebrew/Cellar/avr-gcc@8/8.5.0_3/avr/include/util/delay.h ****     The functions in this header file are wrappers around the basic
  62:/opt/homebrew/Cellar/avr-gcc@8/8.5.0_3/avr/include/util/delay.h ****     busy-wait functions from <util/delay_basic.h>.  They are meant as
  63:/opt/homebrew/Cellar/avr-gcc@8/8.5.0_3/avr/include/util/delay.h ****     convenience functions where actual time values can be specified
  64:/opt/homebrew/Cellar/avr-gcc@8/8.5.0_3/avr/include/util/delay.h ****     rather than a number of cycles to wait for.  The idea behind is
  65:/opt/homebrew/Cellar/avr-gcc@8/8.5.0_3/avr/include/util/delay.h ****     that compile-time constant expressions will be eliminated by
  66:/opt/homebrew/Cellar/avr-gcc@8/8.5.0_3/avr/include/util/delay.h ****     compiler optimization so floating-point expressions can be used
  67:/opt/homebrew/Cellar/avr-gcc@8/8.5.0_3/avr/include/util/delay.h ****     to calculate the number of delay cycles needed based on the CPU
  68:/opt/homebrew/Cellar/avr-gcc@8/8.5.0_3/avr/include/util/delay.h ****     frequency passed by the macro F_CPU.
  69:/opt/homebrew/Cellar/avr-gcc@8/8.5.0_3/avr/include/util/delay.h **** 
  70:/opt/homebrew/Cellar/avr-gcc@8/8.5.0_3/avr/include/util/delay.h ****     \note In order for these functions to work as intended, compiler
  71:/opt/homebrew/Cellar/avr-gcc@8/8.5.0_3/avr/include/util/delay.h ****     optimizations <em>must</em> be enabled, and the delay time
  72:/opt/homebrew/Cellar/avr-gcc@8/8.5.0_3/avr/include/util/delay.h ****     <em>must</em> be an expression that is a known constant at
  73:/opt/homebrew/Cellar/avr-gcc@8/8.5.0_3/avr/include/util/delay.h ****     compile-time.  If these requirements are not met, the resulting
  74:/opt/homebrew/Cellar/avr-gcc@8/8.5.0_3/avr/include/util/delay.h ****     delay will be much longer (and basically unpredictable), and
  75:/opt/homebrew/Cellar/avr-gcc@8/8.5.0_3/avr/include/util/delay.h ****     applications that otherwise do not use floating-point calculations
  76:/opt/homebrew/Cellar/avr-gcc@8/8.5.0_3/avr/include/util/delay.h ****     will experience severe code bloat by the floating-point library
  77:/opt/homebrew/Cellar/avr-gcc@8/8.5.0_3/avr/include/util/delay.h ****     routines linked into the application.
  78:/opt/homebrew/Cellar/avr-gcc@8/8.5.0_3/avr/include/util/delay.h **** 
  79:/opt/homebrew/Cellar/avr-gcc@8/8.5.0_3/avr/include/util/delay.h ****     The functions available allow the specification of microsecond, and
  80:/opt/homebrew/Cellar/avr-gcc@8/8.5.0_3/avr/include/util/delay.h ****     millisecond delays directly, using the application-supplied macro
  81:/opt/homebrew/Cellar/avr-gcc@8/8.5.0_3/avr/include/util/delay.h ****     F_CPU as the CPU clock frequency (in Hertz).
  82:/opt/homebrew/Cellar/avr-gcc@8/8.5.0_3/avr/include/util/delay.h **** 
  83:/opt/homebrew/Cellar/avr-gcc@8/8.5.0_3/avr/include/util/delay.h **** */
  84:/opt/homebrew/Cellar/avr-gcc@8/8.5.0_3/avr/include/util/delay.h **** 
  85:/opt/homebrew/Cellar/avr-gcc@8/8.5.0_3/avr/include/util/delay.h **** #if !defined(__DOXYGEN__)
  86:/opt/homebrew/Cellar/avr-gcc@8/8.5.0_3/avr/include/util/delay.h **** static __inline__ void _delay_us(double __us) __attribute__((__always_inline__));
  87:/opt/homebrew/Cellar/avr-gcc@8/8.5.0_3/avr/include/util/delay.h **** static __inline__ void _delay_ms(double __ms) __attribute__((__always_inline__));
  88:/opt/homebrew/Cellar/avr-gcc@8/8.5.0_3/avr/include/util/delay.h **** #endif
  89:/opt/homebrew/Cellar/avr-gcc@8/8.5.0_3/avr/include/util/delay.h **** 
  90:/opt/homebrew/Cellar/avr-gcc@8/8.5.0_3/avr/include/util/delay.h **** #ifndef F_CPU
  91:/opt/homebrew/Cellar/avr-gcc@8/8.5.0_3/avr/include/util/delay.h **** /* prevent compiler error by supplying a default */
  92:/opt/homebrew/Cellar/avr-gcc@8/8.5.0_3/avr/include/util/delay.h **** # warning "F_CPU not defined for <util/delay.h>"
  93:/opt/homebrew/Cellar/avr-gcc@8/8.5.0_3/avr/include/util/delay.h **** /** \ingroup util_delay
  94:/opt/homebrew/Cellar/avr-gcc@8/8.5.0_3/avr/include/util/delay.h ****     \def F_CPU
  95:/opt/homebrew/Cellar/avr-gcc@8/8.5.0_3/avr/include/util/delay.h ****     \brief CPU frequency in Hz
  96:/opt/homebrew/Cellar/avr-gcc@8/8.5.0_3/avr/include/util/delay.h **** 
  97:/opt/homebrew/Cellar/avr-gcc@8/8.5.0_3/avr/include/util/delay.h ****     The macro F_CPU specifies the CPU frequency to be considered by
  98:/opt/homebrew/Cellar/avr-gcc@8/8.5.0_3/avr/include/util/delay.h ****     the delay macros.  This macro is normally supplied by the
  99:/opt/homebrew/Cellar/avr-gcc@8/8.5.0_3/avr/include/util/delay.h ****     environment (e.g. from within a project header, or the project's
 100:/opt/homebrew/Cellar/avr-gcc@8/8.5.0_3/avr/include/util/delay.h ****     Makefile).  The value 1 MHz here is only provided as a "vanilla"
 101:/opt/homebrew/Cellar/avr-gcc@8/8.5.0_3/avr/include/util/delay.h ****     fallback if no such user-provided definition could be found.
 102:/opt/homebrew/Cellar/avr-gcc@8/8.5.0_3/avr/include/util/delay.h **** 
 103:/opt/homebrew/Cellar/avr-gcc@8/8.5.0_3/avr/include/util/delay.h ****     In terms of the delay functions, the CPU frequency can be given as
 104:/opt/homebrew/Cellar/avr-gcc@8/8.5.0_3/avr/include/util/delay.h ****     a floating-point constant (e.g. 3.6864E6 for 3.6864 MHz).
 105:/opt/homebrew/Cellar/avr-gcc@8/8.5.0_3/avr/include/util/delay.h ****     However, the macros in <util/setbaud.h> require it to be an
 106:/opt/homebrew/Cellar/avr-gcc@8/8.5.0_3/avr/include/util/delay.h ****     integer value.
 107:/opt/homebrew/Cellar/avr-gcc@8/8.5.0_3/avr/include/util/delay.h ****  */
 108:/opt/homebrew/Cellar/avr-gcc@8/8.5.0_3/avr/include/util/delay.h **** # define F_CPU 1000000UL
 109:/opt/homebrew/Cellar/avr-gcc@8/8.5.0_3/avr/include/util/delay.h **** #endif
 110:/opt/homebrew/Cellar/avr-gcc@8/8.5.0_3/avr/include/util/delay.h **** 
 111:/opt/homebrew/Cellar/avr-gcc@8/8.5.0_3/avr/include/util/delay.h **** #ifndef __OPTIMIZE__
 112:/opt/homebrew/Cellar/avr-gcc@8/8.5.0_3/avr/include/util/delay.h **** # warning "Compiler optimizations disabled; functions from <util/delay.h> won't work as designed"
 113:/opt/homebrew/Cellar/avr-gcc@8/8.5.0_3/avr/include/util/delay.h **** #endif
 114:/opt/homebrew/Cellar/avr-gcc@8/8.5.0_3/avr/include/util/delay.h **** 
 115:/opt/homebrew/Cellar/avr-gcc@8/8.5.0_3/avr/include/util/delay.h **** #if __HAS_DELAY_CYCLES && defined(__OPTIMIZE__) && \
 116:/opt/homebrew/Cellar/avr-gcc@8/8.5.0_3/avr/include/util/delay.h ****   !defined(__DELAY_BACKWARD_COMPATIBLE__) &&	   \
 117:/opt/homebrew/Cellar/avr-gcc@8/8.5.0_3/avr/include/util/delay.h ****   __STDC_HOSTED__
 118:/opt/homebrew/Cellar/avr-gcc@8/8.5.0_3/avr/include/util/delay.h **** #  include <math.h>
 119:/opt/homebrew/Cellar/avr-gcc@8/8.5.0_3/avr/include/util/delay.h **** #endif
 120:/opt/homebrew/Cellar/avr-gcc@8/8.5.0_3/avr/include/util/delay.h **** 
 121:/opt/homebrew/Cellar/avr-gcc@8/8.5.0_3/avr/include/util/delay.h **** /**
 122:/opt/homebrew/Cellar/avr-gcc@8/8.5.0_3/avr/include/util/delay.h ****    \ingroup util_delay
 123:/opt/homebrew/Cellar/avr-gcc@8/8.5.0_3/avr/include/util/delay.h **** 
 124:/opt/homebrew/Cellar/avr-gcc@8/8.5.0_3/avr/include/util/delay.h ****    Perform a delay of \c __ms milliseconds, using _delay_loop_2().
 125:/opt/homebrew/Cellar/avr-gcc@8/8.5.0_3/avr/include/util/delay.h **** 
 126:/opt/homebrew/Cellar/avr-gcc@8/8.5.0_3/avr/include/util/delay.h ****    The macro F_CPU is supposed to be defined to a
 127:/opt/homebrew/Cellar/avr-gcc@8/8.5.0_3/avr/include/util/delay.h ****    constant defining the CPU clock frequency (in Hertz).
 128:/opt/homebrew/Cellar/avr-gcc@8/8.5.0_3/avr/include/util/delay.h **** 
 129:/opt/homebrew/Cellar/avr-gcc@8/8.5.0_3/avr/include/util/delay.h ****    The maximal possible delay is 262.14 ms / F_CPU in MHz.
 130:/opt/homebrew/Cellar/avr-gcc@8/8.5.0_3/avr/include/util/delay.h **** 
 131:/opt/homebrew/Cellar/avr-gcc@8/8.5.0_3/avr/include/util/delay.h ****    When the user request delay which exceed the maximum possible one,
 132:/opt/homebrew/Cellar/avr-gcc@8/8.5.0_3/avr/include/util/delay.h ****    _delay_ms() provides a decreased resolution functionality. In this
 133:/opt/homebrew/Cellar/avr-gcc@8/8.5.0_3/avr/include/util/delay.h ****    mode _delay_ms() will work with a resolution of 1/10 ms, providing
 134:/opt/homebrew/Cellar/avr-gcc@8/8.5.0_3/avr/include/util/delay.h ****    delays up to 6.5535 seconds (independent from CPU frequency).  The
 135:/opt/homebrew/Cellar/avr-gcc@8/8.5.0_3/avr/include/util/delay.h ****    user will not be informed about decreased resolution.
 136:/opt/homebrew/Cellar/avr-gcc@8/8.5.0_3/avr/include/util/delay.h **** 
 137:/opt/homebrew/Cellar/avr-gcc@8/8.5.0_3/avr/include/util/delay.h ****    If the avr-gcc toolchain has __builtin_avr_delay_cycles()
 138:/opt/homebrew/Cellar/avr-gcc@8/8.5.0_3/avr/include/util/delay.h ****    support, maximal possible delay is 4294967.295 ms/ F_CPU in MHz. For
 139:/opt/homebrew/Cellar/avr-gcc@8/8.5.0_3/avr/include/util/delay.h ****    values greater than the maximal possible delay, overflows results in
 140:/opt/homebrew/Cellar/avr-gcc@8/8.5.0_3/avr/include/util/delay.h ****    no delay i.e., 0ms.
 141:/opt/homebrew/Cellar/avr-gcc@8/8.5.0_3/avr/include/util/delay.h **** 
 142:/opt/homebrew/Cellar/avr-gcc@8/8.5.0_3/avr/include/util/delay.h ****    Conversion of \c __ms into clock cycles may not always result in
 143:/opt/homebrew/Cellar/avr-gcc@8/8.5.0_3/avr/include/util/delay.h ****    integer.  By default, the clock cycles rounded up to next
 144:/opt/homebrew/Cellar/avr-gcc@8/8.5.0_3/avr/include/util/delay.h ****    integer. This ensures that the user gets at least \c __ms
 145:/opt/homebrew/Cellar/avr-gcc@8/8.5.0_3/avr/include/util/delay.h ****    microseconds of delay.
 146:/opt/homebrew/Cellar/avr-gcc@8/8.5.0_3/avr/include/util/delay.h **** 
 147:/opt/homebrew/Cellar/avr-gcc@8/8.5.0_3/avr/include/util/delay.h ****    Alternatively, by defining the macro \c __DELAY_ROUND_DOWN__, or
 148:/opt/homebrew/Cellar/avr-gcc@8/8.5.0_3/avr/include/util/delay.h ****    \c __DELAY_ROUND_CLOSEST__, before including this header file, the
 149:/opt/homebrew/Cellar/avr-gcc@8/8.5.0_3/avr/include/util/delay.h ****    algorithm can be made to round down, or round to closest integer,
 150:/opt/homebrew/Cellar/avr-gcc@8/8.5.0_3/avr/include/util/delay.h ****    respectively.
 151:/opt/homebrew/Cellar/avr-gcc@8/8.5.0_3/avr/include/util/delay.h **** 
 152:/opt/homebrew/Cellar/avr-gcc@8/8.5.0_3/avr/include/util/delay.h ****    \note
 153:/opt/homebrew/Cellar/avr-gcc@8/8.5.0_3/avr/include/util/delay.h **** 
 154:/opt/homebrew/Cellar/avr-gcc@8/8.5.0_3/avr/include/util/delay.h ****    The implementation of _delay_ms() based on
 155:/opt/homebrew/Cellar/avr-gcc@8/8.5.0_3/avr/include/util/delay.h ****    __builtin_avr_delay_cycles() is not backward compatible with older
 156:/opt/homebrew/Cellar/avr-gcc@8/8.5.0_3/avr/include/util/delay.h ****    implementations.  In order to get functionality backward compatible
 157:/opt/homebrew/Cellar/avr-gcc@8/8.5.0_3/avr/include/util/delay.h ****    with previous versions, the macro \c "__DELAY_BACKWARD_COMPATIBLE__"
 158:/opt/homebrew/Cellar/avr-gcc@8/8.5.0_3/avr/include/util/delay.h ****    must be defined before including this header file. Also, the
 159:/opt/homebrew/Cellar/avr-gcc@8/8.5.0_3/avr/include/util/delay.h ****    backward compatible algorithm will be chosen if the code is
 160:/opt/homebrew/Cellar/avr-gcc@8/8.5.0_3/avr/include/util/delay.h ****    compiled in a <em>freestanding environment</em> (GCC option
 161:/opt/homebrew/Cellar/avr-gcc@8/8.5.0_3/avr/include/util/delay.h ****    \c -ffreestanding), as the math functions required for rounding are
 162:/opt/homebrew/Cellar/avr-gcc@8/8.5.0_3/avr/include/util/delay.h ****    not available to the compiler then.
 163:/opt/homebrew/Cellar/avr-gcc@8/8.5.0_3/avr/include/util/delay.h **** 
 164:/opt/homebrew/Cellar/avr-gcc@8/8.5.0_3/avr/include/util/delay.h ****  */
 165:/opt/homebrew/Cellar/avr-gcc@8/8.5.0_3/avr/include/util/delay.h **** void
 166:/opt/homebrew/Cellar/avr-gcc@8/8.5.0_3/avr/include/util/delay.h **** _delay_ms(double __ms)
 546               		.loc 2 166 1 discriminator 3 view .LVU165
 547               	.LBB78:
 167:/opt/homebrew/Cellar/avr-gcc@8/8.5.0_3/avr/include/util/delay.h **** {
 168:/opt/homebrew/Cellar/avr-gcc@8/8.5.0_3/avr/include/util/delay.h **** 	double __tmp ;
 548               		.loc 2 168 2 discriminator 3 view .LVU166
 169:/opt/homebrew/Cellar/avr-gcc@8/8.5.0_3/avr/include/util/delay.h **** #if __HAS_DELAY_CYCLES && defined(__OPTIMIZE__) && \
 170:/opt/homebrew/Cellar/avr-gcc@8/8.5.0_3/avr/include/util/delay.h ****   !defined(__DELAY_BACKWARD_COMPATIBLE__) &&	   \
 171:/opt/homebrew/Cellar/avr-gcc@8/8.5.0_3/avr/include/util/delay.h ****   __STDC_HOSTED__
 172:/opt/homebrew/Cellar/avr-gcc@8/8.5.0_3/avr/include/util/delay.h **** 	uint32_t __ticks_dc;
 549               		.loc 2 172 2 discriminator 3 view .LVU167
 173:/opt/homebrew/Cellar/avr-gcc@8/8.5.0_3/avr/include/util/delay.h **** 	extern void __builtin_avr_delay_cycles(unsigned long);
 550               		.loc 2 173 2 discriminator 3 view .LVU168
 174:/opt/homebrew/Cellar/avr-gcc@8/8.5.0_3/avr/include/util/delay.h **** 	__tmp = ((F_CPU) / 1e3) * __ms;
 551               		.loc 2 174 2 discriminator 3 view .LVU169
 175:/opt/homebrew/Cellar/avr-gcc@8/8.5.0_3/avr/include/util/delay.h **** 
 176:/opt/homebrew/Cellar/avr-gcc@8/8.5.0_3/avr/include/util/delay.h **** 	#if defined(__DELAY_ROUND_DOWN__)
 177:/opt/homebrew/Cellar/avr-gcc@8/8.5.0_3/avr/include/util/delay.h **** 		__ticks_dc = (uint32_t)fabs(__tmp);
 178:/opt/homebrew/Cellar/avr-gcc@8/8.5.0_3/avr/include/util/delay.h **** 
 179:/opt/homebrew/Cellar/avr-gcc@8/8.5.0_3/avr/include/util/delay.h **** 	#elif defined(__DELAY_ROUND_CLOSEST__)
 180:/opt/homebrew/Cellar/avr-gcc@8/8.5.0_3/avr/include/util/delay.h **** 		__ticks_dc = (uint32_t)(fabs(__tmp)+0.5);
 181:/opt/homebrew/Cellar/avr-gcc@8/8.5.0_3/avr/include/util/delay.h **** 
 182:/opt/homebrew/Cellar/avr-gcc@8/8.5.0_3/avr/include/util/delay.h **** 	#else
 183:/opt/homebrew/Cellar/avr-gcc@8/8.5.0_3/avr/include/util/delay.h **** 		//round up by default
 184:/opt/homebrew/Cellar/avr-gcc@8/8.5.0_3/avr/include/util/delay.h **** 		__ticks_dc = (uint32_t)(ceil(fabs(__tmp)));
 552               		.loc 2 184 3 discriminator 3 view .LVU170
 553               		.loc 2 184 3 is_stmt 0 discriminator 3 view .LVU171
 554               	.LBE78:
 555               	.LBE77:
 556               	.LBE76:
 557               	.LBE75:
 558               		.file 3 "/opt/homebrew/Cellar/avr-gcc@8/8.5.0_3/avr/include/math.h"
   1:/opt/homebrew/Cellar/avr-gcc@8/8.5.0_3/avr/include/math.h **** /* Copyright (c) 2002,2007-2009 Michael Stumpf
   2:/opt/homebrew/Cellar/avr-gcc@8/8.5.0_3/avr/include/math.h **** 
   3:/opt/homebrew/Cellar/avr-gcc@8/8.5.0_3/avr/include/math.h ****    Portions of documentation Copyright (c) 1990 - 1994
   4:/opt/homebrew/Cellar/avr-gcc@8/8.5.0_3/avr/include/math.h ****    The Regents of the University of California.
   5:/opt/homebrew/Cellar/avr-gcc@8/8.5.0_3/avr/include/math.h **** 
   6:/opt/homebrew/Cellar/avr-gcc@8/8.5.0_3/avr/include/math.h ****    All rights reserved.
   7:/opt/homebrew/Cellar/avr-gcc@8/8.5.0_3/avr/include/math.h **** 
   8:/opt/homebrew/Cellar/avr-gcc@8/8.5.0_3/avr/include/math.h ****    Redistribution and use in source and binary forms, with or without
   9:/opt/homebrew/Cellar/avr-gcc@8/8.5.0_3/avr/include/math.h ****    modification, are permitted provided that the following conditions are met:
  10:/opt/homebrew/Cellar/avr-gcc@8/8.5.0_3/avr/include/math.h **** 
  11:/opt/homebrew/Cellar/avr-gcc@8/8.5.0_3/avr/include/math.h ****    * Redistributions of source code must retain the above copyright
  12:/opt/homebrew/Cellar/avr-gcc@8/8.5.0_3/avr/include/math.h ****      notice, this list of conditions and the following disclaimer.
  13:/opt/homebrew/Cellar/avr-gcc@8/8.5.0_3/avr/include/math.h **** 
  14:/opt/homebrew/Cellar/avr-gcc@8/8.5.0_3/avr/include/math.h ****    * Redistributions in binary form must reproduce the above copyright
  15:/opt/homebrew/Cellar/avr-gcc@8/8.5.0_3/avr/include/math.h ****      notice, this list of conditions and the following disclaimer in
  16:/opt/homebrew/Cellar/avr-gcc@8/8.5.0_3/avr/include/math.h ****      the documentation and/or other materials provided with the
  17:/opt/homebrew/Cellar/avr-gcc@8/8.5.0_3/avr/include/math.h ****      distribution.
  18:/opt/homebrew/Cellar/avr-gcc@8/8.5.0_3/avr/include/math.h **** 
  19:/opt/homebrew/Cellar/avr-gcc@8/8.5.0_3/avr/include/math.h ****    * Neither the name of the copyright holders nor the names of
  20:/opt/homebrew/Cellar/avr-gcc@8/8.5.0_3/avr/include/math.h ****      contributors may be used to endorse or promote products derived
  21:/opt/homebrew/Cellar/avr-gcc@8/8.5.0_3/avr/include/math.h ****      from this software without specific prior written permission.
  22:/opt/homebrew/Cellar/avr-gcc@8/8.5.0_3/avr/include/math.h **** 
  23:/opt/homebrew/Cellar/avr-gcc@8/8.5.0_3/avr/include/math.h ****   THIS SOFTWARE IS PROVIDED BY THE COPYRIGHT HOLDERS AND CONTRIBUTORS "AS IS"
  24:/opt/homebrew/Cellar/avr-gcc@8/8.5.0_3/avr/include/math.h ****   AND ANY EXPRESS OR IMPLIED WARRANTIES, INCLUDING, BUT NOT LIMITED TO, THE
  25:/opt/homebrew/Cellar/avr-gcc@8/8.5.0_3/avr/include/math.h ****   IMPLIED WARRANTIES OF MERCHANTABILITY AND FITNESS FOR A PARTICULAR PURPOSE
  26:/opt/homebrew/Cellar/avr-gcc@8/8.5.0_3/avr/include/math.h ****   ARE DISCLAIMED. IN NO EVENT SHALL THE COPYRIGHT OWNER OR CONTRIBUTORS BE
  27:/opt/homebrew/Cellar/avr-gcc@8/8.5.0_3/avr/include/math.h ****   LIABLE FOR ANY DIRECT, INDIRECT, INCIDENTAL, SPECIAL, EXEMPLARY, OR
  28:/opt/homebrew/Cellar/avr-gcc@8/8.5.0_3/avr/include/math.h ****   CONSEQUENTIAL DAMAGES (INCLUDING, BUT NOT LIMITED TO, PROCUREMENT OF
  29:/opt/homebrew/Cellar/avr-gcc@8/8.5.0_3/avr/include/math.h ****   SUBSTITUTE GOODS OR SERVICES; LOSS OF USE, DATA, OR PROFITS; OR BUSINESS
  30:/opt/homebrew/Cellar/avr-gcc@8/8.5.0_3/avr/include/math.h ****   INTERRUPTION) HOWEVER CAUSED AND ON ANY THEORY OF LIABILITY, WHETHER IN
  31:/opt/homebrew/Cellar/avr-gcc@8/8.5.0_3/avr/include/math.h ****   CONTRACT, STRICT LIABILITY, OR TORT (INCLUDING NEGLIGENCE OR OTHERWISE)
  32:/opt/homebrew/Cellar/avr-gcc@8/8.5.0_3/avr/include/math.h ****   ARISING IN ANY WAY OUT OF THE USE OF THIS SOFTWARE, EVEN IF ADVISED OF THE
  33:/opt/homebrew/Cellar/avr-gcc@8/8.5.0_3/avr/include/math.h ****   POSSIBILITY OF SUCH DAMAGE. */
  34:/opt/homebrew/Cellar/avr-gcc@8/8.5.0_3/avr/include/math.h **** 
  35:/opt/homebrew/Cellar/avr-gcc@8/8.5.0_3/avr/include/math.h **** /* $Id: math.h 2554 2021-05-20 22:22:24Z joerg_wunsch $ */
  36:/opt/homebrew/Cellar/avr-gcc@8/8.5.0_3/avr/include/math.h **** 
  37:/opt/homebrew/Cellar/avr-gcc@8/8.5.0_3/avr/include/math.h **** /*
  38:/opt/homebrew/Cellar/avr-gcc@8/8.5.0_3/avr/include/math.h ****    math.h - mathematical functions
  39:/opt/homebrew/Cellar/avr-gcc@8/8.5.0_3/avr/include/math.h **** 
  40:/opt/homebrew/Cellar/avr-gcc@8/8.5.0_3/avr/include/math.h ****    Author : Michael Stumpf
  41:/opt/homebrew/Cellar/avr-gcc@8/8.5.0_3/avr/include/math.h ****             Michael.Stumpf@t-online.de
  42:/opt/homebrew/Cellar/avr-gcc@8/8.5.0_3/avr/include/math.h **** 
  43:/opt/homebrew/Cellar/avr-gcc@8/8.5.0_3/avr/include/math.h ****    __ATTR_CONST__ added by marekm@linux.org.pl for functions
  44:/opt/homebrew/Cellar/avr-gcc@8/8.5.0_3/avr/include/math.h ****    that "do not examine any values except their arguments, and have
  45:/opt/homebrew/Cellar/avr-gcc@8/8.5.0_3/avr/include/math.h ****    no effects except the return value", for better optimization by gcc.
  46:/opt/homebrew/Cellar/avr-gcc@8/8.5.0_3/avr/include/math.h ****  */
  47:/opt/homebrew/Cellar/avr-gcc@8/8.5.0_3/avr/include/math.h **** 
  48:/opt/homebrew/Cellar/avr-gcc@8/8.5.0_3/avr/include/math.h **** #ifndef __MATH_H
  49:/opt/homebrew/Cellar/avr-gcc@8/8.5.0_3/avr/include/math.h **** #define __MATH_H
  50:/opt/homebrew/Cellar/avr-gcc@8/8.5.0_3/avr/include/math.h **** 
  51:/opt/homebrew/Cellar/avr-gcc@8/8.5.0_3/avr/include/math.h **** /** \file */
  52:/opt/homebrew/Cellar/avr-gcc@8/8.5.0_3/avr/include/math.h **** /** \defgroup avr_math <math.h>: Mathematics
  53:/opt/homebrew/Cellar/avr-gcc@8/8.5.0_3/avr/include/math.h ****     \code #include <math.h> \endcode
  54:/opt/homebrew/Cellar/avr-gcc@8/8.5.0_3/avr/include/math.h **** 
  55:/opt/homebrew/Cellar/avr-gcc@8/8.5.0_3/avr/include/math.h ****     This header file declares basic mathematics constants and
  56:/opt/homebrew/Cellar/avr-gcc@8/8.5.0_3/avr/include/math.h ****     functions.
  57:/opt/homebrew/Cellar/avr-gcc@8/8.5.0_3/avr/include/math.h **** 
  58:/opt/homebrew/Cellar/avr-gcc@8/8.5.0_3/avr/include/math.h ****     \par Notes:
  59:/opt/homebrew/Cellar/avr-gcc@8/8.5.0_3/avr/include/math.h ****     - In order to access the functions declared herein, it is usually
  60:/opt/homebrew/Cellar/avr-gcc@8/8.5.0_3/avr/include/math.h ****       also required to additionally link against the library \c libm.a.
  61:/opt/homebrew/Cellar/avr-gcc@8/8.5.0_3/avr/include/math.h ****       See also the related \ref faq_libm "FAQ entry".
  62:/opt/homebrew/Cellar/avr-gcc@8/8.5.0_3/avr/include/math.h ****     - Math functions do not raise exceptions and do not change the
  63:/opt/homebrew/Cellar/avr-gcc@8/8.5.0_3/avr/include/math.h ****       \c errno variable. Therefore the majority of them are declared
  64:/opt/homebrew/Cellar/avr-gcc@8/8.5.0_3/avr/include/math.h ****       with const attribute, for better optimization by GCC.	*/
  65:/opt/homebrew/Cellar/avr-gcc@8/8.5.0_3/avr/include/math.h **** 
  66:/opt/homebrew/Cellar/avr-gcc@8/8.5.0_3/avr/include/math.h **** 
  67:/opt/homebrew/Cellar/avr-gcc@8/8.5.0_3/avr/include/math.h **** /** \ingroup avr_math	*/
  68:/opt/homebrew/Cellar/avr-gcc@8/8.5.0_3/avr/include/math.h **** /*@{*/
  69:/opt/homebrew/Cellar/avr-gcc@8/8.5.0_3/avr/include/math.h **** 
  70:/opt/homebrew/Cellar/avr-gcc@8/8.5.0_3/avr/include/math.h **** /** The constant \a e.	*/
  71:/opt/homebrew/Cellar/avr-gcc@8/8.5.0_3/avr/include/math.h **** #define M_E		2.7182818284590452354
  72:/opt/homebrew/Cellar/avr-gcc@8/8.5.0_3/avr/include/math.h **** 
  73:/opt/homebrew/Cellar/avr-gcc@8/8.5.0_3/avr/include/math.h **** /** The logarithm of the \a e to base 2. */
  74:/opt/homebrew/Cellar/avr-gcc@8/8.5.0_3/avr/include/math.h **** #define M_LOG2E		1.4426950408889634074	/* log_2 e */
  75:/opt/homebrew/Cellar/avr-gcc@8/8.5.0_3/avr/include/math.h **** 
  76:/opt/homebrew/Cellar/avr-gcc@8/8.5.0_3/avr/include/math.h **** /** The logarithm of the \a e to base 10. */
  77:/opt/homebrew/Cellar/avr-gcc@8/8.5.0_3/avr/include/math.h **** #define M_LOG10E	0.43429448190325182765	/* log_10 e */
  78:/opt/homebrew/Cellar/avr-gcc@8/8.5.0_3/avr/include/math.h **** 
  79:/opt/homebrew/Cellar/avr-gcc@8/8.5.0_3/avr/include/math.h **** /** The natural logarithm of the 2.	*/
  80:/opt/homebrew/Cellar/avr-gcc@8/8.5.0_3/avr/include/math.h **** #define M_LN2		0.69314718055994530942	/* log_e 2 */
  81:/opt/homebrew/Cellar/avr-gcc@8/8.5.0_3/avr/include/math.h **** 
  82:/opt/homebrew/Cellar/avr-gcc@8/8.5.0_3/avr/include/math.h **** /** The natural logarithm of the 10.	*/
  83:/opt/homebrew/Cellar/avr-gcc@8/8.5.0_3/avr/include/math.h **** #define M_LN10		2.30258509299404568402	/* log_e 10 */
  84:/opt/homebrew/Cellar/avr-gcc@8/8.5.0_3/avr/include/math.h **** 
  85:/opt/homebrew/Cellar/avr-gcc@8/8.5.0_3/avr/include/math.h **** /** The constant \a pi.	*/
  86:/opt/homebrew/Cellar/avr-gcc@8/8.5.0_3/avr/include/math.h **** #define M_PI		3.14159265358979323846	/* pi */
  87:/opt/homebrew/Cellar/avr-gcc@8/8.5.0_3/avr/include/math.h **** 
  88:/opt/homebrew/Cellar/avr-gcc@8/8.5.0_3/avr/include/math.h **** /** The constant \a pi/2.	*/
  89:/opt/homebrew/Cellar/avr-gcc@8/8.5.0_3/avr/include/math.h **** #define M_PI_2		1.57079632679489661923	/* pi/2 */
  90:/opt/homebrew/Cellar/avr-gcc@8/8.5.0_3/avr/include/math.h **** 
  91:/opt/homebrew/Cellar/avr-gcc@8/8.5.0_3/avr/include/math.h **** /** The constant \a pi/4.	*/
  92:/opt/homebrew/Cellar/avr-gcc@8/8.5.0_3/avr/include/math.h **** #define M_PI_4		0.78539816339744830962	/* pi/4 */
  93:/opt/homebrew/Cellar/avr-gcc@8/8.5.0_3/avr/include/math.h **** 
  94:/opt/homebrew/Cellar/avr-gcc@8/8.5.0_3/avr/include/math.h **** /** The constant \a 1/pi.	*/
  95:/opt/homebrew/Cellar/avr-gcc@8/8.5.0_3/avr/include/math.h **** #define M_1_PI		0.31830988618379067154	/* 1/pi */
  96:/opt/homebrew/Cellar/avr-gcc@8/8.5.0_3/avr/include/math.h **** 
  97:/opt/homebrew/Cellar/avr-gcc@8/8.5.0_3/avr/include/math.h **** /** The constant \a 2/pi.	*/
  98:/opt/homebrew/Cellar/avr-gcc@8/8.5.0_3/avr/include/math.h **** #define M_2_PI		0.63661977236758134308	/* 2/pi */
  99:/opt/homebrew/Cellar/avr-gcc@8/8.5.0_3/avr/include/math.h **** 
 100:/opt/homebrew/Cellar/avr-gcc@8/8.5.0_3/avr/include/math.h **** /** The constant \a 2/sqrt(pi).	*/
 101:/opt/homebrew/Cellar/avr-gcc@8/8.5.0_3/avr/include/math.h **** #define M_2_SQRTPI	1.12837916709551257390	/* 2/sqrt(pi) */
 102:/opt/homebrew/Cellar/avr-gcc@8/8.5.0_3/avr/include/math.h **** 
 103:/opt/homebrew/Cellar/avr-gcc@8/8.5.0_3/avr/include/math.h **** /** The square root of 2.	*/
 104:/opt/homebrew/Cellar/avr-gcc@8/8.5.0_3/avr/include/math.h **** #define M_SQRT2		1.41421356237309504880	/* sqrt(2) */
 105:/opt/homebrew/Cellar/avr-gcc@8/8.5.0_3/avr/include/math.h **** 
 106:/opt/homebrew/Cellar/avr-gcc@8/8.5.0_3/avr/include/math.h **** /** The constant \a 1/sqrt(2).	*/
 107:/opt/homebrew/Cellar/avr-gcc@8/8.5.0_3/avr/include/math.h **** #define M_SQRT1_2	0.70710678118654752440	/* 1/sqrt(2) */
 108:/opt/homebrew/Cellar/avr-gcc@8/8.5.0_3/avr/include/math.h **** 
 109:/opt/homebrew/Cellar/avr-gcc@8/8.5.0_3/avr/include/math.h **** /** NAN constant.	*/
 110:/opt/homebrew/Cellar/avr-gcc@8/8.5.0_3/avr/include/math.h **** #define NAN	__builtin_nan("")
 111:/opt/homebrew/Cellar/avr-gcc@8/8.5.0_3/avr/include/math.h **** 
 112:/opt/homebrew/Cellar/avr-gcc@8/8.5.0_3/avr/include/math.h **** /** INFINITY constant.	*/
 113:/opt/homebrew/Cellar/avr-gcc@8/8.5.0_3/avr/include/math.h **** #define INFINITY	__builtin_inf()
 114:/opt/homebrew/Cellar/avr-gcc@8/8.5.0_3/avr/include/math.h **** 
 115:/opt/homebrew/Cellar/avr-gcc@8/8.5.0_3/avr/include/math.h **** 
 116:/opt/homebrew/Cellar/avr-gcc@8/8.5.0_3/avr/include/math.h **** #ifndef __ATTR_CONST__
 117:/opt/homebrew/Cellar/avr-gcc@8/8.5.0_3/avr/include/math.h **** # define __ATTR_CONST__ __attribute__((__const__))
 118:/opt/homebrew/Cellar/avr-gcc@8/8.5.0_3/avr/include/math.h **** #endif
 119:/opt/homebrew/Cellar/avr-gcc@8/8.5.0_3/avr/include/math.h **** 
 120:/opt/homebrew/Cellar/avr-gcc@8/8.5.0_3/avr/include/math.h **** #if __SIZEOF_DOUBLE__ == __SIZEOF_FLOAT__
 121:/opt/homebrew/Cellar/avr-gcc@8/8.5.0_3/avr/include/math.h **** /* In order to provide aliases for double functions in the case where
 122:/opt/homebrew/Cellar/avr-gcc@8/8.5.0_3/avr/include/math.h ****    double = float, use declarations with according assembler name.
 123:/opt/homebrew/Cellar/avr-gcc@8/8.5.0_3/avr/include/math.h ****    That way:
 124:/opt/homebrew/Cellar/avr-gcc@8/8.5.0_3/avr/include/math.h ****    1) We do *NOT* use macros like
 125:/opt/homebrew/Cellar/avr-gcc@8/8.5.0_3/avr/include/math.h ****          #define sin sinf
 126:/opt/homebrew/Cellar/avr-gcc@8/8.5.0_3/avr/include/math.h ****       because that would interfere with C++.  For example, if some class
 127:/opt/homebrew/Cellar/avr-gcc@8/8.5.0_3/avr/include/math.h ****       would implement a method 'sin', or if there was polymorthism for
 128:/opt/homebrew/Cellar/avr-gcc@8/8.5.0_3/avr/include/math.h ****       a function 'sin', then we would silently rename these to 'sinf'.
 129:/opt/homebrew/Cellar/avr-gcc@8/8.5.0_3/avr/include/math.h ****    2) We have proper prototypes, both for 'sin' and for 'sinf'.
 130:/opt/homebrew/Cellar/avr-gcc@8/8.5.0_3/avr/include/math.h ****    3) It is zero-overhead.  */
 131:/opt/homebrew/Cellar/avr-gcc@8/8.5.0_3/avr/include/math.h **** #define __ASM_ALIAS(x) __asm(#x)
 132:/opt/homebrew/Cellar/avr-gcc@8/8.5.0_3/avr/include/math.h **** #else
 133:/opt/homebrew/Cellar/avr-gcc@8/8.5.0_3/avr/include/math.h **** /* double != float: Provide double prototypes. */
 134:/opt/homebrew/Cellar/avr-gcc@8/8.5.0_3/avr/include/math.h **** #define __ASM_ALIAS(x) /* empty */
 135:/opt/homebrew/Cellar/avr-gcc@8/8.5.0_3/avr/include/math.h **** #endif
 136:/opt/homebrew/Cellar/avr-gcc@8/8.5.0_3/avr/include/math.h **** 
 137:/opt/homebrew/Cellar/avr-gcc@8/8.5.0_3/avr/include/math.h **** #ifdef __cplusplus
 138:/opt/homebrew/Cellar/avr-gcc@8/8.5.0_3/avr/include/math.h **** extern "C" {
 139:/opt/homebrew/Cellar/avr-gcc@8/8.5.0_3/avr/include/math.h **** #endif
 140:/opt/homebrew/Cellar/avr-gcc@8/8.5.0_3/avr/include/math.h **** 
 141:/opt/homebrew/Cellar/avr-gcc@8/8.5.0_3/avr/include/math.h **** /**
 142:/opt/homebrew/Cellar/avr-gcc@8/8.5.0_3/avr/include/math.h ****     The cosf() function returns the cosine of \a __x, measured in radians.
 143:/opt/homebrew/Cellar/avr-gcc@8/8.5.0_3/avr/include/math.h ****  */
 144:/opt/homebrew/Cellar/avr-gcc@8/8.5.0_3/avr/include/math.h **** __ATTR_CONST__ extern float cosf (float __x);
 145:/opt/homebrew/Cellar/avr-gcc@8/8.5.0_3/avr/include/math.h **** __ATTR_CONST__ extern double cos (double __x) __ASM_ALIAS(cosf);		/**< The alias for cosf().	*/
 146:/opt/homebrew/Cellar/avr-gcc@8/8.5.0_3/avr/include/math.h **** 
 147:/opt/homebrew/Cellar/avr-gcc@8/8.5.0_3/avr/include/math.h **** /**
 148:/opt/homebrew/Cellar/avr-gcc@8/8.5.0_3/avr/include/math.h ****     The sinf() function returns the sine of \a __x, measured in radians.
 149:/opt/homebrew/Cellar/avr-gcc@8/8.5.0_3/avr/include/math.h ****  */
 150:/opt/homebrew/Cellar/avr-gcc@8/8.5.0_3/avr/include/math.h **** __ATTR_CONST__ extern float sinf (float __x);
 151:/opt/homebrew/Cellar/avr-gcc@8/8.5.0_3/avr/include/math.h **** __ATTR_CONST__ extern double sin (double __x) __ASM_ALIAS(sinf);		/**< The alias for sinf().	*/
 152:/opt/homebrew/Cellar/avr-gcc@8/8.5.0_3/avr/include/math.h **** 
 153:/opt/homebrew/Cellar/avr-gcc@8/8.5.0_3/avr/include/math.h **** /**
 154:/opt/homebrew/Cellar/avr-gcc@8/8.5.0_3/avr/include/math.h ****     The tanf() function returns the tangent of \a __x, measured in radians.
 155:/opt/homebrew/Cellar/avr-gcc@8/8.5.0_3/avr/include/math.h ****  */
 156:/opt/homebrew/Cellar/avr-gcc@8/8.5.0_3/avr/include/math.h **** __ATTR_CONST__ extern float tanf (float __x);
 157:/opt/homebrew/Cellar/avr-gcc@8/8.5.0_3/avr/include/math.h **** __ATTR_CONST__ extern double tan (double __x) __ASM_ALIAS(tanf);		/**< The alias for tanf().	*/
 158:/opt/homebrew/Cellar/avr-gcc@8/8.5.0_3/avr/include/math.h **** 
 159:/opt/homebrew/Cellar/avr-gcc@8/8.5.0_3/avr/include/math.h **** /**
 160:/opt/homebrew/Cellar/avr-gcc@8/8.5.0_3/avr/include/math.h ****     The fabsf() function computes the absolute value of a floating-point
 161:/opt/homebrew/Cellar/avr-gcc@8/8.5.0_3/avr/include/math.h ****     number \a __x.
 162:/opt/homebrew/Cellar/avr-gcc@8/8.5.0_3/avr/include/math.h ****  */
 163:/opt/homebrew/Cellar/avr-gcc@8/8.5.0_3/avr/include/math.h **** static inline float fabsf (float __x)
 164:/opt/homebrew/Cellar/avr-gcc@8/8.5.0_3/avr/include/math.h **** {
 165:/opt/homebrew/Cellar/avr-gcc@8/8.5.0_3/avr/include/math.h ****     return __builtin_fabsf (__x);
 166:/opt/homebrew/Cellar/avr-gcc@8/8.5.0_3/avr/include/math.h **** }
 167:/opt/homebrew/Cellar/avr-gcc@8/8.5.0_3/avr/include/math.h **** 
 168:/opt/homebrew/Cellar/avr-gcc@8/8.5.0_3/avr/include/math.h **** static inline double fabs (double __x)
 169:/opt/homebrew/Cellar/avr-gcc@8/8.5.0_3/avr/include/math.h **** {
 170:/opt/homebrew/Cellar/avr-gcc@8/8.5.0_3/avr/include/math.h ****     return __builtin_fabs (__x);
 559               		.loc 3 170 5 is_stmt 1 discriminator 3 view .LVU172
 560               	.LBB82:
 561               	.LBB81:
 562               	.LBB80:
 563               	.LBB79:
 185:/opt/homebrew/Cellar/avr-gcc@8/8.5.0_3/avr/include/util/delay.h **** 	#endif
 186:/opt/homebrew/Cellar/avr-gcc@8/8.5.0_3/avr/include/util/delay.h **** 
 187:/opt/homebrew/Cellar/avr-gcc@8/8.5.0_3/avr/include/util/delay.h **** 	__builtin_avr_delay_cycles(__ticks_dc);
 564               		.loc 2 187 2 discriminator 3 view .LVU173
 565 01c6 8FEF      		ldi r24,lo8(9215)
 566 01c8 93E2      		ldi r25,hi8(9215)
 567 01ca 0197      	1:	sbiw r24,1
 568 01cc 01F4      		brne 1b
 569 01ce 00C0      		rjmp .
 570 01d0 0000      		nop
 571               	.LVL31:
 572               		.loc 2 187 2 is_stmt 0 discriminator 3 view .LVU174
 573               	.LBE79:
 574               	.LBE80:
 575               	.LBE81:
 140:uart1_eeprom.c ****       unsigned char data = uart1_getc();
 576               		.loc 1 140 32 is_stmt 1 discriminator 3 view .LVU175
 140:uart1_eeprom.c ****       unsigned char data = uart1_getc();
 577               		.loc 1 140 25 discriminator 3 view .LVU176
 578 01d2 2196      		adiw r28,1
 579               	.LVL32:
 140:uart1_eeprom.c ****       unsigned char data = uart1_getc();
 580               		.loc 1 140 5 is_stmt 0 discriminator 3 view .LVU177
 581 01d4 C530      		cpi r28,5
 582 01d6 D105      		cpc r29,__zero_reg__
 583 01d8 01F4      		brne .L26
 584 01da 00C0      		rjmp .L45
 585               	.LVL33:
 586               	.L23:
 140:uart1_eeprom.c ****       unsigned char data = uart1_getc();
 587               		.loc 1 140 5 discriminator 3 view .LVU178
 588               	.LBE82:
 160:uart1_eeprom.c ****     break;
 589               		.loc 1 160 5 is_stmt 1 view .LVU179
 160:uart1_eeprom.c ****     break;
 590               		.loc 1 160 18 is_stmt 0 view .LVU180
 591 01dc 81E0      		ldi r24,lo8(1)
 592               	.LVL34:
 160:uart1_eeprom.c ****     break;
 593               		.loc 1 160 18 view .LVU181
 594 01de 00C0      		rjmp .L43
 595               	.LVL35:
 596               	.L30:
 168:uart1_eeprom.c ****     break;
 597               		.loc 1 168 5 is_stmt 1 view .LVU182
 168:uart1_eeprom.c ****     break;
 598               		.loc 1 168 18 is_stmt 0 view .LVU183
 599 01e0 81E0      		ldi r24,lo8(1)
 600               	.LVL36:
 168:uart1_eeprom.c ****     break;
 601               		.loc 1 168 18 view .LVU184
 602 01e2 00C0      		rjmp .L44
 603               	.LVL37:
 604               	.L28:
 195:uart1_eeprom.c ****     break;
 605               		.loc 1 195 5 is_stmt 1 view .LVU185
 606 01e4 80E0      		ldi r24,lo8(.LC1)
 607 01e6 90E0      		ldi r25,hi8(.LC1)
 608               	.LVL38:
 195:uart1_eeprom.c ****     break;
 609               		.loc 1 195 5 is_stmt 0 view .LVU186
 610 01e8 00C0      		rjmp .L46
 611               	.LVL39:
 612               	.L25:
 201:uart1_eeprom.c ****     break;
 613               		.loc 1 201 5 is_stmt 1 view .LVU187
 614               	.LBB83:
 615               	.LBI83:
  61:uart1_eeprom.c ****   uart1_puts("ID=" CONFIG_DEVICE_ID ";VER=" CONFIG_PROTOCOL_VERSION_STR ";EEPROM=");
 616               		.loc 1 61 13 view .LVU188
 617               	.LBB84:
  62:uart1_eeprom.c ****   uart1_puts(EEPROM_UART_SIZE_STR);
 618               		.loc 1 62 3 view .LVU189
 619 01ea 80E0      		ldi r24,lo8(.LC2)
 620 01ec 90E0      		ldi r25,hi8(.LC2)
 621               	.LVL40:
  62:uart1_eeprom.c ****   uart1_puts(EEPROM_UART_SIZE_STR);
 622               		.loc 1 62 3 is_stmt 0 view .LVU190
 623 01ee 0E94 0000 		call uart1_puts
 624               	.LVL41:
  63:uart1_eeprom.c ****   uart1_puts(";ADDR_BYTES=");
 625               		.loc 1 63 3 is_stmt 1 view .LVU191
 626 01f2 80E0      		ldi r24,lo8(.LC3)
 627 01f4 90E0      		ldi r25,hi8(.LC3)
 628 01f6 0E94 0000 		call uart1_puts
 629               	.LVL42:
  64:uart1_eeprom.c ****   uart1_puts(EEPROM_ADDR_BYTES_STR);
 630               		.loc 1 64 3 view .LVU192
 631 01fa 80E0      		ldi r24,lo8(.LC4)
 632 01fc 90E0      		ldi r25,hi8(.LC4)
 633 01fe 0E94 0000 		call uart1_puts
 634               	.LVL43:
  65:uart1_eeprom.c ****   uart1_puts("\n");
 635               		.loc 1 65 3 view .LVU193
 636 0202 80E0      		ldi r24,lo8(.LC5)
 637 0204 90E0      		ldi r25,hi8(.LC5)
 638 0206 0E94 0000 		call uart1_puts
 639               	.LVL44:
  66:uart1_eeprom.c **** }
 640               		.loc 1 66 3 view .LVU194
 641 020a 80E0      		ldi r24,lo8(.LC6)
 642 020c 90E0      		ldi r25,hi8(.LC6)
 643 020e 00C0      		rjmp .L46
 644               	.LVL45:
 645               	.L29:
  66:uart1_eeprom.c **** }
 646               		.loc 1 66 3 is_stmt 0 view .LVU195
 647               	.LBE84:
 648               	.LBE83:
 206:uart1_eeprom.c ****     break;
 649               		.loc 1 206 5 is_stmt 1 view .LVU196
 650 0210 8091 0000 		lds r24,poziom_sieci_gsm
 651               	.LVL46:
 206:uart1_eeprom.c ****     break;
 652               		.loc 1 206 5 is_stmt 0 view .LVU197
 653 0214 00C0      		rjmp .L27
 654               		.cfi_endproc
 655               	.LFE16:
 657               		.local	uart_w_count
 658               		.comm	uart_w_count,4,1
 659               		.local	uart_w_addr_l
 660               		.comm	uart_w_addr_l,1,1
 661               		.local	uart_w_addr_h
 662               		.comm	uart_w_addr_h,1,1
 663               		.local	uart_w_state
 664               		.comm	uart_w_state,1,1
 665               		.local	uart_r_addr_h
 666               		.comm	uart_r_addr_h,1,1
 667               		.local	uart_r_state
 668               		.comm	uart_r_state,1,1
 669               	.Letext0:
 670               		.file 4 "/opt/homebrew/Cellar/avr-gcc@8/8.5.0_3/avr/include/stdint.h"
 671               		.file 5 "eeprom_ext.h"